; ModuleID = 'vllm9391-4_combined.bc'
source_filename = "llvm-link"
target datalayout = "e-m:e-p270:32:32-p271:32:32-p272:64:64-i64:64-f80:128-n8:16:32:64-S128"
target triple = "x86_64-pc-linux-gnu"

%"class.std::ios_base::Init" = type { i8 }
%"class.at::Tensor" = type { %"class.at::TensorBase" }
%"class.at::TensorBase" = type { %"class.c10::intrusive_ptr" }
%"class.c10::intrusive_ptr" = type { %"struct.c10::TensorImpl"* }
%"struct.c10::TensorImpl" = type { %"class.c10::intrusive_ptr_target", %"struct.c10::Storage", %"class.std::unique_ptr.15", %"class.std::unique_ptr.23", %"struct.c10::VariableVersion", %"struct.c10::impl::PyObjectSlot", %"class.c10::impl::SizesAndStrides", i64, i64, %"class.caffe2::TypeMeta", %"class.std::optional.53", [3 x i8], %"class.c10::SymInt" }
%"class.c10::intrusive_ptr_target" = type { i32 (...)**, %"struct.std::atomic", %"struct.std::atomic" }
%"struct.std::atomic" = type { %"struct.std::__atomic_base" }
%"struct.std::__atomic_base" = type { i32 }
%"struct.c10::Storage" = type { %"class.c10::intrusive_ptr.0" }
%"class.c10::intrusive_ptr.0" = type { %"struct.c10::StorageImpl"* }
%"struct.c10::StorageImpl" = type { %"class.c10::intrusive_ptr_target", %"class.c10::DataPtr", %"class.c10::SymInt", i8, i8, i8, i8, i8, i8, i8, %"struct.c10::Allocator"*, %"struct.c10::impl::PyObjectSlot", %"class.std::unique_ptr.5" }
%"class.c10::DataPtr" = type <{ %"class.c10::detail::UniqueVoidPtr", %"struct.c10::Device", [6 x i8] }>
%"class.c10::detail::UniqueVoidPtr" = type { i8*, %"class.std::unique_ptr" }
%"class.std::unique_ptr" = type { %"struct.std::__uniq_ptr_data" }
%"struct.std::__uniq_ptr_data" = type { %"class.std::__uniq_ptr_impl" }
%"class.std::__uniq_ptr_impl" = type { %"class.std::tuple" }
%"class.std::tuple" = type { %"struct.std::_Tuple_impl" }
%"struct.std::_Tuple_impl" = type { %"struct.std::_Tuple_impl.1", %"struct.std::_Head_base.2" }
%"struct.std::_Tuple_impl.1" = type { %"struct.std::_Head_base" }
%"struct.std::_Head_base" = type { void (i8*)* }
%"struct.std::_Head_base.2" = type { i8* }
%"struct.c10::Device" = type { i8, i8 }
%"struct.c10::Allocator" = type { i32 (...)** }
%"class.std::unique_ptr.5" = type { %"struct.std::__uniq_ptr_data.6" }
%"struct.std::__uniq_ptr_data.6" = type { %"class.std::__uniq_ptr_impl.7" }
%"class.std::__uniq_ptr_impl.7" = type { %"class.std::tuple.8" }
%"class.std::tuple.8" = type { %"struct.std::_Tuple_impl.9" }
%"struct.std::_Tuple_impl.9" = type { %"struct.std::_Head_base.12" }
%"struct.std::_Head_base.12" = type { %"struct.c10::StorageExtraMeta"* }
%"struct.c10::StorageExtraMeta" = type { %"class.std::optional" }
%"class.std::optional" = type { %"struct.std::_Optional_base" }
%"struct.std::_Optional_base" = type { %"struct.std::_Optional_payload" }
%"struct.std::_Optional_payload" = type { %"struct.std::_Optional_payload.base", [7 x i8] }
%"struct.std::_Optional_payload.base" = type { %"struct.std::_Optional_payload_base.base" }
%"struct.std::_Optional_payload_base.base" = type <{ %"union.std::_Optional_payload_base<std::__cxx11::basic_string<char>>::_Storage", i8 }>
%"union.std::_Optional_payload_base<std::__cxx11::basic_string<char>>::_Storage" = type { %"class.std::__cxx11::basic_string" }
%"class.std::__cxx11::basic_string" = type { %"struct.std::_Head_base.2", i64, %union.anon }
%union.anon = type { i64, [8 x i8] }
%"class.std::unique_ptr.15" = type { %"struct.std::__uniq_ptr_data.16" }
%"struct.std::__uniq_ptr_data.16" = type { %"class.std::__uniq_ptr_impl.17" }
%"class.std::__uniq_ptr_impl.17" = type { %"class.std::tuple.18" }
%"class.std::tuple.18" = type { %"struct.std::_Tuple_impl.19" }
%"struct.std::_Tuple_impl.19" = type { %"struct.c10::impl::PyInterpreter" }
%"struct.c10::impl::PyInterpreter" = type { %"struct.c10::Allocator"* }
%"class.std::unique_ptr.23" = type { %"struct.std::__uniq_ptr_data.24" }
%"struct.std::__uniq_ptr_data.24" = type { %"class.std::__uniq_ptr_impl.25" }
%"class.std::__uniq_ptr_impl.25" = type { %"class.std::tuple.26" }
%"class.std::tuple.26" = type { %"struct.std::_Tuple_impl.27" }
%"struct.std::_Tuple_impl.27" = type { %"struct.std::_Head_base.30" }
%"struct.std::_Head_base.30" = type { %"struct.c10::ExtraMeta"* }
%"struct.c10::ExtraMeta" = type { %"class.std::unique_ptr.31", %"class.std::unique_ptr.15", %"class.c10::intrusive_ptr.41", %"class.std::optional", %"class.std::optional" }
%"class.std::unique_ptr.31" = type { %"struct.std::__uniq_ptr_data.32" }
%"struct.std::__uniq_ptr_data.32" = type { %"class.std::__uniq_ptr_impl.33" }
%"class.std::__uniq_ptr_impl.33" = type { %"class.std::tuple.34" }
%"class.std::tuple.34" = type { %"struct.std::_Tuple_impl.35" }
%"struct.std::_Tuple_impl.35" = type { %"struct.std::_Head_base.38" }
%"struct.std::_Head_base.38" = type { %"class.c10::SymbolicShapeMeta"* }
%"class.c10::SymbolicShapeMeta" = type { %"class.c10::SmallVector", %"class.c10::SmallVector", %"class.c10::SymInt", i8, %"struct.std::atomic", %"class.std::mutex", %"class.c10::SymInt", %"class.c10::SymBool", %"class.c10::SymBool", %"class.c10::SymBool", %"class.c10::SymBool", %"class.c10::SymBool", %"class.c10::SymBool" }
%"class.c10::SmallVector" = type { %"class.c10::SmallVectorImpl", %"struct.c10::SmallVectorStorage" }
%"class.c10::SmallVectorImpl" = type { %"class.c10::SmallVectorTemplateBase" }
%"class.c10::SmallVectorTemplateBase" = type { %"class.c10::SmallVectorTemplateCommon" }
%"class.c10::SmallVectorTemplateCommon" = type { %"class.c10::SmallVectorBase" }
%"class.c10::SmallVectorBase" = type { i8*, i32, i32 }
%"struct.c10::SmallVectorStorage" = type { [40 x i8] }
%"class.std::mutex" = type { %"class.std::__mutex_base" }
%"class.std::__mutex_base" = type { %union.pthread_mutex_t }
%union.pthread_mutex_t = type { %struct.__pthread_mutex_s }
%struct.__pthread_mutex_s = type { i32, i32, i32, i32, i32, i16, i16, %struct.__pthread_internal_list }
%struct.__pthread_internal_list = type { %struct.__pthread_internal_list*, %struct.__pthread_internal_list* }
%"class.c10::SymBool" = type { i8, %"class.c10::intrusive_ptr.41" }
%"class.c10::intrusive_ptr.41" = type { %"class.c10::SymNodeImpl"* }
%"class.c10::SymNodeImpl" = type { %"class.c10::intrusive_ptr_target" }
%"struct.c10::VariableVersion" = type { %"class.c10::intrusive_ptr.51" }
%"class.c10::intrusive_ptr.51" = type { %"struct.c10::VariableVersion::VersionCounter"* }
%"struct.c10::VariableVersion::VersionCounter" = type <{ %"class.c10::intrusive_ptr_target", %"struct.std::atomic", [4 x i8] }>
%"struct.c10::impl::PyObjectSlot" = type { %"struct.std::atomic.3", %struct._object* }
%"struct.std::atomic.3" = type { %"struct.std::__atomic_base.4" }
%"struct.std::__atomic_base.4" = type { %"struct.c10::impl::PyInterpreter"* }
%struct._object = type { i64, %struct._typeobject* }
%struct._typeobject = type { %struct.PyVarObject, i8*, i64, i64, void (%struct._object*)*, i64, %struct._object* (%struct._object*, i8*)*, i32 (%struct._object*, i8*, %struct._object*)*, %struct.PyAsyncMethods*, %struct._object* (%struct._object*)*, %struct.PyNumberMethods*, %struct.PySequenceMethods*, %struct.PyMappingMethods*, i64 (%struct._object*)*, %struct._object* (%struct._object*, %struct._object*, %struct._object*)*, %struct._object* (%struct._object*)*, %struct._object* (%struct._object*, %struct._object*)*, i32 (%struct._object*, %struct._object*, %struct._object*)*, %struct.PyBufferProcs*, i64, i8*, i32 (%struct._object*, i32 (%struct._object*, i8*)*, i8*)*, i32 (%struct._object*)*, %struct._object* (%struct._object*, %struct._object*, i32)*, i64, %struct._object* (%struct._object*)*, %struct._object* (%struct._object*)*, %struct.PyMethodDef*, %struct.PyMemberDef*, %struct.PyGetSetDef*, %struct._typeobject*, %struct._object*, %struct._object* (%struct._object*, %struct._object*, %struct._object*)*, i32 (%struct._object*, %struct._object*, %struct._object*)*, i64, i32 (%struct._object*, %struct._object*, %struct._object*)*, %struct._object* (%struct._typeobject*, i64)*, %struct._object* (%struct._typeobject*, %struct._object*, %struct._object*)*, void (i8*)*, i32 (%struct._object*)*, %struct._object*, %struct._object*, %struct._object*, %struct._object*, %struct._object*, void (%struct._object*)*, i32, void (%struct._object*)*, %struct._object* (%struct._object*, %struct._object**, i64, %struct._object*)* }
%struct.PyVarObject = type { %struct._object, i64 }
%struct.PyAsyncMethods = type { %struct._object* (%struct._object*)*, %struct._object* (%struct._object*)*, %struct._object* (%struct._object*)*, i32 (%struct._object*, %struct._object*, %struct._object**)* }
%struct.PyNumberMethods = type { %struct._object* (%struct._object*, %struct._object*)*, %struct._object* (%struct._object*, %struct._object*)*, %struct._object* (%struct._object*, %struct._object*)*, %struct._object* (%struct._object*, %struct._object*)*, %struct._object* (%struct._object*, %struct._object*)*, %struct._object* (%struct._object*, %struct._object*, %struct._object*)*, %struct._object* (%struct._object*)*, %struct._object* (%struct._object*)*, %struct._object* (%struct._object*)*, i32 (%struct._object*)*, %struct._object* (%struct._object*)*, %struct._object* (%struct._object*, %struct._object*)*, %struct._object* (%struct._object*, %struct._object*)*, %struct._object* (%struct._object*, %struct._object*)*, %struct._object* (%struct._object*, %struct._object*)*, %struct._object* (%struct._object*, %struct._object*)*, %struct._object* (%struct._object*)*, i8*, %struct._object* (%struct._object*)*, %struct._object* (%struct._object*, %struct._object*)*, %struct._object* (%struct._object*, %struct._object*)*, %struct._object* (%struct._object*, %struct._object*)*, %struct._object* (%struct._object*, %struct._object*)*, %struct._object* (%struct._object*, %struct._object*, %struct._object*)*, %struct._object* (%struct._object*, %struct._object*)*, %struct._object* (%struct._object*, %struct._object*)*, %struct._object* (%struct._object*, %struct._object*)*, %struct._object* (%struct._object*, %struct._object*)*, %struct._object* (%struct._object*, %struct._object*)*, %struct._object* (%struct._object*, %struct._object*)*, %struct._object* (%struct._object*, %struct._object*)*, %struct._object* (%struct._object*, %struct._object*)*, %struct._object* (%struct._object*, %struct._object*)*, %struct._object* (%struct._object*)*, %struct._object* (%struct._object*, %struct._object*)*, %struct._object* (%struct._object*, %struct._object*)* }
%struct.PySequenceMethods = type { i64 (%struct._object*)*, %struct._object* (%struct._object*, %struct._object*)*, %struct._object* (%struct._object*, i64)*, %struct._object* (%struct._object*, i64)*, i8*, i32 (%struct._object*, i64, %struct._object*)*, i8*, i32 (%struct._object*, %struct._object*)*, %struct._object* (%struct._object*, %struct._object*)*, %struct._object* (%struct._object*, i64)* }
%struct.PyMappingMethods = type { i64 (%struct._object*)*, %struct._object* (%struct._object*, %struct._object*)*, i32 (%struct._object*, %struct._object*, %struct._object*)* }
%struct.PyBufferProcs = type { i32 (%struct._object*, %struct.bufferinfo*, i32)*, void (%struct._object*, %struct.bufferinfo*)* }
%struct.bufferinfo = type { i8*, %struct._object*, i64, i64, i32, i32, i8*, i64*, i64*, i64*, i8* }
%struct.PyMethodDef = type { i8*, %struct._object* (%struct._object*, %struct._object*)*, i32, i8* }
%struct.PyMemberDef = type opaque
%struct.PyGetSetDef = type { i8*, %struct._object* (%struct._object*, i8*)*, i32 (%struct._object*, %struct._object*, i8*)*, i8*, i8* }
%"class.c10::impl::SizesAndStrides" = type { i64, %union.anon.52 }
%union.anon.52 = type { [10 x i64] }
%"class.caffe2::TypeMeta" = type { i16 }
%"class.std::optional.53" = type { %"struct.std::_Optional_base.54" }
%"struct.std::_Optional_base.54" = type { %"struct.std::_Optional_payload.56" }
%"struct.std::_Optional_payload.56" = type { %"struct.std::_Optional_payload_base.57" }
%"struct.std::_Optional_payload_base.57" = type { %"union.std::_Optional_payload_base<c10::Device>::_Storage", i8 }
%"union.std::_Optional_payload_base<c10::Device>::_Storage" = type { %"struct.c10::Device" }
%"class.c10::SymInt" = type { i64 }
%"class.std::optional.59" = type { %"struct.std::_Optional_base.60" }
%"struct.std::_Optional_base.60" = type { %"struct.std::_Optional_payload.62" }
%"struct.std::_Optional_payload.62" = type { %"struct.std::_Optional_payload.base.66", [7 x i8] }
%"struct.std::_Optional_payload.base.66" = type { %"struct.std::_Optional_payload_base.base.65" }
%"struct.std::_Optional_payload_base.base.65" = type <{ %"union.std::_Optional_payload_base<at::Tensor>::_Storage", i8 }>
%"union.std::_Optional_payload_base<at::Tensor>::_Storage" = type { %"class.at::Tensor" }
%struct.dim3 = type { i32, i32, i32 }
%class.anon = type { %"class.at::Tensor"*, %struct.dim3*, %struct.dim3*, %"class.at::Tensor"*, %"class.at::Tensor"*, %"class.std::optional.59"*, i32* }
%class.anon.422 = type { %struct.dim3*, %struct.dim3*, %"class.at::Tensor"*, %"class.at::Tensor"*, %"class.at::Tensor"*, %"class.std::optional.59"*, i32* }
%"class.std::__cxx11::basic_ostringstream" = type { %"struct.c10::Allocator", %"class.std::__cxx11::basic_stringbuf", %"class.std::basic_ios" }
%"class.std::__cxx11::basic_stringbuf" = type { %"class.std::basic_streambuf", i32, %"class.std::__cxx11::basic_string" }
%"class.std::basic_streambuf" = type { i32 (...)**, i8*, i8*, i8*, i8*, i8*, i8*, %"class.std::locale" }
%"class.std::locale" = type { %"class.std::locale::_Impl"* }
%"class.std::locale::_Impl" = type { i32, %"class.std::locale::facet"**, i64, %"class.std::locale::facet"**, i8** }
%"class.std::locale::facet" = type <{ i32 (...)**, i32, [4 x i8] }>
%"class.std::basic_ios" = type { %"class.std::ios_base", %"class.std::basic_ostream"*, i8, i8, %"class.std::basic_streambuf"*, %"class.std::ctype"*, %"class.std::num_put"*, %"class.std::num_put"* }
%"class.std::ios_base" = type { i32 (...)**, i64, i64, i32, i32, i32, %"struct.std::ios_base::_Callback_list"*, %"struct.std::ios_base::_Words", [8 x %"struct.std::ios_base::_Words"], i32, %"struct.std::ios_base::_Words"*, %"class.std::locale" }
%"struct.std::ios_base::_Callback_list" = type { %"struct.std::ios_base::_Callback_list"*, void (i32, %"class.std::ios_base"*, i32)*, i32, i32 }
%"struct.std::ios_base::_Words" = type { i8*, i64 }
%"class.std::basic_ostream" = type { i32 (...)**, %"class.std::basic_ios" }
%"class.std::ctype" = type <{ %"class.std::locale::facet.base", [4 x i8], %struct.__locale_struct*, i8, [7 x i8], i32*, i32*, i16*, i8, [256 x i8], [256 x i8], i8, [6 x i8] }>
%"class.std::locale::facet.base" = type <{ i32 (...)**, i32 }>
%struct.__locale_struct = type { [13 x %struct.__locale_data*], i16*, i32*, i32*, [13 x i8*] }
%struct.__locale_data = type opaque
%"class.std::num_put" = type { %"class.std::locale::facet.base", [4 x i8] }
%struct.CUstream_st = type opaque
%"struct.std::_Optional_payload_base.64" = type <{ %"union.std::_Optional_payload_base<at::Tensor>::_Storage", i8, [7 x i8] }>

$_ZNK2at10TensorBase13is_contiguousEN3c1012MemoryFormatE = comdat any

$_ZN3c106detail17torchCheckMsgImplEPKc = comdat any

$_ZNKSt8optionalIN2at6TensorEEcvbEv = comdat any

$_ZNKSt8optionalIN2at6TensorEEptEv = comdat any

$_ZNK2at10TensorBase4sizeEl = comdat any

$_ZNK2at10TensorBase5numelEv = comdat any

$_ZN4dim3C2Ejjj = comdat any

$_ZSt3minIiEUa9enable_ifILb1EERKT_S2_S2_ = comdat any

$_ZNK2at10TensorBase11scalar_typeEv = comdat any

$_ZN6detail11scalar_typeEN3c1010ScalarTypeE = comdat any

$_ZN3c108toStringENS_10ScalarTypeE = comdat any

$_ZN3c106detail17torchCheckMsgImplIJcPKcA24_cS3_A2_cEEEDcS3_DpRKT_ = comdat any

$_ZN3c103strIJcPKcA24_cS2_A2_cEEEDcDpRKT_ = comdat any

$_ZN3c106detail12_str_wrapperIJRKcRKPS2_S4_S6_S4_EE4callB5cxx11ES3_S6_S6_S6_S6_ = comdat any

$_ZN3c106detail4_strIcJPKcS3_S3_S3_EEERSoS4_RKT_DpRKT0_ = comdat any

$_ZN3c106detail4_strIcEERSoS2_RKT_ = comdat any

$_ZN3c106detail4_strIPKcJS3_S3_S3_EEERSoS4_RKT_DpRKT0_ = comdat any

$_ZN3c106detail4_strIPKcEERSoS4_RKT_ = comdat any

$_ZN3c106detail4_strIPKcJS3_S3_EEERSoS4_RKT_DpRKT0_ = comdat any

$_ZN3c106detail4_strIPKcJS3_EEERSoS4_RKT_DpRKT0_ = comdat any

$_ZNK3c1013intrusive_ptrINS_10TensorImplENS_19UndefinedTensorImplEEptEv = comdat any

$_ZNK3c1010TensorImpl5dtypeEv = comdat any

$_ZN3c1020typeMetaToScalarTypeEN6caffe28TypeMetaE = comdat any

$_ZN6caffe28TypeMeta12toScalarTypeEv = comdat any

$_ZNK6caffe28TypeMeta12isScalarTypeEv = comdat any

$_ZNK3c1010TensorImpl5numelEv = comdat any

$_ZNK3c1010TensorImpl14matches_policyENS0_18SizesStridesPolicyE = comdat any

$_ZNK3c1010TensorImpl4sizeEl = comdat any

$_ZNK3c1010TensorImpl3dimEv = comdat any

$_ZN3c1014maybe_wrap_dimEllb = comdat any

$_ZNK3c104impl15SizesAndStrides17size_at_uncheckedEm = comdat any

$_ZNK3c104impl15SizesAndStrides10sizes_dataEv = comdat any

$_ZNK3c104impl15SizesAndStrides8isInlineEv = comdat any

$_ZN3c1015_maybe_wrap_dimIlEET_S1_S1_b = comdat any

$_ZSt4moveIRlEONSt16remove_referenceIT_E4typeEOS2_ = comdat any

$_ZNK3c104impl15SizesAndStrides4sizeEv = comdat any

$_ZNKSt19_Optional_base_implIN2at6TensorESt14_Optional_baseIS1_Lb0ELb0EEE6_M_getEv = comdat any

$_ZSt11__addressofIKN2at6TensorEEPT_RS3_ = comdat any

$_ZNKSt22_Optional_payload_baseIN2at6TensorEE6_M_getEv = comdat any

$_ZNKSt19_Optional_base_implIN2at6TensorESt14_Optional_baseIS1_Lb0ELb0EEE13_M_is_engagedEv = comdat any

$_ZNK3c1010TensorImpl13is_contiguousENS_12MemoryFormatE = comdat any

$_ZNK3c1010TensorImpl21is_contiguous_defaultENS_12MemoryFormatE = comdat any

$_ZNK3c1010TensorImpl19symbolic_shape_metaEv = comdat any

$_ZNK3c1017SymbolicShapeMeta27is_channels_last_contiguousEv = comdat any

$_ZNK3c1017SymbolicShapeMeta30is_channels_last_3d_contiguousEv = comdat any

$_ZNK3c1017SymbolicShapeMeta13is_contiguousEv = comdat any

$_ZNK3c1017SymbolicShapeMeta17has_is_contiguousEv = comdat any

$_ZStanSt12memory_orderSt23__memory_order_modifier = comdat any

$__clang_call_terminate = comdat any

$_ZNK3c1017SymbolicShapeMeta34has_is_channels_last_3d_contiguousEv = comdat any

$_ZNK3c1017SymbolicShapeMeta31has_is_channels_last_contiguousEv = comdat any

$_ZNKSt10unique_ptrIN3c109ExtraMetaESt14default_deleteIS1_EEcvbEv = comdat any

$_ZNKSt10unique_ptrIN3c109ExtraMetaESt14default_deleteIS1_EEptEv = comdat any

$_ZNKSt10unique_ptrIN3c1017SymbolicShapeMetaESt14default_deleteIS1_EEcvbEv = comdat any

$_ZN3c103strIJEEEDcDpRKT_ = comdat any

$_ZN3c106detail23torchInternalAssertFailEPKcS2_jS2_NS0_22CompileTimeEmptyStringE = comdat any

$_ZNKSt10unique_ptrIN3c1017SymbolicShapeMetaESt14default_deleteIS1_EEdeEv = comdat any

$_ZNKSt10unique_ptrIN3c1017SymbolicShapeMetaESt14default_deleteIS1_EE3getEv = comdat any

$_ZNKSt15__uniq_ptr_implIN3c1017SymbolicShapeMetaESt14default_deleteIS1_EE6_M_ptrEv = comdat any

$_ZSt3getILm0EJPN3c1017SymbolicShapeMetaESt14default_deleteIS1_EEERKNSt13tuple_elementIXT_ESt5tupleIJDpT0_EEE4typeERKS9_ = comdat any

$_ZSt12__get_helperILm0EPN3c1017SymbolicShapeMetaEJSt14default_deleteIS1_EEERKT0_RKSt11_Tuple_implIXT_EJS5_DpT1_EE = comdat any

$_ZNSt11_Tuple_implILm0EJPN3c1017SymbolicShapeMetaESt14default_deleteIS1_EEE7_M_headERKS5_ = comdat any

$_ZNSt10_Head_baseILm0EPN3c1017SymbolicShapeMetaELb0EE7_M_headERKS3_ = comdat any

$_ZN3c106detail12_str_wrapperIJEE4callEv = comdat any

$_ZNKSt10unique_ptrIN3c109ExtraMetaESt14default_deleteIS1_EE3getEv = comdat any

$_ZNKSt15__uniq_ptr_implIN3c109ExtraMetaESt14default_deleteIS1_EE6_M_ptrEv = comdat any

$_ZSt3getILm0EJPN3c109ExtraMetaESt14default_deleteIS1_EEERKNSt13tuple_elementIXT_ESt5tupleIJDpT0_EEE4typeERKS9_ = comdat any

$_ZSt12__get_helperILm0EPN3c109ExtraMetaEJSt14default_deleteIS1_EEERKT0_RKSt11_Tuple_implIXT_EJS5_DpT1_EE = comdat any

$_ZNSt11_Tuple_implILm0EJPN3c109ExtraMetaESt14default_deleteIS1_EEE7_M_headERKS5_ = comdat any

$_ZNSt10_Head_baseILm0EPN3c109ExtraMetaELb0EE7_M_headERKS3_ = comdat any

$_Z14blockReduceMaxILi1024EEff = comdat any

$_Z14blockReduceMinILi1024EEff = comdat any

$_Z17float_to_int32_rnf = comdat any

$_Z13int32_to_int8i = comdat any

$_ZNK3c104HalfcvfEv = comdat any

$_ZNK3c108BFloat16cvfEv = comdat any

$_ZNK13__nv_bfloat16cv17__nv_bfloat16_rawEv = comdat any

$_ZZ36dynamic_scaled_int8_azp_quant_kernelIffiEvPKT_PaPT0_PT1_iE8scale_sh = comdat any

$_ZZ36dynamic_scaled_int8_azp_quant_kernelIffiEvPKT_PaPT0_PT1_iE6azp_sh = comdat any

$_ZZ14blockReduceMaxILi1024EEffE6shared = comdat any

$_ZZ14blockReduceMinILi1024EEffE6shared = comdat any

$_ZZ36dynamic_scaled_int8_azp_quant_kernelIN3c104HalfEfiEvPKT_PaPT0_PT1_iE8scale_sh = comdat any

$_ZZ36dynamic_scaled_int8_azp_quant_kernelIN3c104HalfEfiEvPKT_PaPT0_PT1_iE6azp_sh = comdat any

$_ZZ36dynamic_scaled_int8_azp_quant_kernelIN3c108BFloat16EfiEvPKT_PaPT0_PT1_iE8scale_sh = comdat any

$_ZZ36dynamic_scaled_int8_azp_quant_kernelIN3c108BFloat16EfiEvPKT_PaPT0_PT1_iE6azp_sh = comdat any

@llvm.global_ctors = appending global [1 x { i32, void ()*, i8* }] [{ i32, void ()*, i8* } { i32 65535, void ()* @_GLOBAL__sub_I_vllm9391_4.cu, i8* null }]
@_ZStL8__ioinit = internal global %"class.std::ios_base::Init" zeroinitializer, align 1, !dbg !0
@__dso_handle = external hidden global i8
@__func__._Z25dynamic_scaled_int8_quantRN2at6TensorERKS0_S1_RKSt8optionalIS0_E = private unnamed_addr constant [26 x i8] c"dynamic_scaled_int8_quant\00", align 1
@.str = private unnamed_addr constant [62 x i8] c"/home/mvh6224/CUDA-BOSolver/bugstudy-gklee/src2/vllm9391-4.cu\00", align 1
@.str.1 = private unnamed_addr constant [156 x i8] c"Expected input.is_contiguous() to be true, but got false.  (Could this error message be improved?  If so, please report an enhancement request to PyTorch.)\00", align 1
@.str.2 = private unnamed_addr constant [154 x i8] c"Expected out.is_contiguous() to be true, but got false.  (Could this error message be improved?  If so, please report an enhancement request to PyTorch.)\00", align 1
@.str.3 = private unnamed_addr constant [157 x i8] c"Expected scales.is_contiguous() to be true, but got false.  (Could this error message be improved?  If so, please report an enhancement request to PyTorch.)\00", align 1
@.str.4 = private unnamed_addr constant [163 x i8] c"Expected !azp || azp->is_contiguous() to be true, but got false.  (Could this error message be improved?  If so, please report an enhancement request to PyTorch.)\00", align 1
@.str.42 = private unnamed_addr constant [2 x i8] c"'\00", align 1
@.str.154 = private unnamed_addr constant [104 x i8] c"/home/mvh6224/CUDA-BOSolver/.vllm_cuda/lib/python3.10/site-packages/torch/include/c10/core/TensorImpl.h\00", align 1
@__func__._ZNK3c1010TensorImpl19symbolic_shape_metaEv = private unnamed_addr constant [20 x i8] c"symbolic_shape_meta\00", align 1
@.str.155 = private unnamed_addr constant [220 x i8] c"extra_meta_ && extra_meta_->symbolic_shape_meta_ INTERNAL ASSERT FAILED at \22/home/mvh6224/CUDA-BOSolver/.vllm_cuda/lib/python3.10/site-packages/torch/include/c10/core/TensorImpl.h\22:1733, please report a bug to PyTorch. \00", align 1
@.str.156 = private unnamed_addr constant [33 x i8] c"dynamic_scaled_int8_quant_kernel\00", align 1
@__func__._ZZ25dynamic_scaled_int8_quantRN2at6TensorERKS0_S1_RKSt8optionalIS0_EENKUlvE_clEv = private unnamed_addr constant [11 x i8] c"operator()\00", align 1
@.str.157 = private unnamed_addr constant [140 x i8] c"Expected false to be true, but got false.  (Could this error message be improved?  If so, please report an enhancement request to PyTorch.)\00", align 1
@.str.158 = private unnamed_addr constant [24 x i8] c"\22 not implemented for '\00", align 1
@.str.159 = private unnamed_addr constant [5 x i8] c"Byte\00", align 1
@.str.160 = private unnamed_addr constant [5 x i8] c"Char\00", align 1
@.str.161 = private unnamed_addr constant [6 x i8] c"Short\00", align 1
@.str.162 = private unnamed_addr constant [4 x i8] c"Int\00", align 1
@.str.163 = private unnamed_addr constant [5 x i8] c"Long\00", align 1
@.str.164 = private unnamed_addr constant [5 x i8] c"Half\00", align 1
@.str.165 = private unnamed_addr constant [6 x i8] c"Float\00", align 1
@.str.166 = private unnamed_addr constant [7 x i8] c"Double\00", align 1
@.str.167 = private unnamed_addr constant [12 x i8] c"ComplexHalf\00", align 1
@.str.168 = private unnamed_addr constant [13 x i8] c"ComplexFloat\00", align 1
@.str.169 = private unnamed_addr constant [14 x i8] c"ComplexDouble\00", align 1
@.str.170 = private unnamed_addr constant [5 x i8] c"Bool\00", align 1
@.str.171 = private unnamed_addr constant [6 x i8] c"QInt8\00", align 1
@.str.172 = private unnamed_addr constant [7 x i8] c"QUInt8\00", align 1
@.str.173 = private unnamed_addr constant [7 x i8] c"QInt32\00", align 1
@.str.174 = private unnamed_addr constant [9 x i8] c"BFloat16\00", align 1
@.str.175 = private unnamed_addr constant [9 x i8] c"QUInt4x2\00", align 1
@.str.176 = private unnamed_addr constant [9 x i8] c"QUInt2x4\00", align 1
@.str.177 = private unnamed_addr constant [8 x i8] c"Bits1x8\00", align 1
@.str.178 = private unnamed_addr constant [8 x i8] c"Bits2x4\00", align 1
@.str.179 = private unnamed_addr constant [8 x i8] c"Bits4x2\00", align 1
@.str.180 = private unnamed_addr constant [6 x i8] c"Bits8\00", align 1
@.str.181 = private unnamed_addr constant [7 x i8] c"Bits16\00", align 1
@.str.182 = private unnamed_addr constant [12 x i8] c"Float8_e5m2\00", align 1
@.str.183 = private unnamed_addr constant [14 x i8] c"Float8_e4m3fn\00", align 1
@.str.184 = private unnamed_addr constant [16 x i8] c"Float8_e5m2fnuz\00", align 1
@.str.185 = private unnamed_addr constant [16 x i8] c"Float8_e4m3fnuz\00", align 1
@.str.186 = private unnamed_addr constant [7 x i8] c"UInt16\00", align 1
@.str.187 = private unnamed_addr constant [7 x i8] c"UInt32\00", align 1
@.str.188 = private unnamed_addr constant [7 x i8] c"UInt64\00", align 1
@.str.189 = private unnamed_addr constant [6 x i8] c"UInt1\00", align 1
@.str.190 = private unnamed_addr constant [6 x i8] c"UInt2\00", align 1
@.str.191 = private unnamed_addr constant [6 x i8] c"UInt3\00", align 1
@.str.192 = private unnamed_addr constant [6 x i8] c"UInt4\00", align 1
@.str.193 = private unnamed_addr constant [6 x i8] c"UInt5\00", align 1
@.str.194 = private unnamed_addr constant [6 x i8] c"UInt6\00", align 1
@.str.195 = private unnamed_addr constant [6 x i8] c"UInt7\00", align 1
@.str.196 = private unnamed_addr constant [5 x i8] c"Int1\00", align 1
@.str.197 = private unnamed_addr constant [5 x i8] c"Int2\00", align 1
@.str.198 = private unnamed_addr constant [5 x i8] c"Int3\00", align 1
@.str.199 = private unnamed_addr constant [5 x i8] c"Int4\00", align 1
@.str.200 = private unnamed_addr constant [5 x i8] c"Int5\00", align 1
@.str.201 = private unnamed_addr constant [5 x i8] c"Int6\00", align 1
@.str.202 = private unnamed_addr constant [5 x i8] c"Int7\00", align 1
@.str.203 = private unnamed_addr constant [15 x i8] c"Float8_e8m0fnu\00", align 1
@.str.204 = private unnamed_addr constant [15 x i8] c"UNKNOWN_SCALAR\00", align 1
@_ZZ36dynamic_scaled_int8_azp_quant_kernelIffiEvPKT_PaPT0_PT1_iE8scale_sh = linkonce_odr dso_local addrspace(3) global float undef, comdat, align 4, !dbg !7
@_ZZ36dynamic_scaled_int8_azp_quant_kernelIffiEvPKT_PaPT0_PT1_iE6azp_sh = linkonce_odr dso_local addrspace(3) global i32 undef, comdat, align 4, !dbg !4367
@_ZZ14blockReduceMaxILi1024EEffE6shared = linkonce_odr dso_local addrspace(3) global [1024 x float] undef, comdat, align 4, !dbg !4369
@_ZZ14blockReduceMinILi1024EEffE6shared = linkonce_odr dso_local addrspace(3) global [1024 x float] undef, comdat, align 4, !dbg !4379
@_ZZ36dynamic_scaled_int8_azp_quant_kernelIN3c104HalfEfiEvPKT_PaPT0_PT1_iE8scale_sh = linkonce_odr dso_local addrspace(3) global float undef, comdat, align 4, !dbg !4382
@_ZZ36dynamic_scaled_int8_azp_quant_kernelIN3c104HalfEfiEvPKT_PaPT0_PT1_iE6azp_sh = linkonce_odr dso_local addrspace(3) global i32 undef, comdat, align 4, !dbg !4393
@_ZZ36dynamic_scaled_int8_azp_quant_kernelIN3c108BFloat16EfiEvPKT_PaPT0_PT1_iE8scale_sh = linkonce_odr dso_local addrspace(3) global float undef, comdat, align 4, !dbg !4395
@_ZZ36dynamic_scaled_int8_azp_quant_kernelIN3c108BFloat16EfiEvPKT_PaPT0_PT1_iE6azp_sh = linkonce_odr dso_local addrspace(3) global i32 undef, comdat, align 4, !dbg !4404

; Function Attrs: noinline uwtable
define internal void @_GLOBAL__sub_I_vllm9391_4.cu() #0 section ".text.startup" !dbg !26854 {
  call void @__cxx_global_var_init(), !dbg !26856
  ret void
}

; Function Attrs: noinline uwtable
define internal void @__cxx_global_var_init() #0 section ".text.startup" !dbg !26857 {
  call void @_ZNSt8ios_base4InitC1Ev(%"class.std::ios_base::Init"* nonnull align 1 dereferenceable(1) @_ZStL8__ioinit), !dbg !26858
  %1 = call i32 @__cxa_atexit(void (i8*)* bitcast (void (%"class.std::ios_base::Init"*)* @_ZNSt8ios_base4InitD1Ev to void (i8*)*), i8* getelementptr inbounds (%"class.std::ios_base::Init", %"class.std::ios_base::Init"* @_ZStL8__ioinit, i32 0, i32 0), i8* @__dso_handle) #3, !dbg !26860
  ret void, !dbg !26858
}

declare dso_local void @_ZNSt8ios_base4InitC1Ev(%"class.std::ios_base::Init"* nonnull align 1 dereferenceable(1)) unnamed_addr #1

; Function Attrs: nounwind
declare dso_local void @_ZNSt8ios_base4InitD1Ev(%"class.std::ios_base::Init"* nonnull align 1 dereferenceable(1)) unnamed_addr #2

; Function Attrs: nounwind
declare dso_local i32 @__cxa_atexit(void (i8*)*, i8*, i8*) #3

; Function Attrs: mustprogress noinline optnone uwtable
define dso_local void @_Z25dynamic_scaled_int8_quantRN2at6TensorERKS0_S1_RKSt8optionalIS0_E(%"class.at::Tensor"* nonnull align 8 dereferenceable(8) %0, %"class.at::Tensor"* nonnull align 8 dereferenceable(8) %1, %"class.at::Tensor"* nonnull align 8 dereferenceable(8) %2, %"class.std::optional.59"* nonnull align 8 dereferenceable(16) %3) #4 !dbg !26861 {
  %5 = alloca %"class.at::Tensor"*, align 8
  %6 = alloca %"class.at::Tensor"*, align 8
  %7 = alloca %"class.at::Tensor"*, align 8
  %8 = alloca %"class.std::optional.59"*, align 8
  %9 = alloca i32, align 4
  %10 = alloca i32, align 4
  %11 = alloca %struct.dim3, align 4
  %12 = alloca %struct.dim3, align 4
  %13 = alloca i32, align 4
  %14 = alloca %class.anon, align 8
  store %"class.at::Tensor"* %0, %"class.at::Tensor"** %5, align 8
  call void @llvm.dbg.declare(metadata %"class.at::Tensor"** %5, metadata !26865, metadata !DIExpression()), !dbg !26866
  store %"class.at::Tensor"* %1, %"class.at::Tensor"** %6, align 8
  call void @llvm.dbg.declare(metadata %"class.at::Tensor"** %6, metadata !26867, metadata !DIExpression()), !dbg !26868
  store %"class.at::Tensor"* %2, %"class.at::Tensor"** %7, align 8
  call void @llvm.dbg.declare(metadata %"class.at::Tensor"** %7, metadata !26869, metadata !DIExpression()), !dbg !26870
  store %"class.std::optional.59"* %3, %"class.std::optional.59"** %8, align 8
  call void @llvm.dbg.declare(metadata %"class.std::optional.59"** %8, metadata !26871, metadata !DIExpression()), !dbg !26872
  %15 = load %"class.at::Tensor"*, %"class.at::Tensor"** %6, align 8, !dbg !26873
  %16 = bitcast %"class.at::Tensor"* %15 to %"class.at::TensorBase"*, !dbg !26873
  %17 = call zeroext i1 @_ZNK2at10TensorBase13is_contiguousEN3c1012MemoryFormatE(%"class.at::TensorBase"* nonnull align 8 dereferenceable(8) %16, i8 signext 0), !dbg !26873
  br i1 %17, label %20, label %18, !dbg !26875

18:                                               ; preds = %4
  %19 = call i8* @_ZN3c106detail17torchCheckMsgImplEPKc(i8* getelementptr inbounds ([156 x i8], [156 x i8]* @.str.1, i64 0, i64 0)), !dbg !26876
  call void @_ZN3c106detail14torchCheckFailEPKcS2_jS2_(i8* getelementptr inbounds ([26 x i8], [26 x i8]* @__func__._Z25dynamic_scaled_int8_quantRN2at6TensorERKS0_S1_RKSt8optionalIS0_E, i64 0, i64 0), i8* getelementptr inbounds ([62 x i8], [62 x i8]* @.str, i64 0, i64 0), i32 121, i8* %19) #18, !dbg !26876
  unreachable, !dbg !26876

20:                                               ; preds = %4
  %21 = load %"class.at::Tensor"*, %"class.at::Tensor"** %5, align 8, !dbg !26878
  %22 = bitcast %"class.at::Tensor"* %21 to %"class.at::TensorBase"*, !dbg !26878
  %23 = call zeroext i1 @_ZNK2at10TensorBase13is_contiguousEN3c1012MemoryFormatE(%"class.at::TensorBase"* nonnull align 8 dereferenceable(8) %22, i8 signext 0), !dbg !26878
  br i1 %23, label %26, label %24, !dbg !26880

24:                                               ; preds = %20
  %25 = call i8* @_ZN3c106detail17torchCheckMsgImplEPKc(i8* getelementptr inbounds ([154 x i8], [154 x i8]* @.str.2, i64 0, i64 0)), !dbg !26881
  call void @_ZN3c106detail14torchCheckFailEPKcS2_jS2_(i8* getelementptr inbounds ([26 x i8], [26 x i8]* @__func__._Z25dynamic_scaled_int8_quantRN2at6TensorERKS0_S1_RKSt8optionalIS0_E, i64 0, i64 0), i8* getelementptr inbounds ([62 x i8], [62 x i8]* @.str, i64 0, i64 0), i32 122, i8* %25) #18, !dbg !26881
  unreachable, !dbg !26881

26:                                               ; preds = %20
  %27 = load %"class.at::Tensor"*, %"class.at::Tensor"** %7, align 8, !dbg !26883
  %28 = bitcast %"class.at::Tensor"* %27 to %"class.at::TensorBase"*, !dbg !26883
  %29 = call zeroext i1 @_ZNK2at10TensorBase13is_contiguousEN3c1012MemoryFormatE(%"class.at::TensorBase"* nonnull align 8 dereferenceable(8) %28, i8 signext 0), !dbg !26883
  br i1 %29, label %32, label %30, !dbg !26885

30:                                               ; preds = %26
  %31 = call i8* @_ZN3c106detail17torchCheckMsgImplEPKc(i8* getelementptr inbounds ([157 x i8], [157 x i8]* @.str.3, i64 0, i64 0)), !dbg !26886
  call void @_ZN3c106detail14torchCheckFailEPKcS2_jS2_(i8* getelementptr inbounds ([26 x i8], [26 x i8]* @__func__._Z25dynamic_scaled_int8_quantRN2at6TensorERKS0_S1_RKSt8optionalIS0_E, i64 0, i64 0), i8* getelementptr inbounds ([62 x i8], [62 x i8]* @.str, i64 0, i64 0), i32 123, i8* %31) #18, !dbg !26886
  unreachable, !dbg !26886

32:                                               ; preds = %26
  %33 = load %"class.std::optional.59"*, %"class.std::optional.59"** %8, align 8, !dbg !26888
  %34 = call zeroext i1 @_ZNKSt8optionalIN2at6TensorEEcvbEv(%"class.std::optional.59"* nonnull align 8 dereferenceable(16) %33) #3, !dbg !26888
  br i1 %34, label %35, label %42, !dbg !26888

35:                                               ; preds = %32
  %36 = load %"class.std::optional.59"*, %"class.std::optional.59"** %8, align 8, !dbg !26888
  %37 = call %"class.at::Tensor"* @_ZNKSt8optionalIN2at6TensorEEptEv(%"class.std::optional.59"* nonnull align 8 dereferenceable(16) %36) #3, !dbg !26888
  %38 = bitcast %"class.at::Tensor"* %37 to %"class.at::TensorBase"*, !dbg !26888
  %39 = call zeroext i1 @_ZNK2at10TensorBase13is_contiguousEN3c1012MemoryFormatE(%"class.at::TensorBase"* nonnull align 8 dereferenceable(8) %38, i8 signext 0), !dbg !26888
  br i1 %39, label %42, label %40, !dbg !26890

40:                                               ; preds = %35
  %41 = call i8* @_ZN3c106detail17torchCheckMsgImplEPKc(i8* getelementptr inbounds ([163 x i8], [163 x i8]* @.str.4, i64 0, i64 0)), !dbg !26891
  call void @_ZN3c106detail14torchCheckFailEPKcS2_jS2_(i8* getelementptr inbounds ([26 x i8], [26 x i8]* @__func__._Z25dynamic_scaled_int8_quantRN2at6TensorERKS0_S1_RKSt8optionalIS0_E, i64 0, i64 0), i8* getelementptr inbounds ([62 x i8], [62 x i8]* @.str, i64 0, i64 0), i32 124, i8* %41) #18, !dbg !26891
  unreachable, !dbg !26891

42:                                               ; preds = %35, %32
  call void @llvm.dbg.declare(metadata i32* %9, metadata !26893, metadata !DIExpression()), !dbg !26894
  %43 = load %"class.at::Tensor"*, %"class.at::Tensor"** %6, align 8, !dbg !26895
  %44 = bitcast %"class.at::Tensor"* %43 to %"class.at::TensorBase"*, !dbg !26895
  %45 = call i64 @_ZNK2at10TensorBase4sizeEl(%"class.at::TensorBase"* nonnull align 8 dereferenceable(8) %44, i64 -1), !dbg !26896
  %46 = trunc i64 %45 to i32, !dbg !26895
  store i32 %46, i32* %9, align 4, !dbg !26894
  call void @llvm.dbg.declare(metadata i32* %10, metadata !26897, metadata !DIExpression()), !dbg !26898
  %47 = load %"class.at::Tensor"*, %"class.at::Tensor"** %6, align 8, !dbg !26899
  %48 = bitcast %"class.at::Tensor"* %47 to %"class.at::TensorBase"*, !dbg !26899
  %49 = call i64 @_ZNK2at10TensorBase5numelEv(%"class.at::TensorBase"* nonnull align 8 dereferenceable(8) %48), !dbg !26900
  %50 = load i32, i32* %9, align 4, !dbg !26901
  %51 = sext i32 %50 to i64, !dbg !26901
  %52 = sdiv i64 %49, %51, !dbg !26902
  %53 = trunc i64 %52 to i32, !dbg !26899
  store i32 %53, i32* %10, align 4, !dbg !26898
  call void @llvm.dbg.declare(metadata %struct.dim3* %11, metadata !26903, metadata !DIExpression()), !dbg !26906
  %54 = load i32, i32* %10, align 4, !dbg !26907
  call void @_ZN4dim3C2Ejjj(%struct.dim3* nonnull align 4 dereferenceable(12) %11, i32 %54, i32 1, i32 1), !dbg !26906
  call void @llvm.dbg.declare(metadata %struct.dim3* %12, metadata !26908, metadata !DIExpression()), !dbg !26909
  store i32 1024, i32* %13, align 4, !dbg !26910
  %55 = call nonnull align 4 dereferenceable(4) i32* @_ZSt3minIiEUa9enable_ifILb1EERKT_S2_S2_(i32* nonnull align 4 dereferenceable(4) %9, i32* nonnull align 4 dereferenceable(4) %13), !dbg !26911
  %56 = load i32, i32* %55, align 4, !dbg !26911
  call void @_ZN4dim3C2Ejjj(%struct.dim3* nonnull align 4 dereferenceable(12) %12, i32 %56, i32 1, i32 1), !dbg !26909
  %57 = getelementptr inbounds %class.anon, %class.anon* %14, i32 0, i32 0, !dbg !26912
  %58 = load %"class.at::Tensor"*, %"class.at::Tensor"** %6, align 8, !dbg !26912
  store %"class.at::Tensor"* %58, %"class.at::Tensor"** %57, align 8, !dbg !26912
  %59 = getelementptr inbounds %class.anon, %class.anon* %14, i32 0, i32 1, !dbg !26912
  store %struct.dim3* %11, %struct.dim3** %59, align 8, !dbg !26912
  %60 = getelementptr inbounds %class.anon, %class.anon* %14, i32 0, i32 2, !dbg !26912
  store %struct.dim3* %12, %struct.dim3** %60, align 8, !dbg !26912
  %61 = getelementptr inbounds %class.anon, %class.anon* %14, i32 0, i32 3, !dbg !26912
  %62 = load %"class.at::Tensor"*, %"class.at::Tensor"** %5, align 8, !dbg !26912
  store %"class.at::Tensor"* %62, %"class.at::Tensor"** %61, align 8, !dbg !26912
  %63 = getelementptr inbounds %class.anon, %class.anon* %14, i32 0, i32 4, !dbg !26912
  %64 = load %"class.at::Tensor"*, %"class.at::Tensor"** %7, align 8, !dbg !26912
  store %"class.at::Tensor"* %64, %"class.at::Tensor"** %63, align 8, !dbg !26912
  %65 = getelementptr inbounds %class.anon, %class.anon* %14, i32 0, i32 5, !dbg !26912
  %66 = load %"class.std::optional.59"*, %"class.std::optional.59"** %8, align 8, !dbg !26912
  store %"class.std::optional.59"* %66, %"class.std::optional.59"** %65, align 8, !dbg !26912
  %67 = getelementptr inbounds %class.anon, %class.anon* %14, i32 0, i32 6, !dbg !26912
  store i32* %9, i32** %67, align 8, !dbg !26912
  call void @_ZZ25dynamic_scaled_int8_quantRN2at6TensorERKS0_S1_RKSt8optionalIS0_EENKUlvE_clEv(%class.anon* nonnull align 8 dereferenceable(56) %14), !dbg !26912
  ret void, !dbg !26913
}

; Function Attrs: nofree nosync nounwind readnone speculatable willreturn
declare void @llvm.dbg.declare(metadata, metadata, metadata) #5

; Function Attrs: mustprogress noinline optnone uwtable
define linkonce_odr dso_local zeroext i1 @_ZNK2at10TensorBase13is_contiguousEN3c1012MemoryFormatE(%"class.at::TensorBase"* nonnull align 8 dereferenceable(8) %0, i8 signext %1) #4 comdat align 2 !dbg !26914 {
  %3 = alloca %"class.at::TensorBase"*, align 8
  %4 = alloca i8, align 1
  store %"class.at::TensorBase"* %0, %"class.at::TensorBase"** %3, align 8
  call void @llvm.dbg.declare(metadata %"class.at::TensorBase"** %3, metadata !26922, metadata !DIExpression()), !dbg !26924
  store i8 %1, i8* %4, align 1
  call void @llvm.dbg.declare(metadata i8* %4, metadata !26925, metadata !DIExpression()), !dbg !26926
  %5 = load %"class.at::TensorBase"*, %"class.at::TensorBase"** %3, align 8
  %6 = getelementptr inbounds %"class.at::TensorBase", %"class.at::TensorBase"* %5, i32 0, i32 0, !dbg !26927
  %7 = call %"struct.c10::TensorImpl"* @_ZNK3c1013intrusive_ptrINS_10TensorImplENS_19UndefinedTensorImplEEptEv(%"class.c10::intrusive_ptr"* nonnull align 8 dereferenceable(8) %6) #3, !dbg !26927
  %8 = load i8, i8* %4, align 1, !dbg !26928
  %9 = call zeroext i1 @_ZNK3c1010TensorImpl13is_contiguousENS_12MemoryFormatE(%"struct.c10::TensorImpl"* nonnull align 8 dereferenceable(184) %7, i8 signext %8), !dbg !26929
  ret i1 %9, !dbg !26930
}

; Function Attrs: mustprogress noinline nounwind optnone uwtable
define linkonce_odr dso_local i8* @_ZN3c106detail17torchCheckMsgImplEPKc(i8* %0) #6 comdat !dbg !26931 {
  %2 = alloca i8*, align 8
  store i8* %0, i8** %2, align 8
  call void @llvm.dbg.declare(metadata i8** %2, metadata !26936, metadata !DIExpression()), !dbg !26937
  %3 = load i8*, i8** %2, align 8, !dbg !26938
  ret i8* %3, !dbg !26939
}

; Function Attrs: noreturn
declare dso_local void @_ZN3c106detail14torchCheckFailEPKcS2_jS2_(i8*, i8*, i32, i8*) #7

; Function Attrs: mustprogress noinline nounwind optnone uwtable
define linkonce_odr dso_local zeroext i1 @_ZNKSt8optionalIN2at6TensorEEcvbEv(%"class.std::optional.59"* nonnull align 8 dereferenceable(16) %0) #6 comdat align 2 !dbg !26940 {
  %2 = alloca %"class.std::optional.59"*, align 8
  store %"class.std::optional.59"* %0, %"class.std::optional.59"** %2, align 8
  call void @llvm.dbg.declare(metadata %"class.std::optional.59"** %2, metadata !26941, metadata !DIExpression()), !dbg !26943
  %3 = load %"class.std::optional.59"*, %"class.std::optional.59"** %2, align 8
  %4 = bitcast %"class.std::optional.59"* %3 to %"class.std::ios_base::Init"*, !dbg !26944
  %5 = call zeroext i1 @_ZNKSt19_Optional_base_implIN2at6TensorESt14_Optional_baseIS1_Lb0ELb0EEE13_M_is_engagedEv(%"class.std::ios_base::Init"* nonnull align 1 dereferenceable(1) %4) #3, !dbg !26944
  ret i1 %5, !dbg !26945
}

; Function Attrs: mustprogress noinline nounwind optnone uwtable
define linkonce_odr dso_local %"class.at::Tensor"* @_ZNKSt8optionalIN2at6TensorEEptEv(%"class.std::optional.59"* nonnull align 8 dereferenceable(16) %0) #6 comdat align 2 !dbg !26946 {
  %2 = alloca %"class.std::optional.59"*, align 8
  store %"class.std::optional.59"* %0, %"class.std::optional.59"** %2, align 8
  call void @llvm.dbg.declare(metadata %"class.std::optional.59"** %2, metadata !26947, metadata !DIExpression()), !dbg !26948
  %3 = load %"class.std::optional.59"*, %"class.std::optional.59"** %2, align 8
  %4 = bitcast %"class.std::optional.59"* %3 to %"class.std::ios_base::Init"*, !dbg !26949
  %5 = call nonnull align 8 dereferenceable(8) %"class.at::Tensor"* @_ZNKSt19_Optional_base_implIN2at6TensorESt14_Optional_baseIS1_Lb0ELb0EEE6_M_getEv(%"class.std::ios_base::Init"* nonnull align 1 dereferenceable(1) %4) #3, !dbg !26949
  %6 = call %"class.at::Tensor"* @_ZSt11__addressofIKN2at6TensorEEPT_RS3_(%"class.at::Tensor"* nonnull align 8 dereferenceable(8) %5) #3, !dbg !26950
  ret %"class.at::Tensor"* %6, !dbg !26951
}

; Function Attrs: mustprogress noinline optnone uwtable
define linkonce_odr dso_local i64 @_ZNK2at10TensorBase4sizeEl(%"class.at::TensorBase"* nonnull align 8 dereferenceable(8) %0, i64 %1) #4 comdat align 2 !dbg !26952 {
  %3 = alloca %"class.at::TensorBase"*, align 8
  %4 = alloca i64, align 8
  store %"class.at::TensorBase"* %0, %"class.at::TensorBase"** %3, align 8
  call void @llvm.dbg.declare(metadata %"class.at::TensorBase"** %3, metadata !26956, metadata !DIExpression()), !dbg !26957
  store i64 %1, i64* %4, align 8
  call void @llvm.dbg.declare(metadata i64* %4, metadata !26958, metadata !DIExpression()), !dbg !26959
  %5 = load %"class.at::TensorBase"*, %"class.at::TensorBase"** %3, align 8
  %6 = getelementptr inbounds %"class.at::TensorBase", %"class.at::TensorBase"* %5, i32 0, i32 0, !dbg !26960
  %7 = call %"struct.c10::TensorImpl"* @_ZNK3c1013intrusive_ptrINS_10TensorImplENS_19UndefinedTensorImplEEptEv(%"class.c10::intrusive_ptr"* nonnull align 8 dereferenceable(8) %6) #3, !dbg !26960
  %8 = load i64, i64* %4, align 8, !dbg !26961
  %9 = call i64 @_ZNK3c1010TensorImpl4sizeEl(%"struct.c10::TensorImpl"* nonnull align 8 dereferenceable(184) %7, i64 %8), !dbg !26962
  ret i64 %9, !dbg !26963
}

; Function Attrs: mustprogress noinline optnone uwtable
define linkonce_odr dso_local i64 @_ZNK2at10TensorBase5numelEv(%"class.at::TensorBase"* nonnull align 8 dereferenceable(8) %0) #4 comdat align 2 !dbg !26964 {
  %2 = alloca %"class.at::TensorBase"*, align 8
  store %"class.at::TensorBase"* %0, %"class.at::TensorBase"** %2, align 8
  call void @llvm.dbg.declare(metadata %"class.at::TensorBase"** %2, metadata !26968, metadata !DIExpression()), !dbg !26969
  %3 = load %"class.at::TensorBase"*, %"class.at::TensorBase"** %2, align 8
  %4 = getelementptr inbounds %"class.at::TensorBase", %"class.at::TensorBase"* %3, i32 0, i32 0, !dbg !26970
  %5 = call %"struct.c10::TensorImpl"* @_ZNK3c1013intrusive_ptrINS_10TensorImplENS_19UndefinedTensorImplEEptEv(%"class.c10::intrusive_ptr"* nonnull align 8 dereferenceable(8) %4) #3, !dbg !26970
  %6 = call i64 @_ZNK3c1010TensorImpl5numelEv(%"struct.c10::TensorImpl"* nonnull align 8 dereferenceable(184) %5), !dbg !26971
  ret i64 %6, !dbg !26972
}

; Function Attrs: noinline nounwind optnone uwtable
define linkonce_odr dso_local void @_ZN4dim3C2Ejjj(%struct.dim3* nonnull align 4 dereferenceable(12) %0, i32 %1, i32 %2, i32 %3) unnamed_addr #8 comdat align 2 !dbg !26973 {
  %5 = alloca %struct.dim3*, align 8
  %6 = alloca i32, align 4
  %7 = alloca i32, align 4
  %8 = alloca i32, align 4
  store %struct.dim3* %0, %struct.dim3** %5, align 8
  call void @llvm.dbg.declare(metadata %struct.dim3** %5, metadata !26974, metadata !DIExpression()), !dbg !26976
  store i32 %1, i32* %6, align 4
  call void @llvm.dbg.declare(metadata i32* %6, metadata !26977, metadata !DIExpression()), !dbg !26978
  store i32 %2, i32* %7, align 4
  call void @llvm.dbg.declare(metadata i32* %7, metadata !26979, metadata !DIExpression()), !dbg !26980
  store i32 %3, i32* %8, align 4
  call void @llvm.dbg.declare(metadata i32* %8, metadata !26981, metadata !DIExpression()), !dbg !26982
  %9 = load %struct.dim3*, %struct.dim3** %5, align 8
  %10 = getelementptr inbounds %struct.dim3, %struct.dim3* %9, i32 0, i32 0, !dbg !26983
  %11 = load i32, i32* %6, align 4, !dbg !26984
  store i32 %11, i32* %10, align 4, !dbg !26983
  %12 = getelementptr inbounds %struct.dim3, %struct.dim3* %9, i32 0, i32 1, !dbg !26985
  %13 = load i32, i32* %7, align 4, !dbg !26986
  store i32 %13, i32* %12, align 4, !dbg !26985
  %14 = getelementptr inbounds %struct.dim3, %struct.dim3* %9, i32 0, i32 2, !dbg !26987
  %15 = load i32, i32* %8, align 4, !dbg !26988
  store i32 %15, i32* %14, align 4, !dbg !26987
  ret void, !dbg !26989
}

; Function Attrs: mustprogress noinline nounwind optnone uwtable
define linkonce_odr dso_local nonnull align 4 dereferenceable(4) i32* @_ZSt3minIiEUa9enable_ifILb1EERKT_S2_S2_(i32* nonnull align 4 dereferenceable(4) %0, i32* nonnull align 4 dereferenceable(4) %1) #6 comdat !dbg !26990 {
  %3 = alloca i32*, align 8
  %4 = alloca i32*, align 8
  store i32* %0, i32** %3, align 8
  call void @llvm.dbg.declare(metadata i32** %3, metadata !26997, metadata !DIExpression()), !dbg !26998
  store i32* %1, i32** %4, align 8
  call void @llvm.dbg.declare(metadata i32** %4, metadata !26999, metadata !DIExpression()), !dbg !27000
  %5 = load i32*, i32** %3, align 8, !dbg !27001
  %6 = load i32, i32* %5, align 4, !dbg !27001
  %7 = load i32*, i32** %4, align 8, !dbg !27002
  %8 = load i32, i32* %7, align 4, !dbg !27002
  %9 = icmp slt i32 %6, %8, !dbg !27003
  br i1 %9, label %10, label %12, !dbg !27001

10:                                               ; preds = %2
  %11 = load i32*, i32** %3, align 8, !dbg !27004
  br label %14, !dbg !27001

12:                                               ; preds = %2
  %13 = load i32*, i32** %4, align 8, !dbg !27005
  br label %14, !dbg !27001

14:                                               ; preds = %12, %10
  %15 = phi i32* [ %11, %10 ], [ %13, %12 ], !dbg !27001
  ret i32* %15, !dbg !27006
}

; Function Attrs: mustprogress noinline optnone uwtable
define internal void @_ZZ25dynamic_scaled_int8_quantRN2at6TensorERKS0_S1_RKSt8optionalIS0_EENKUlvE_clEv(%class.anon* nonnull align 8 dereferenceable(56) %0) #4 align 2 personality i8* bitcast (i32 (...)* @__gxx_personality_v0 to i8*) !dbg !27007 {
  %2 = alloca %class.anon*, align 8
  %3 = alloca i8*, align 8
  %4 = alloca i8, align 1
  %5 = alloca i8*, align 8
  %6 = alloca i8, align 1
  %7 = alloca %class.anon.422, align 8
  %8 = alloca %class.anon.422, align 8
  %9 = alloca %class.anon.422, align 8
  %10 = alloca %"class.std::__cxx11::basic_string", align 8
  %11 = alloca i8, align 1
  %12 = alloca i8*, align 8
  %13 = alloca i8*, align 8
  %14 = alloca i32, align 4
  store %class.anon* %0, %class.anon** %2, align 8
  call void @llvm.dbg.declare(metadata %class.anon** %2, metadata !27026, metadata !DIExpression()), !dbg !27028
  %15 = load %class.anon*, %class.anon** %2, align 8
  call void @llvm.dbg.declare(metadata i8** %3, metadata !27029, metadata !DIExpression()), !dbg !27032
  %16 = getelementptr inbounds %class.anon, %class.anon* %15, i32 0, i32 0, !dbg !27032
  %17 = load %"class.at::Tensor"*, %"class.at::Tensor"** %16, align 8, !dbg !27032
  %18 = bitcast %"class.at::Tensor"* %17 to %"class.at::TensorBase"*, !dbg !27032
  %19 = call signext i8 @_ZNK2at10TensorBase11scalar_typeEv(%"class.at::TensorBase"* nonnull align 8 dereferenceable(8) %18), !dbg !27032
  store i8 %19, i8* %4, align 1, !dbg !27032
  store i8* %4, i8** %3, align 8, !dbg !27032
  call void @llvm.dbg.declare(metadata i8** %5, metadata !27033, metadata !DIExpression()), !dbg !27032
  store i8* getelementptr inbounds ([33 x i8], [33 x i8]* @.str.156, i32 0, i32 0), i8** %5, align 8, !dbg !27032
  call void @llvm.dbg.declare(metadata i8* %6, metadata !27034, metadata !DIExpression()), !dbg !27032
  %20 = load i8*, i8** %3, align 8, !dbg !27032
  %21 = load i8, i8* %20, align 1, !dbg !27032
  %22 = call signext i8 @_ZN6detail11scalar_typeEN3c1010ScalarTypeE(i8 signext %21), !dbg !27032
  store i8 %22, i8* %6, align 1, !dbg !27032
  %23 = load i8, i8* %6, align 1, !dbg !27032
  switch i8 %23, label %96 [
    i8 6, label %24
    i8 5, label %48
    i8 15, label %72
  ], !dbg !27032

24:                                               ; preds = %1
  br label %25, !dbg !27035

25:                                               ; preds = %24
  br label %26, !dbg !27038

26:                                               ; preds = %25
  %27 = getelementptr inbounds %class.anon.422, %class.anon.422* %7, i32 0, i32 0, !dbg !27035
  %28 = getelementptr inbounds %class.anon, %class.anon* %15, i32 0, i32 1, !dbg !27035
  %29 = load %struct.dim3*, %struct.dim3** %28, align 8, !dbg !27035
  store %struct.dim3* %29, %struct.dim3** %27, align 8, !dbg !27035
  %30 = getelementptr inbounds %class.anon.422, %class.anon.422* %7, i32 0, i32 1, !dbg !27035
  %31 = getelementptr inbounds %class.anon, %class.anon* %15, i32 0, i32 2, !dbg !27035
  %32 = load %struct.dim3*, %struct.dim3** %31, align 8, !dbg !27035
  store %struct.dim3* %32, %struct.dim3** %30, align 8, !dbg !27035
  %33 = getelementptr inbounds %class.anon.422, %class.anon.422* %7, i32 0, i32 2, !dbg !27035
  %34 = getelementptr inbounds %class.anon, %class.anon* %15, i32 0, i32 0, !dbg !27035
  %35 = load %"class.at::Tensor"*, %"class.at::Tensor"** %34, align 8, !dbg !27035
  store %"class.at::Tensor"* %35, %"class.at::Tensor"** %33, align 8, !dbg !27035
  %36 = getelementptr inbounds %class.anon.422, %class.anon.422* %7, i32 0, i32 3, !dbg !27035
  %37 = getelementptr inbounds %class.anon, %class.anon* %15, i32 0, i32 3, !dbg !27035
  %38 = load %"class.at::Tensor"*, %"class.at::Tensor"** %37, align 8, !dbg !27035
  store %"class.at::Tensor"* %38, %"class.at::Tensor"** %36, align 8, !dbg !27035
  %39 = getelementptr inbounds %class.anon.422, %class.anon.422* %7, i32 0, i32 4, !dbg !27035
  %40 = getelementptr inbounds %class.anon, %class.anon* %15, i32 0, i32 4, !dbg !27035
  %41 = load %"class.at::Tensor"*, %"class.at::Tensor"** %40, align 8, !dbg !27035
  store %"class.at::Tensor"* %41, %"class.at::Tensor"** %39, align 8, !dbg !27035
  %42 = getelementptr inbounds %class.anon.422, %class.anon.422* %7, i32 0, i32 5, !dbg !27035
  %43 = getelementptr inbounds %class.anon, %class.anon* %15, i32 0, i32 5, !dbg !27035
  %44 = load %"class.std::optional.59"*, %"class.std::optional.59"** %43, align 8, !dbg !27035
  store %"class.std::optional.59"* %44, %"class.std::optional.59"** %42, align 8, !dbg !27035
  %45 = getelementptr inbounds %class.anon.422, %class.anon.422* %7, i32 0, i32 6, !dbg !27035
  %46 = getelementptr inbounds %class.anon, %class.anon* %15, i32 0, i32 6, !dbg !27035
  %47 = load i32*, i32** %46, align 8, !dbg !27035
  store i32* %47, i32** %45, align 8, !dbg !27035
  call void @_ZZZ25dynamic_scaled_int8_quantRN2at6TensorERKS0_S1_RKSt8optionalIS0_EENKUlvE_clEvENKUlvE_clEv(%class.anon.422* nonnull align 8 dereferenceable(56) %7), !dbg !27035
  br label %104, !dbg !27035

48:                                               ; preds = %1
  br label %49, !dbg !27040

49:                                               ; preds = %48
  br label %50, !dbg !27042

50:                                               ; preds = %49
  %51 = getelementptr inbounds %class.anon.422, %class.anon.422* %8, i32 0, i32 0, !dbg !27040
  %52 = getelementptr inbounds %class.anon, %class.anon* %15, i32 0, i32 1, !dbg !27040
  %53 = load %struct.dim3*, %struct.dim3** %52, align 8, !dbg !27040
  store %struct.dim3* %53, %struct.dim3** %51, align 8, !dbg !27040
  %54 = getelementptr inbounds %class.anon.422, %class.anon.422* %8, i32 0, i32 1, !dbg !27040
  %55 = getelementptr inbounds %class.anon, %class.anon* %15, i32 0, i32 2, !dbg !27040
  %56 = load %struct.dim3*, %struct.dim3** %55, align 8, !dbg !27040
  store %struct.dim3* %56, %struct.dim3** %54, align 8, !dbg !27040
  %57 = getelementptr inbounds %class.anon.422, %class.anon.422* %8, i32 0, i32 2, !dbg !27040
  %58 = getelementptr inbounds %class.anon, %class.anon* %15, i32 0, i32 0, !dbg !27040
  %59 = load %"class.at::Tensor"*, %"class.at::Tensor"** %58, align 8, !dbg !27040
  store %"class.at::Tensor"* %59, %"class.at::Tensor"** %57, align 8, !dbg !27040
  %60 = getelementptr inbounds %class.anon.422, %class.anon.422* %8, i32 0, i32 3, !dbg !27040
  %61 = getelementptr inbounds %class.anon, %class.anon* %15, i32 0, i32 3, !dbg !27040
  %62 = load %"class.at::Tensor"*, %"class.at::Tensor"** %61, align 8, !dbg !27040
  store %"class.at::Tensor"* %62, %"class.at::Tensor"** %60, align 8, !dbg !27040
  %63 = getelementptr inbounds %class.anon.422, %class.anon.422* %8, i32 0, i32 4, !dbg !27040
  %64 = getelementptr inbounds %class.anon, %class.anon* %15, i32 0, i32 4, !dbg !27040
  %65 = load %"class.at::Tensor"*, %"class.at::Tensor"** %64, align 8, !dbg !27040
  store %"class.at::Tensor"* %65, %"class.at::Tensor"** %63, align 8, !dbg !27040
  %66 = getelementptr inbounds %class.anon.422, %class.anon.422* %8, i32 0, i32 5, !dbg !27040
  %67 = getelementptr inbounds %class.anon, %class.anon* %15, i32 0, i32 5, !dbg !27040
  %68 = load %"class.std::optional.59"*, %"class.std::optional.59"** %67, align 8, !dbg !27040
  store %"class.std::optional.59"* %68, %"class.std::optional.59"** %66, align 8, !dbg !27040
  %69 = getelementptr inbounds %class.anon.422, %class.anon.422* %8, i32 0, i32 6, !dbg !27040
  %70 = getelementptr inbounds %class.anon, %class.anon* %15, i32 0, i32 6, !dbg !27040
  %71 = load i32*, i32** %70, align 8, !dbg !27040
  store i32* %71, i32** %69, align 8, !dbg !27040
  call void @_ZZZ25dynamic_scaled_int8_quantRN2at6TensorERKS0_S1_RKSt8optionalIS0_EENKUlvE_clEvENKUlvE0_clEv(%class.anon.422* nonnull align 8 dereferenceable(56) %8), !dbg !27040
  br label %104, !dbg !27040

72:                                               ; preds = %1
  br label %73, !dbg !27044

73:                                               ; preds = %72
  br label %74, !dbg !27046

74:                                               ; preds = %73
  %75 = getelementptr inbounds %class.anon.422, %class.anon.422* %9, i32 0, i32 0, !dbg !27044
  %76 = getelementptr inbounds %class.anon, %class.anon* %15, i32 0, i32 1, !dbg !27044
  %77 = load %struct.dim3*, %struct.dim3** %76, align 8, !dbg !27044
  store %struct.dim3* %77, %struct.dim3** %75, align 8, !dbg !27044
  %78 = getelementptr inbounds %class.anon.422, %class.anon.422* %9, i32 0, i32 1, !dbg !27044
  %79 = getelementptr inbounds %class.anon, %class.anon* %15, i32 0, i32 2, !dbg !27044
  %80 = load %struct.dim3*, %struct.dim3** %79, align 8, !dbg !27044
  store %struct.dim3* %80, %struct.dim3** %78, align 8, !dbg !27044
  %81 = getelementptr inbounds %class.anon.422, %class.anon.422* %9, i32 0, i32 2, !dbg !27044
  %82 = getelementptr inbounds %class.anon, %class.anon* %15, i32 0, i32 0, !dbg !27044
  %83 = load %"class.at::Tensor"*, %"class.at::Tensor"** %82, align 8, !dbg !27044
  store %"class.at::Tensor"* %83, %"class.at::Tensor"** %81, align 8, !dbg !27044
  %84 = getelementptr inbounds %class.anon.422, %class.anon.422* %9, i32 0, i32 3, !dbg !27044
  %85 = getelementptr inbounds %class.anon, %class.anon* %15, i32 0, i32 3, !dbg !27044
  %86 = load %"class.at::Tensor"*, %"class.at::Tensor"** %85, align 8, !dbg !27044
  store %"class.at::Tensor"* %86, %"class.at::Tensor"** %84, align 8, !dbg !27044
  %87 = getelementptr inbounds %class.anon.422, %class.anon.422* %9, i32 0, i32 4, !dbg !27044
  %88 = getelementptr inbounds %class.anon, %class.anon* %15, i32 0, i32 4, !dbg !27044
  %89 = load %"class.at::Tensor"*, %"class.at::Tensor"** %88, align 8, !dbg !27044
  store %"class.at::Tensor"* %89, %"class.at::Tensor"** %87, align 8, !dbg !27044
  %90 = getelementptr inbounds %class.anon.422, %class.anon.422* %9, i32 0, i32 5, !dbg !27044
  %91 = getelementptr inbounds %class.anon, %class.anon* %15, i32 0, i32 5, !dbg !27044
  %92 = load %"class.std::optional.59"*, %"class.std::optional.59"** %91, align 8, !dbg !27044
  store %"class.std::optional.59"* %92, %"class.std::optional.59"** %90, align 8, !dbg !27044
  %93 = getelementptr inbounds %class.anon.422, %class.anon.422* %9, i32 0, i32 6, !dbg !27044
  %94 = getelementptr inbounds %class.anon, %class.anon* %15, i32 0, i32 6, !dbg !27044
  %95 = load i32*, i32** %94, align 8, !dbg !27044
  store i32* %95, i32** %93, align 8, !dbg !27044
  call void @_ZZZ25dynamic_scaled_int8_quantRN2at6TensorERKS0_S1_RKSt8optionalIS0_EENKUlvE_clEvENKUlvE1_clEv(%class.anon.422* nonnull align 8 dereferenceable(56) %9), !dbg !27044
  br label %104, !dbg !27044

96:                                               ; preds = %1
  store i8 34, i8* %11, align 1, !dbg !27048
  %97 = load i8, i8* %6, align 1, !dbg !27048
  %98 = call i8* @_ZN3c108toStringENS_10ScalarTypeE(i8 signext %97), !dbg !27048
  store i8* %98, i8** %12, align 8, !dbg !27048
  call void @_ZN3c106detail17torchCheckMsgImplIJcPKcA24_cS3_A2_cEEEDcS3_DpRKT_(%"class.std::__cxx11::basic_string"* sret(%"class.std::__cxx11::basic_string") align 8 %10, i8* getelementptr inbounds ([140 x i8], [140 x i8]* @.str.157, i64 0, i64 0), i8* nonnull align 1 dereferenceable(1) %11, i8** nonnull align 8 dereferenceable(8) %5, [24 x i8]* nonnull align 1 dereferenceable(24) @.str.158, i8** nonnull align 8 dereferenceable(8) %12, [2 x i8]* nonnull align 1 dereferenceable(2) @.str.42), !dbg !27048
  invoke void @_ZN3c106detail14torchCheckFailEPKcS2_jRKNSt7__cxx1112basic_stringIcSt11char_traitsIcESaIcEEE(i8* getelementptr inbounds ([11 x i8], [11 x i8]* @__func__._ZZ25dynamic_scaled_int8_quantRN2at6TensorERKS0_S1_RKSt8optionalIS0_EENKUlvE_clEv, i64 0, i64 0), i8* getelementptr inbounds ([62 x i8], [62 x i8]* @.str, i64 0, i64 0), i32 137, %"class.std::__cxx11::basic_string"* nonnull align 8 dereferenceable(32) %10) #18
          to label %99 unwind label %100, !dbg !27048

99:                                               ; preds = %96
  unreachable, !dbg !27048

100:                                              ; preds = %96
  %101 = landingpad { i8*, i32 }
          cleanup, !dbg !27048
  %102 = extractvalue { i8*, i32 } %101, 0, !dbg !27048
  store i8* %102, i8** %13, align 8, !dbg !27048
  %103 = extractvalue { i8*, i32 } %101, 1, !dbg !27048
  store i32 %103, i32* %14, align 4, !dbg !27048
  call void @_ZNSt7__cxx1112basic_stringIcSt11char_traitsIcESaIcEED1Ev(%"class.std::__cxx11::basic_string"* nonnull align 8 dereferenceable(32) %10) #3, !dbg !27048
  br label %105, !dbg !27048

104:                                              ; preds = %74, %50, %26
  ret void, !dbg !27032

105:                                              ; preds = %100
  %106 = load i8*, i8** %13, align 8, !dbg !27048
  %107 = load i32, i32* %14, align 4, !dbg !27048
  %108 = insertvalue { i8*, i32 } undef, i8* %106, 0, !dbg !27048
  %109 = insertvalue { i8*, i32 } %108, i32 %107, 1, !dbg !27048
  resume { i8*, i32 } %109, !dbg !27048
}

declare dso_local i32 @__gxx_personality_v0(...)

; Function Attrs: mustprogress noinline optnone uwtable
define linkonce_odr dso_local signext i8 @_ZNK2at10TensorBase11scalar_typeEv(%"class.at::TensorBase"* nonnull align 8 dereferenceable(8) %0) #4 comdat align 2 !dbg !27051 {
  %2 = alloca %"class.at::TensorBase"*, align 8
  %3 = alloca %"class.caffe2::TypeMeta", align 2
  store %"class.at::TensorBase"* %0, %"class.at::TensorBase"** %2, align 8
  call void @llvm.dbg.declare(metadata %"class.at::TensorBase"** %2, metadata !27055, metadata !DIExpression()), !dbg !27056
  %4 = load %"class.at::TensorBase"*, %"class.at::TensorBase"** %2, align 8
  %5 = getelementptr inbounds %"class.at::TensorBase", %"class.at::TensorBase"* %4, i32 0, i32 0, !dbg !27057
  %6 = call %"struct.c10::TensorImpl"* @_ZNK3c1013intrusive_ptrINS_10TensorImplENS_19UndefinedTensorImplEEptEv(%"class.c10::intrusive_ptr"* nonnull align 8 dereferenceable(8) %5) #3, !dbg !27057
  %7 = call i16 @_ZNK3c1010TensorImpl5dtypeEv(%"struct.c10::TensorImpl"* nonnull align 8 dereferenceable(184) %6), !dbg !27058
  %8 = getelementptr inbounds %"class.caffe2::TypeMeta", %"class.caffe2::TypeMeta"* %3, i32 0, i32 0, !dbg !27058
  store i16 %7, i16* %8, align 2, !dbg !27058
  %9 = getelementptr inbounds %"class.caffe2::TypeMeta", %"class.caffe2::TypeMeta"* %3, i32 0, i32 0, !dbg !27059
  %10 = load i16, i16* %9, align 2, !dbg !27059
  %11 = call signext i8 @_ZN3c1020typeMetaToScalarTypeEN6caffe28TypeMetaE(i16 %10), !dbg !27059
  ret i8 %11, !dbg !27060
}

; Function Attrs: mustprogress noinline nounwind optnone uwtable
define linkonce_odr dso_local signext i8 @_ZN6detail11scalar_typeEN3c1010ScalarTypeE(i8 signext %0) #6 comdat !dbg !27061 {
  %2 = alloca i8, align 1
  store i8 %0, i8* %2, align 1
  call void @llvm.dbg.declare(metadata i8* %2, metadata !27066, metadata !DIExpression()), !dbg !27067
  %3 = load i8, i8* %2, align 1, !dbg !27068
  ret i8 %3, !dbg !27069
}

; Function Attrs: mustprogress noinline optnone uwtable
define internal void @_ZZZ25dynamic_scaled_int8_quantRN2at6TensorERKS0_S1_RKSt8optionalIS0_EENKUlvE_clEvENKUlvE_clEv(%class.anon.422* nonnull align 8 dereferenceable(56) %0) #4 align 2 !dbg !27070 {
  %2 = alloca %class.anon.422*, align 8
  %3 = alloca %struct.dim3, align 4
  %4 = alloca %struct.dim3, align 4
  %5 = alloca { i64, i32 }, align 4
  %6 = alloca { i64, i32 }, align 4
  store %class.anon.422* %0, %class.anon.422** %2, align 8
  call void @llvm.dbg.declare(metadata %class.anon.422** %2, metadata !27087, metadata !DIExpression()), !dbg !27089
  %7 = load %class.anon.422*, %class.anon.422** %2, align 8
  %8 = getelementptr inbounds %class.anon.422, %class.anon.422* %7, i32 0, i32 0, !dbg !27090
  %9 = load %struct.dim3*, %struct.dim3** %8, align 8, !dbg !27090
  %10 = bitcast %struct.dim3* %3 to i8*, !dbg !27090
  %11 = bitcast %struct.dim3* %9 to i8*, !dbg !27090
  call void @llvm.memcpy.p0i8.p0i8.i64(i8* align 4 %10, i8* align 4 %11, i64 12, i1 false), !dbg !27090
  %12 = getelementptr inbounds %class.anon.422, %class.anon.422* %7, i32 0, i32 1, !dbg !27090
  %13 = load %struct.dim3*, %struct.dim3** %12, align 8, !dbg !27090
  %14 = bitcast %struct.dim3* %4 to i8*, !dbg !27090
  %15 = bitcast %struct.dim3* %13 to i8*, !dbg !27090
  call void @llvm.memcpy.p0i8.p0i8.i64(i8* align 4 %14, i8* align 4 %15, i64 12, i1 false), !dbg !27090
  %16 = bitcast { i64, i32 }* %5 to i8*, !dbg !27090
  %17 = bitcast %struct.dim3* %3 to i8*, !dbg !27090
  call void @llvm.memcpy.p0i8.p0i8.i64(i8* align 4 %16, i8* align 4 %17, i64 12, i1 false), !dbg !27090
  %18 = getelementptr inbounds { i64, i32 }, { i64, i32 }* %5, i32 0, i32 0, !dbg !27090
  %19 = load i64, i64* %18, align 4, !dbg !27090
  %20 = getelementptr inbounds { i64, i32 }, { i64, i32 }* %5, i32 0, i32 1, !dbg !27090
  %21 = load i32, i32* %20, align 4, !dbg !27090
  %22 = bitcast { i64, i32 }* %6 to i8*, !dbg !27090
  %23 = bitcast %struct.dim3* %4 to i8*, !dbg !27090
  call void @llvm.memcpy.p0i8.p0i8.i64(i8* align 4 %22, i8* align 4 %23, i64 12, i1 false), !dbg !27090
  %24 = getelementptr inbounds { i64, i32 }, { i64, i32 }* %6, i32 0, i32 0, !dbg !27090
  %25 = load i64, i64* %24, align 4, !dbg !27090
  %26 = getelementptr inbounds { i64, i32 }, { i64, i32 }* %6, i32 0, i32 1, !dbg !27090
  %27 = load i32, i32* %26, align 4, !dbg !27090
  %28 = call i32 @__cudaPushCallConfiguration(i64 %19, i32 %21, i64 %25, i32 %27, i64 0, i8* null), !dbg !27090
  %29 = icmp ne i32 %28, 0, !dbg !27090
  br i1 %29, label %51, label %30, !dbg !27090

30:                                               ; preds = %1
  %31 = getelementptr inbounds %class.anon.422, %class.anon.422* %7, i32 0, i32 2, !dbg !27090
  %32 = load %"class.at::Tensor"*, %"class.at::Tensor"** %31, align 8, !dbg !27090
  %33 = bitcast %"class.at::Tensor"* %32 to %"class.at::TensorBase"*, !dbg !27090
  %34 = call float* @_ZNK2at10TensorBase8data_ptrIfEEPT_v(%"class.at::TensorBase"* nonnull align 8 dereferenceable(8) %33), !dbg !27090
  %35 = getelementptr inbounds %class.anon.422, %class.anon.422* %7, i32 0, i32 3, !dbg !27090
  %36 = load %"class.at::Tensor"*, %"class.at::Tensor"** %35, align 8, !dbg !27090
  %37 = bitcast %"class.at::Tensor"* %36 to %"class.at::TensorBase"*, !dbg !27090
  %38 = call i8* @_ZNK2at10TensorBase8data_ptrIaEEPT_v(%"class.at::TensorBase"* nonnull align 8 dereferenceable(8) %37), !dbg !27090
  %39 = getelementptr inbounds %class.anon.422, %class.anon.422* %7, i32 0, i32 4, !dbg !27090
  %40 = load %"class.at::Tensor"*, %"class.at::Tensor"** %39, align 8, !dbg !27090
  %41 = bitcast %"class.at::Tensor"* %40 to %"class.at::TensorBase"*, !dbg !27090
  %42 = call float* @_ZNK2at10TensorBase8data_ptrIfEEPT_v(%"class.at::TensorBase"* nonnull align 8 dereferenceable(8) %41), !dbg !27090
  %43 = getelementptr inbounds %class.anon.422, %class.anon.422* %7, i32 0, i32 5, !dbg !27090
  %44 = load %"class.std::optional.59"*, %"class.std::optional.59"** %43, align 8, !dbg !27090
  %45 = call %"class.at::Tensor"* @_ZNKSt8optionalIN2at6TensorEEptEv(%"class.std::optional.59"* nonnull align 8 dereferenceable(16) %44) #3, !dbg !27090
  %46 = bitcast %"class.at::Tensor"* %45 to %"class.at::TensorBase"*, !dbg !27090
  %47 = call i32* @_ZNK2at10TensorBase8data_ptrIiEEPT_v(%"class.at::TensorBase"* nonnull align 8 dereferenceable(8) %46), !dbg !27090
  %48 = getelementptr inbounds %class.anon.422, %class.anon.422* %7, i32 0, i32 6, !dbg !27090
  %49 = load i32*, i32** %48, align 8, !dbg !27090
  %50 = load i32, i32* %49, align 4, !dbg !27090
  call void @_Z51__device_stub__dynamic_scaled_int8_azp_quant_kernelIffiEvPKT_PaPT0_PT1_i(float* %34, i8* %38, float* %42, i32* %47, i32 %50), !dbg !27090
  br label %51, !dbg !27090

51:                                               ; preds = %30, %1
  ret void, !dbg !27090
}

; Function Attrs: mustprogress noinline optnone uwtable
define internal void @_ZZZ25dynamic_scaled_int8_quantRN2at6TensorERKS0_S1_RKSt8optionalIS0_EENKUlvE_clEvENKUlvE0_clEv(%class.anon.422* nonnull align 8 dereferenceable(56) %0) #4 align 2 !dbg !27091 {
  %2 = alloca %class.anon.422*, align 8
  %3 = alloca %struct.dim3, align 4
  %4 = alloca %struct.dim3, align 4
  %5 = alloca { i64, i32 }, align 4
  %6 = alloca { i64, i32 }, align 4
  store %class.anon.422* %0, %class.anon.422** %2, align 8
  call void @llvm.dbg.declare(metadata %class.anon.422** %2, metadata !27108, metadata !DIExpression()), !dbg !27110
  %7 = load %class.anon.422*, %class.anon.422** %2, align 8
  %8 = getelementptr inbounds %class.anon.422, %class.anon.422* %7, i32 0, i32 0, !dbg !27111
  %9 = load %struct.dim3*, %struct.dim3** %8, align 8, !dbg !27111
  %10 = bitcast %struct.dim3* %3 to i8*, !dbg !27111
  %11 = bitcast %struct.dim3* %9 to i8*, !dbg !27111
  call void @llvm.memcpy.p0i8.p0i8.i64(i8* align 4 %10, i8* align 4 %11, i64 12, i1 false), !dbg !27111
  %12 = getelementptr inbounds %class.anon.422, %class.anon.422* %7, i32 0, i32 1, !dbg !27111
  %13 = load %struct.dim3*, %struct.dim3** %12, align 8, !dbg !27111
  %14 = bitcast %struct.dim3* %4 to i8*, !dbg !27111
  %15 = bitcast %struct.dim3* %13 to i8*, !dbg !27111
  call void @llvm.memcpy.p0i8.p0i8.i64(i8* align 4 %14, i8* align 4 %15, i64 12, i1 false), !dbg !27111
  %16 = bitcast { i64, i32 }* %5 to i8*, !dbg !27111
  %17 = bitcast %struct.dim3* %3 to i8*, !dbg !27111
  call void @llvm.memcpy.p0i8.p0i8.i64(i8* align 4 %16, i8* align 4 %17, i64 12, i1 false), !dbg !27111
  %18 = getelementptr inbounds { i64, i32 }, { i64, i32 }* %5, i32 0, i32 0, !dbg !27111
  %19 = load i64, i64* %18, align 4, !dbg !27111
  %20 = getelementptr inbounds { i64, i32 }, { i64, i32 }* %5, i32 0, i32 1, !dbg !27111
  %21 = load i32, i32* %20, align 4, !dbg !27111
  %22 = bitcast { i64, i32 }* %6 to i8*, !dbg !27111
  %23 = bitcast %struct.dim3* %4 to i8*, !dbg !27111
  call void @llvm.memcpy.p0i8.p0i8.i64(i8* align 4 %22, i8* align 4 %23, i64 12, i1 false), !dbg !27111
  %24 = getelementptr inbounds { i64, i32 }, { i64, i32 }* %6, i32 0, i32 0, !dbg !27111
  %25 = load i64, i64* %24, align 4, !dbg !27111
  %26 = getelementptr inbounds { i64, i32 }, { i64, i32 }* %6, i32 0, i32 1, !dbg !27111
  %27 = load i32, i32* %26, align 4, !dbg !27111
  %28 = call i32 @__cudaPushCallConfiguration(i64 %19, i32 %21, i64 %25, i32 %27, i64 0, i8* null), !dbg !27111
  %29 = icmp ne i32 %28, 0, !dbg !27111
  br i1 %29, label %51, label %30, !dbg !27111

30:                                               ; preds = %1
  %31 = getelementptr inbounds %class.anon.422, %class.anon.422* %7, i32 0, i32 2, !dbg !27111
  %32 = load %"class.at::Tensor"*, %"class.at::Tensor"** %31, align 8, !dbg !27111
  %33 = bitcast %"class.at::Tensor"* %32 to %"class.at::TensorBase"*, !dbg !27111
  %34 = call %"class.caffe2::TypeMeta"* @_ZNK2at10TensorBase8data_ptrIN3c104HalfEEEPT_v(%"class.at::TensorBase"* nonnull align 8 dereferenceable(8) %33), !dbg !27111
  %35 = getelementptr inbounds %class.anon.422, %class.anon.422* %7, i32 0, i32 3, !dbg !27111
  %36 = load %"class.at::Tensor"*, %"class.at::Tensor"** %35, align 8, !dbg !27111
  %37 = bitcast %"class.at::Tensor"* %36 to %"class.at::TensorBase"*, !dbg !27111
  %38 = call i8* @_ZNK2at10TensorBase8data_ptrIaEEPT_v(%"class.at::TensorBase"* nonnull align 8 dereferenceable(8) %37), !dbg !27111
  %39 = getelementptr inbounds %class.anon.422, %class.anon.422* %7, i32 0, i32 4, !dbg !27111
  %40 = load %"class.at::Tensor"*, %"class.at::Tensor"** %39, align 8, !dbg !27111
  %41 = bitcast %"class.at::Tensor"* %40 to %"class.at::TensorBase"*, !dbg !27111
  %42 = call float* @_ZNK2at10TensorBase8data_ptrIfEEPT_v(%"class.at::TensorBase"* nonnull align 8 dereferenceable(8) %41), !dbg !27111
  %43 = getelementptr inbounds %class.anon.422, %class.anon.422* %7, i32 0, i32 5, !dbg !27111
  %44 = load %"class.std::optional.59"*, %"class.std::optional.59"** %43, align 8, !dbg !27111
  %45 = call %"class.at::Tensor"* @_ZNKSt8optionalIN2at6TensorEEptEv(%"class.std::optional.59"* nonnull align 8 dereferenceable(16) %44) #3, !dbg !27111
  %46 = bitcast %"class.at::Tensor"* %45 to %"class.at::TensorBase"*, !dbg !27111
  %47 = call i32* @_ZNK2at10TensorBase8data_ptrIiEEPT_v(%"class.at::TensorBase"* nonnull align 8 dereferenceable(8) %46), !dbg !27111
  %48 = getelementptr inbounds %class.anon.422, %class.anon.422* %7, i32 0, i32 6, !dbg !27111
  %49 = load i32*, i32** %48, align 8, !dbg !27111
  %50 = load i32, i32* %49, align 4, !dbg !27111
  call void @_Z51__device_stub__dynamic_scaled_int8_azp_quant_kernelIN3c104HalfEfiEvPKT_PaPT0_PT1_i(%"class.caffe2::TypeMeta"* %34, i8* %38, float* %42, i32* %47, i32 %50), !dbg !27111
  br label %51, !dbg !27111

51:                                               ; preds = %30, %1
  ret void, !dbg !27111
}

; Function Attrs: mustprogress noinline optnone uwtable
define internal void @_ZZZ25dynamic_scaled_int8_quantRN2at6TensorERKS0_S1_RKSt8optionalIS0_EENKUlvE_clEvENKUlvE1_clEv(%class.anon.422* nonnull align 8 dereferenceable(56) %0) #4 align 2 !dbg !27112 {
  %2 = alloca %class.anon.422*, align 8
  %3 = alloca %struct.dim3, align 4
  %4 = alloca %struct.dim3, align 4
  %5 = alloca { i64, i32 }, align 4
  %6 = alloca { i64, i32 }, align 4
  store %class.anon.422* %0, %class.anon.422** %2, align 8
  call void @llvm.dbg.declare(metadata %class.anon.422** %2, metadata !27129, metadata !DIExpression()), !dbg !27131
  %7 = load %class.anon.422*, %class.anon.422** %2, align 8
  %8 = getelementptr inbounds %class.anon.422, %class.anon.422* %7, i32 0, i32 0, !dbg !27132
  %9 = load %struct.dim3*, %struct.dim3** %8, align 8, !dbg !27132
  %10 = bitcast %struct.dim3* %3 to i8*, !dbg !27132
  %11 = bitcast %struct.dim3* %9 to i8*, !dbg !27132
  call void @llvm.memcpy.p0i8.p0i8.i64(i8* align 4 %10, i8* align 4 %11, i64 12, i1 false), !dbg !27132
  %12 = getelementptr inbounds %class.anon.422, %class.anon.422* %7, i32 0, i32 1, !dbg !27132
  %13 = load %struct.dim3*, %struct.dim3** %12, align 8, !dbg !27132
  %14 = bitcast %struct.dim3* %4 to i8*, !dbg !27132
  %15 = bitcast %struct.dim3* %13 to i8*, !dbg !27132
  call void @llvm.memcpy.p0i8.p0i8.i64(i8* align 4 %14, i8* align 4 %15, i64 12, i1 false), !dbg !27132
  %16 = bitcast { i64, i32 }* %5 to i8*, !dbg !27132
  %17 = bitcast %struct.dim3* %3 to i8*, !dbg !27132
  call void @llvm.memcpy.p0i8.p0i8.i64(i8* align 4 %16, i8* align 4 %17, i64 12, i1 false), !dbg !27132
  %18 = getelementptr inbounds { i64, i32 }, { i64, i32 }* %5, i32 0, i32 0, !dbg !27132
  %19 = load i64, i64* %18, align 4, !dbg !27132
  %20 = getelementptr inbounds { i64, i32 }, { i64, i32 }* %5, i32 0, i32 1, !dbg !27132
  %21 = load i32, i32* %20, align 4, !dbg !27132
  %22 = bitcast { i64, i32 }* %6 to i8*, !dbg !27132
  %23 = bitcast %struct.dim3* %4 to i8*, !dbg !27132
  call void @llvm.memcpy.p0i8.p0i8.i64(i8* align 4 %22, i8* align 4 %23, i64 12, i1 false), !dbg !27132
  %24 = getelementptr inbounds { i64, i32 }, { i64, i32 }* %6, i32 0, i32 0, !dbg !27132
  %25 = load i64, i64* %24, align 4, !dbg !27132
  %26 = getelementptr inbounds { i64, i32 }, { i64, i32 }* %6, i32 0, i32 1, !dbg !27132
  %27 = load i32, i32* %26, align 4, !dbg !27132
  %28 = call i32 @__cudaPushCallConfiguration(i64 %19, i32 %21, i64 %25, i32 %27, i64 0, i8* null), !dbg !27132
  %29 = icmp ne i32 %28, 0, !dbg !27132
  br i1 %29, label %51, label %30, !dbg !27132

30:                                               ; preds = %1
  %31 = getelementptr inbounds %class.anon.422, %class.anon.422* %7, i32 0, i32 2, !dbg !27132
  %32 = load %"class.at::Tensor"*, %"class.at::Tensor"** %31, align 8, !dbg !27132
  %33 = bitcast %"class.at::Tensor"* %32 to %"class.at::TensorBase"*, !dbg !27132
  %34 = call %"class.caffe2::TypeMeta"* @_ZNK2at10TensorBase8data_ptrIN3c108BFloat16EEEPT_v(%"class.at::TensorBase"* nonnull align 8 dereferenceable(8) %33), !dbg !27132
  %35 = getelementptr inbounds %class.anon.422, %class.anon.422* %7, i32 0, i32 3, !dbg !27132
  %36 = load %"class.at::Tensor"*, %"class.at::Tensor"** %35, align 8, !dbg !27132
  %37 = bitcast %"class.at::Tensor"* %36 to %"class.at::TensorBase"*, !dbg !27132
  %38 = call i8* @_ZNK2at10TensorBase8data_ptrIaEEPT_v(%"class.at::TensorBase"* nonnull align 8 dereferenceable(8) %37), !dbg !27132
  %39 = getelementptr inbounds %class.anon.422, %class.anon.422* %7, i32 0, i32 4, !dbg !27132
  %40 = load %"class.at::Tensor"*, %"class.at::Tensor"** %39, align 8, !dbg !27132
  %41 = bitcast %"class.at::Tensor"* %40 to %"class.at::TensorBase"*, !dbg !27132
  %42 = call float* @_ZNK2at10TensorBase8data_ptrIfEEPT_v(%"class.at::TensorBase"* nonnull align 8 dereferenceable(8) %41), !dbg !27132
  %43 = getelementptr inbounds %class.anon.422, %class.anon.422* %7, i32 0, i32 5, !dbg !27132
  %44 = load %"class.std::optional.59"*, %"class.std::optional.59"** %43, align 8, !dbg !27132
  %45 = call %"class.at::Tensor"* @_ZNKSt8optionalIN2at6TensorEEptEv(%"class.std::optional.59"* nonnull align 8 dereferenceable(16) %44) #3, !dbg !27132
  %46 = bitcast %"class.at::Tensor"* %45 to %"class.at::TensorBase"*, !dbg !27132
  %47 = call i32* @_ZNK2at10TensorBase8data_ptrIiEEPT_v(%"class.at::TensorBase"* nonnull align 8 dereferenceable(8) %46), !dbg !27132
  %48 = getelementptr inbounds %class.anon.422, %class.anon.422* %7, i32 0, i32 6, !dbg !27132
  %49 = load i32*, i32** %48, align 8, !dbg !27132
  %50 = load i32, i32* %49, align 4, !dbg !27132
  call void @_Z51__device_stub__dynamic_scaled_int8_azp_quant_kernelIN3c108BFloat16EfiEvPKT_PaPT0_PT1_i(%"class.caffe2::TypeMeta"* %34, i8* %38, float* %42, i32* %47, i32 %50), !dbg !27132
  br label %51, !dbg !27132

51:                                               ; preds = %30, %1
  ret void, !dbg !27132
}

; Function Attrs: mustprogress noinline nounwind optnone uwtable
define linkonce_odr dso_local i8* @_ZN3c108toStringENS_10ScalarTypeE(i8 signext %0) #6 comdat !dbg !27133 {
  %2 = alloca i8*, align 8
  %3 = alloca i8, align 1
  store i8 %0, i8* %3, align 1
  call void @llvm.dbg.declare(metadata i8* %3, metadata !27136, metadata !DIExpression()), !dbg !27137
  %4 = load i8, i8* %3, align 1, !dbg !27138
  switch i8 %4, label %50 [
    i8 0, label %5
    i8 1, label %6
    i8 2, label %7
    i8 3, label %8
    i8 4, label %9
    i8 5, label %10
    i8 6, label %11
    i8 7, label %12
    i8 8, label %13
    i8 9, label %14
    i8 10, label %15
    i8 11, label %16
    i8 12, label %17
    i8 13, label %18
    i8 14, label %19
    i8 15, label %20
    i8 16, label %21
    i8 17, label %22
    i8 18, label %23
    i8 19, label %24
    i8 20, label %25
    i8 21, label %26
    i8 22, label %27
    i8 23, label %28
    i8 24, label %29
    i8 25, label %30
    i8 26, label %31
    i8 27, label %32
    i8 28, label %33
    i8 29, label %34
    i8 30, label %35
    i8 31, label %36
    i8 32, label %37
    i8 33, label %38
    i8 34, label %39
    i8 35, label %40
    i8 36, label %41
    i8 37, label %42
    i8 38, label %43
    i8 39, label %44
    i8 40, label %45
    i8 41, label %46
    i8 42, label %47
    i8 43, label %48
    i8 44, label %49
  ], !dbg !27139

5:                                                ; preds = %1
  store i8* getelementptr inbounds ([5 x i8], [5 x i8]* @.str.159, i64 0, i64 0), i8** %2, align 8, !dbg !27140
  br label %51, !dbg !27140

6:                                                ; preds = %1
  store i8* getelementptr inbounds ([5 x i8], [5 x i8]* @.str.160, i64 0, i64 0), i8** %2, align 8, !dbg !27140
  br label %51, !dbg !27140

7:                                                ; preds = %1
  store i8* getelementptr inbounds ([6 x i8], [6 x i8]* @.str.161, i64 0, i64 0), i8** %2, align 8, !dbg !27140
  br label %51, !dbg !27140

8:                                                ; preds = %1
  store i8* getelementptr inbounds ([4 x i8], [4 x i8]* @.str.162, i64 0, i64 0), i8** %2, align 8, !dbg !27140
  br label %51, !dbg !27140

9:                                                ; preds = %1
  store i8* getelementptr inbounds ([5 x i8], [5 x i8]* @.str.163, i64 0, i64 0), i8** %2, align 8, !dbg !27140
  br label %51, !dbg !27140

10:                                               ; preds = %1
  store i8* getelementptr inbounds ([5 x i8], [5 x i8]* @.str.164, i64 0, i64 0), i8** %2, align 8, !dbg !27140
  br label %51, !dbg !27140

11:                                               ; preds = %1
  store i8* getelementptr inbounds ([6 x i8], [6 x i8]* @.str.165, i64 0, i64 0), i8** %2, align 8, !dbg !27140
  br label %51, !dbg !27140

12:                                               ; preds = %1
  store i8* getelementptr inbounds ([7 x i8], [7 x i8]* @.str.166, i64 0, i64 0), i8** %2, align 8, !dbg !27140
  br label %51, !dbg !27140

13:                                               ; preds = %1
  store i8* getelementptr inbounds ([12 x i8], [12 x i8]* @.str.167, i64 0, i64 0), i8** %2, align 8, !dbg !27140
  br label %51, !dbg !27140

14:                                               ; preds = %1
  store i8* getelementptr inbounds ([13 x i8], [13 x i8]* @.str.168, i64 0, i64 0), i8** %2, align 8, !dbg !27140
  br label %51, !dbg !27140

15:                                               ; preds = %1
  store i8* getelementptr inbounds ([14 x i8], [14 x i8]* @.str.169, i64 0, i64 0), i8** %2, align 8, !dbg !27140
  br label %51, !dbg !27140

16:                                               ; preds = %1
  store i8* getelementptr inbounds ([5 x i8], [5 x i8]* @.str.170, i64 0, i64 0), i8** %2, align 8, !dbg !27140
  br label %51, !dbg !27140

17:                                               ; preds = %1
  store i8* getelementptr inbounds ([6 x i8], [6 x i8]* @.str.171, i64 0, i64 0), i8** %2, align 8, !dbg !27140
  br label %51, !dbg !27140

18:                                               ; preds = %1
  store i8* getelementptr inbounds ([7 x i8], [7 x i8]* @.str.172, i64 0, i64 0), i8** %2, align 8, !dbg !27140
  br label %51, !dbg !27140

19:                                               ; preds = %1
  store i8* getelementptr inbounds ([7 x i8], [7 x i8]* @.str.173, i64 0, i64 0), i8** %2, align 8, !dbg !27140
  br label %51, !dbg !27140

20:                                               ; preds = %1
  store i8* getelementptr inbounds ([9 x i8], [9 x i8]* @.str.174, i64 0, i64 0), i8** %2, align 8, !dbg !27140
  br label %51, !dbg !27140

21:                                               ; preds = %1
  store i8* getelementptr inbounds ([9 x i8], [9 x i8]* @.str.175, i64 0, i64 0), i8** %2, align 8, !dbg !27140
  br label %51, !dbg !27140

22:                                               ; preds = %1
  store i8* getelementptr inbounds ([9 x i8], [9 x i8]* @.str.176, i64 0, i64 0), i8** %2, align 8, !dbg !27140
  br label %51, !dbg !27140

23:                                               ; preds = %1
  store i8* getelementptr inbounds ([8 x i8], [8 x i8]* @.str.177, i64 0, i64 0), i8** %2, align 8, !dbg !27140
  br label %51, !dbg !27140

24:                                               ; preds = %1
  store i8* getelementptr inbounds ([8 x i8], [8 x i8]* @.str.178, i64 0, i64 0), i8** %2, align 8, !dbg !27140
  br label %51, !dbg !27140

25:                                               ; preds = %1
  store i8* getelementptr inbounds ([8 x i8], [8 x i8]* @.str.179, i64 0, i64 0), i8** %2, align 8, !dbg !27140
  br label %51, !dbg !27140

26:                                               ; preds = %1
  store i8* getelementptr inbounds ([6 x i8], [6 x i8]* @.str.180, i64 0, i64 0), i8** %2, align 8, !dbg !27140
  br label %51, !dbg !27140

27:                                               ; preds = %1
  store i8* getelementptr inbounds ([7 x i8], [7 x i8]* @.str.181, i64 0, i64 0), i8** %2, align 8, !dbg !27140
  br label %51, !dbg !27140

28:                                               ; preds = %1
  store i8* getelementptr inbounds ([12 x i8], [12 x i8]* @.str.182, i64 0, i64 0), i8** %2, align 8, !dbg !27140
  br label %51, !dbg !27140

29:                                               ; preds = %1
  store i8* getelementptr inbounds ([14 x i8], [14 x i8]* @.str.183, i64 0, i64 0), i8** %2, align 8, !dbg !27140
  br label %51, !dbg !27140

30:                                               ; preds = %1
  store i8* getelementptr inbounds ([16 x i8], [16 x i8]* @.str.184, i64 0, i64 0), i8** %2, align 8, !dbg !27140
  br label %51, !dbg !27140

31:                                               ; preds = %1
  store i8* getelementptr inbounds ([16 x i8], [16 x i8]* @.str.185, i64 0, i64 0), i8** %2, align 8, !dbg !27140
  br label %51, !dbg !27140

32:                                               ; preds = %1
  store i8* getelementptr inbounds ([7 x i8], [7 x i8]* @.str.186, i64 0, i64 0), i8** %2, align 8, !dbg !27140
  br label %51, !dbg !27140

33:                                               ; preds = %1
  store i8* getelementptr inbounds ([7 x i8], [7 x i8]* @.str.187, i64 0, i64 0), i8** %2, align 8, !dbg !27140
  br label %51, !dbg !27140

34:                                               ; preds = %1
  store i8* getelementptr inbounds ([7 x i8], [7 x i8]* @.str.188, i64 0, i64 0), i8** %2, align 8, !dbg !27140
  br label %51, !dbg !27140

35:                                               ; preds = %1
  store i8* getelementptr inbounds ([6 x i8], [6 x i8]* @.str.189, i64 0, i64 0), i8** %2, align 8, !dbg !27140
  br label %51, !dbg !27140

36:                                               ; preds = %1
  store i8* getelementptr inbounds ([6 x i8], [6 x i8]* @.str.190, i64 0, i64 0), i8** %2, align 8, !dbg !27140
  br label %51, !dbg !27140

37:                                               ; preds = %1
  store i8* getelementptr inbounds ([6 x i8], [6 x i8]* @.str.191, i64 0, i64 0), i8** %2, align 8, !dbg !27140
  br label %51, !dbg !27140

38:                                               ; preds = %1
  store i8* getelementptr inbounds ([6 x i8], [6 x i8]* @.str.192, i64 0, i64 0), i8** %2, align 8, !dbg !27140
  br label %51, !dbg !27140

39:                                               ; preds = %1
  store i8* getelementptr inbounds ([6 x i8], [6 x i8]* @.str.193, i64 0, i64 0), i8** %2, align 8, !dbg !27140
  br label %51, !dbg !27140

40:                                               ; preds = %1
  store i8* getelementptr inbounds ([6 x i8], [6 x i8]* @.str.194, i64 0, i64 0), i8** %2, align 8, !dbg !27140
  br label %51, !dbg !27140

41:                                               ; preds = %1
  store i8* getelementptr inbounds ([6 x i8], [6 x i8]* @.str.195, i64 0, i64 0), i8** %2, align 8, !dbg !27140
  br label %51, !dbg !27140

42:                                               ; preds = %1
  store i8* getelementptr inbounds ([5 x i8], [5 x i8]* @.str.196, i64 0, i64 0), i8** %2, align 8, !dbg !27140
  br label %51, !dbg !27140

43:                                               ; preds = %1
  store i8* getelementptr inbounds ([5 x i8], [5 x i8]* @.str.197, i64 0, i64 0), i8** %2, align 8, !dbg !27140
  br label %51, !dbg !27140

44:                                               ; preds = %1
  store i8* getelementptr inbounds ([5 x i8], [5 x i8]* @.str.198, i64 0, i64 0), i8** %2, align 8, !dbg !27140
  br label %51, !dbg !27140

45:                                               ; preds = %1
  store i8* getelementptr inbounds ([5 x i8], [5 x i8]* @.str.199, i64 0, i64 0), i8** %2, align 8, !dbg !27140
  br label %51, !dbg !27140

46:                                               ; preds = %1
  store i8* getelementptr inbounds ([5 x i8], [5 x i8]* @.str.200, i64 0, i64 0), i8** %2, align 8, !dbg !27140
  br label %51, !dbg !27140

47:                                               ; preds = %1
  store i8* getelementptr inbounds ([5 x i8], [5 x i8]* @.str.201, i64 0, i64 0), i8** %2, align 8, !dbg !27140
  br label %51, !dbg !27140

48:                                               ; preds = %1
  store i8* getelementptr inbounds ([5 x i8], [5 x i8]* @.str.202, i64 0, i64 0), i8** %2, align 8, !dbg !27140
  br label %51, !dbg !27140

49:                                               ; preds = %1
  store i8* getelementptr inbounds ([15 x i8], [15 x i8]* @.str.203, i64 0, i64 0), i8** %2, align 8, !dbg !27140
  br label %51, !dbg !27140

50:                                               ; preds = %1
  store i8* getelementptr inbounds ([15 x i8], [15 x i8]* @.str.204, i64 0, i64 0), i8** %2, align 8, !dbg !27142
  br label %51, !dbg !27142

51:                                               ; preds = %50, %49, %48, %47, %46, %45, %44, %43, %42, %41, %40, %39, %38, %37, %36, %35, %34, %33, %32, %31, %30, %29, %28, %27, %26, %25, %24, %23, %22, %21, %20, %19, %18, %17, %16, %15, %14, %13, %12, %11, %10, %9, %8, %7, %6, %5
  %52 = load i8*, i8** %2, align 8, !dbg !27143
  ret i8* %52, !dbg !27143
}

; Function Attrs: mustprogress noinline optnone uwtable
define linkonce_odr dso_local void @_ZN3c106detail17torchCheckMsgImplIJcPKcA24_cS3_A2_cEEEDcS3_DpRKT_(%"class.std::__cxx11::basic_string"* noalias sret(%"class.std::__cxx11::basic_string") align 8 %0, i8* %1, i8* nonnull align 1 dereferenceable(1) %2, i8** nonnull align 8 dereferenceable(8) %3, [24 x i8]* nonnull align 1 dereferenceable(24) %4, i8** nonnull align 8 dereferenceable(8) %5, [2 x i8]* nonnull align 1 dereferenceable(2) %6) #4 comdat !dbg !27144 {
  %8 = alloca i8*, align 8
  %9 = alloca i8*, align 8
  %10 = alloca i8*, align 8
  %11 = alloca i8**, align 8
  %12 = alloca [24 x i8]*, align 8
  %13 = alloca i8**, align 8
  %14 = alloca [2 x i8]*, align 8
  %15 = bitcast %"class.std::__cxx11::basic_string"* %0 to i8*
  store i8* %15, i8** %8, align 8
  store i8* %1, i8** %9, align 8
  call void @llvm.dbg.declare(metadata i8** %9, metadata !27163, metadata !DIExpression()), !dbg !27164
  store i8* %2, i8** %10, align 8
  call void @llvm.dbg.declare(metadata i8** %10, metadata !27165, metadata !DIExpression()), !dbg !27166
  store i8** %3, i8*** %11, align 8
  call void @llvm.dbg.declare(metadata i8*** %11, metadata !27167, metadata !DIExpression()), !dbg !27166
  store [24 x i8]* %4, [24 x i8]** %12, align 8
  call void @llvm.dbg.declare(metadata [24 x i8]** %12, metadata !27168, metadata !DIExpression()), !dbg !27166
  store i8** %5, i8*** %13, align 8
  call void @llvm.dbg.declare(metadata i8*** %13, metadata !27169, metadata !DIExpression()), !dbg !27166
  store [2 x i8]* %6, [2 x i8]** %14, align 8
  call void @llvm.dbg.declare(metadata [2 x i8]** %14, metadata !27170, metadata !DIExpression()), !dbg !27166
  %16 = load i8*, i8** %10, align 8, !dbg !27171
  %17 = load i8**, i8*** %11, align 8, !dbg !27171
  %18 = load [24 x i8]*, [24 x i8]** %12, align 8, !dbg !27171
  %19 = load i8**, i8*** %13, align 8, !dbg !27171
  %20 = load [2 x i8]*, [2 x i8]** %14, align 8, !dbg !27171
  call void @_ZN3c103strIJcPKcA24_cS2_A2_cEEEDcDpRKT_(%"class.std::__cxx11::basic_string"* sret(%"class.std::__cxx11::basic_string") align 8 %0, i8* nonnull align 1 dereferenceable(1) %16, i8** nonnull align 8 dereferenceable(8) %17, [24 x i8]* nonnull align 1 dereferenceable(24) %18, i8** nonnull align 8 dereferenceable(8) %19, [2 x i8]* nonnull align 1 dereferenceable(2) %20), !dbg !27172
  ret void, !dbg !27173
}

; Function Attrs: noreturn
declare dso_local void @_ZN3c106detail14torchCheckFailEPKcS2_jRKNSt7__cxx1112basic_stringIcSt11char_traitsIcESaIcEEE(i8*, i8*, i32, %"class.std::__cxx11::basic_string"* nonnull align 8 dereferenceable(32)) #7

; Function Attrs: nounwind
declare dso_local void @_ZNSt7__cxx1112basic_stringIcSt11char_traitsIcESaIcEED1Ev(%"class.std::__cxx11::basic_string"* nonnull align 8 dereferenceable(32)) unnamed_addr #2

; Function Attrs: mustprogress noinline optnone uwtable
define linkonce_odr dso_local void @_ZN3c103strIJcPKcA24_cS2_A2_cEEEDcDpRKT_(%"class.std::__cxx11::basic_string"* noalias sret(%"class.std::__cxx11::basic_string") align 8 %0, i8* nonnull align 1 dereferenceable(1) %1, i8** nonnull align 8 dereferenceable(8) %2, [24 x i8]* nonnull align 1 dereferenceable(24) %3, i8** nonnull align 8 dereferenceable(8) %4, [2 x i8]* nonnull align 1 dereferenceable(2) %5) #4 comdat !dbg !27174 {
  %7 = alloca i8*, align 8
  %8 = alloca i8*, align 8
  %9 = alloca i8**, align 8
  %10 = alloca [24 x i8]*, align 8
  %11 = alloca i8**, align 8
  %12 = alloca [2 x i8]*, align 8
  %13 = alloca i8*, align 8
  %14 = alloca i8*, align 8
  %15 = bitcast %"class.std::__cxx11::basic_string"* %0 to i8*
  store i8* %15, i8** %7, align 8
  store i8* %1, i8** %8, align 8
  call void @llvm.dbg.declare(metadata i8** %8, metadata !27178, metadata !DIExpression()), !dbg !27179
  store i8** %2, i8*** %9, align 8
  call void @llvm.dbg.declare(metadata i8*** %9, metadata !27180, metadata !DIExpression()), !dbg !27179
  store [24 x i8]* %3, [24 x i8]** %10, align 8
  call void @llvm.dbg.declare(metadata [24 x i8]** %10, metadata !27181, metadata !DIExpression()), !dbg !27179
  store i8** %4, i8*** %11, align 8
  call void @llvm.dbg.declare(metadata i8*** %11, metadata !27182, metadata !DIExpression()), !dbg !27179
  store [2 x i8]* %5, [2 x i8]** %12, align 8
  call void @llvm.dbg.declare(metadata [2 x i8]** %12, metadata !27183, metadata !DIExpression()), !dbg !27179
  %16 = load i8*, i8** %8, align 8, !dbg !27184
  %17 = load i8**, i8*** %9, align 8, !dbg !27184
  %18 = load [24 x i8]*, [24 x i8]** %10, align 8, !dbg !27184
  %19 = getelementptr inbounds [24 x i8], [24 x i8]* %18, i64 0, i64 0, !dbg !27184
  store i8* %19, i8** %13, align 8, !dbg !27184
  %20 = load i8**, i8*** %11, align 8, !dbg !27184
  %21 = load [2 x i8]*, [2 x i8]** %12, align 8, !dbg !27184
  %22 = getelementptr inbounds [2 x i8], [2 x i8]* %21, i64 0, i64 0, !dbg !27184
  store i8* %22, i8** %14, align 8, !dbg !27184
  call void @_ZN3c106detail12_str_wrapperIJRKcRKPS2_S4_S6_S4_EE4callB5cxx11ES3_S6_S6_S6_S6_(%"class.std::__cxx11::basic_string"* sret(%"class.std::__cxx11::basic_string") align 8 %0, i8* nonnull align 1 dereferenceable(1) %16, i8** nonnull align 8 dereferenceable(8) %17, i8** nonnull align 8 dereferenceable(8) %13, i8** nonnull align 8 dereferenceable(8) %20, i8** nonnull align 8 dereferenceable(8) %14), !dbg !27185
  ret void, !dbg !27186
}

; Function Attrs: mustprogress noinline optnone uwtable
define linkonce_odr dso_local void @_ZN3c106detail12_str_wrapperIJRKcRKPS2_S4_S6_S4_EE4callB5cxx11ES3_S6_S6_S6_S6_(%"class.std::__cxx11::basic_string"* noalias sret(%"class.std::__cxx11::basic_string") align 8 %0, i8* nonnull align 1 dereferenceable(1) %1, i8** nonnull align 8 dereferenceable(8) %2, i8** nonnull align 8 dereferenceable(8) %3, i8** nonnull align 8 dereferenceable(8) %4, i8** nonnull align 8 dereferenceable(8) %5) #4 comdat align 2 personality i8* bitcast (i32 (...)* @__gxx_personality_v0 to i8*) !dbg !27187 {
  %7 = alloca i8*, align 8
  %8 = alloca i8*, align 8
  %9 = alloca i8**, align 8
  %10 = alloca i8**, align 8
  %11 = alloca i8**, align 8
  %12 = alloca i8**, align 8
  %13 = alloca %"class.std::__cxx11::basic_ostringstream", align 8
  %14 = alloca i8*, align 8
  %15 = alloca i32, align 4
  %16 = bitcast %"class.std::__cxx11::basic_string"* %0 to i8*
  store i8* %16, i8** %7, align 8
  store i8* %1, i8** %8, align 8
  call void @llvm.dbg.declare(metadata i8** %8, metadata !27198, metadata !DIExpression()), !dbg !27199
  store i8** %2, i8*** %9, align 8
  call void @llvm.dbg.declare(metadata i8*** %9, metadata !27200, metadata !DIExpression()), !dbg !27199
  store i8** %3, i8*** %10, align 8
  call void @llvm.dbg.declare(metadata i8*** %10, metadata !27201, metadata !DIExpression()), !dbg !27199
  store i8** %4, i8*** %11, align 8
  call void @llvm.dbg.declare(metadata i8*** %11, metadata !27202, metadata !DIExpression()), !dbg !27199
  store i8** %5, i8*** %12, align 8
  call void @llvm.dbg.declare(metadata i8*** %12, metadata !27203, metadata !DIExpression()), !dbg !27199
  call void @llvm.dbg.declare(metadata %"class.std::__cxx11::basic_ostringstream"* %13, metadata !27204, metadata !DIExpression()), !dbg !27209
  call void @_ZNSt7__cxx1119basic_ostringstreamIcSt11char_traitsIcESaIcEEC1Ev(%"class.std::__cxx11::basic_ostringstream"* nonnull align 8 dereferenceable(112) %13), !dbg !27209
  %17 = bitcast %"class.std::__cxx11::basic_ostringstream"* %13 to %"class.std::basic_ostream"*, !dbg !27210
  %18 = load i8*, i8** %8, align 8, !dbg !27211
  %19 = load i8**, i8*** %9, align 8, !dbg !27211
  %20 = load i8**, i8*** %10, align 8, !dbg !27211
  %21 = load i8**, i8*** %11, align 8, !dbg !27211
  %22 = load i8**, i8*** %12, align 8, !dbg !27211
  %23 = invoke nonnull align 8 dereferenceable(8) %"class.std::basic_ostream"* @_ZN3c106detail4_strIcJPKcS3_S3_S3_EEERSoS4_RKT_DpRKT0_(%"class.std::basic_ostream"* nonnull align 8 dereferenceable(8) %17, i8* nonnull align 1 dereferenceable(1) %18, i8** nonnull align 8 dereferenceable(8) %19, i8** nonnull align 8 dereferenceable(8) %20, i8** nonnull align 8 dereferenceable(8) %21, i8** nonnull align 8 dereferenceable(8) %22)
          to label %24 unwind label %26, !dbg !27212

24:                                               ; preds = %6
  invoke void @_ZNKSt7__cxx1119basic_ostringstreamIcSt11char_traitsIcESaIcEE3strEv(%"class.std::__cxx11::basic_string"* sret(%"class.std::__cxx11::basic_string") align 8 %0, %"class.std::__cxx11::basic_ostringstream"* nonnull align 8 dereferenceable(112) %13)
          to label %25 unwind label %26, !dbg !27213

25:                                               ; preds = %24
  call void @_ZNSt7__cxx1119basic_ostringstreamIcSt11char_traitsIcESaIcEED1Ev(%"class.std::__cxx11::basic_ostringstream"* nonnull align 8 dereferenceable(112) %13) #3, !dbg !27214
  ret void, !dbg !27214

26:                                               ; preds = %24, %6
  %27 = landingpad { i8*, i32 }
          cleanup, !dbg !27214
  %28 = extractvalue { i8*, i32 } %27, 0, !dbg !27214
  store i8* %28, i8** %14, align 8, !dbg !27214
  %29 = extractvalue { i8*, i32 } %27, 1, !dbg !27214
  store i32 %29, i32* %15, align 4, !dbg !27214
  call void @_ZNSt7__cxx1119basic_ostringstreamIcSt11char_traitsIcESaIcEED1Ev(%"class.std::__cxx11::basic_ostringstream"* nonnull align 8 dereferenceable(112) %13) #3, !dbg !27214
  br label %30, !dbg !27214

30:                                               ; preds = %26
  %31 = load i8*, i8** %14, align 8, !dbg !27214
  %32 = load i32, i32* %15, align 4, !dbg !27214
  %33 = insertvalue { i8*, i32 } undef, i8* %31, 0, !dbg !27214
  %34 = insertvalue { i8*, i32 } %33, i32 %32, 1, !dbg !27214
  resume { i8*, i32 } %34, !dbg !27214
}

declare dso_local void @_ZNSt7__cxx1119basic_ostringstreamIcSt11char_traitsIcESaIcEEC1Ev(%"class.std::__cxx11::basic_ostringstream"* nonnull align 8 dereferenceable(112)) unnamed_addr #1

; Function Attrs: mustprogress noinline optnone uwtable
define linkonce_odr dso_local nonnull align 8 dereferenceable(8) %"class.std::basic_ostream"* @_ZN3c106detail4_strIcJPKcS3_S3_S3_EEERSoS4_RKT_DpRKT0_(%"class.std::basic_ostream"* nonnull align 8 dereferenceable(8) %0, i8* nonnull align 1 dereferenceable(1) %1, i8** nonnull align 8 dereferenceable(8) %2, i8** nonnull align 8 dereferenceable(8) %3, i8** nonnull align 8 dereferenceable(8) %4, i8** nonnull align 8 dereferenceable(8) %5) #4 comdat !dbg !27215 {
  %7 = alloca %"class.std::basic_ostream"*, align 8
  %8 = alloca i8*, align 8
  %9 = alloca i8**, align 8
  %10 = alloca i8**, align 8
  %11 = alloca i8**, align 8
  %12 = alloca i8**, align 8
  store %"class.std::basic_ostream"* %0, %"class.std::basic_ostream"** %7, align 8
  call void @llvm.dbg.declare(metadata %"class.std::basic_ostream"** %7, metadata !27226, metadata !DIExpression()), !dbg !27227
  store i8* %1, i8** %8, align 8
  call void @llvm.dbg.declare(metadata i8** %8, metadata !27228, metadata !DIExpression()), !dbg !27229
  store i8** %2, i8*** %9, align 8
  call void @llvm.dbg.declare(metadata i8*** %9, metadata !27230, metadata !DIExpression()), !dbg !27231
  store i8** %3, i8*** %10, align 8
  call void @llvm.dbg.declare(metadata i8*** %10, metadata !27232, metadata !DIExpression()), !dbg !27231
  store i8** %4, i8*** %11, align 8
  call void @llvm.dbg.declare(metadata i8*** %11, metadata !27233, metadata !DIExpression()), !dbg !27231
  store i8** %5, i8*** %12, align 8
  call void @llvm.dbg.declare(metadata i8*** %12, metadata !27234, metadata !DIExpression()), !dbg !27231
  %13 = load %"class.std::basic_ostream"*, %"class.std::basic_ostream"** %7, align 8, !dbg !27235
  %14 = load i8*, i8** %8, align 8, !dbg !27236
  %15 = call nonnull align 8 dereferenceable(8) %"class.std::basic_ostream"* @_ZN3c106detail4_strIcEERSoS2_RKT_(%"class.std::basic_ostream"* nonnull align 8 dereferenceable(8) %13, i8* nonnull align 1 dereferenceable(1) %14), !dbg !27237
  %16 = load i8**, i8*** %9, align 8, !dbg !27238
  %17 = load i8**, i8*** %10, align 8, !dbg !27238
  %18 = load i8**, i8*** %11, align 8, !dbg !27238
  %19 = load i8**, i8*** %12, align 8, !dbg !27238
  %20 = call nonnull align 8 dereferenceable(8) %"class.std::basic_ostream"* @_ZN3c106detail4_strIPKcJS3_S3_S3_EEERSoS4_RKT_DpRKT0_(%"class.std::basic_ostream"* nonnull align 8 dereferenceable(8) %15, i8** nonnull align 8 dereferenceable(8) %16, i8** nonnull align 8 dereferenceable(8) %17, i8** nonnull align 8 dereferenceable(8) %18, i8** nonnull align 8 dereferenceable(8) %19), !dbg !27239
  ret %"class.std::basic_ostream"* %20, !dbg !27240
}

declare dso_local void @_ZNKSt7__cxx1119basic_ostringstreamIcSt11char_traitsIcESaIcEE3strEv(%"class.std::__cxx11::basic_string"* sret(%"class.std::__cxx11::basic_string") align 8, %"class.std::__cxx11::basic_ostringstream"* nonnull align 8 dereferenceable(112)) #1

; Function Attrs: nounwind
declare dso_local void @_ZNSt7__cxx1119basic_ostringstreamIcSt11char_traitsIcESaIcEED1Ev(%"class.std::__cxx11::basic_ostringstream"* nonnull align 8 dereferenceable(112)) unnamed_addr #2

; Function Attrs: mustprogress noinline optnone uwtable
define linkonce_odr dso_local nonnull align 8 dereferenceable(8) %"class.std::basic_ostream"* @_ZN3c106detail4_strIcEERSoS2_RKT_(%"class.std::basic_ostream"* nonnull align 8 dereferenceable(8) %0, i8* nonnull align 1 dereferenceable(1) %1) #4 comdat !dbg !27241 {
  %3 = alloca %"class.std::basic_ostream"*, align 8
  %4 = alloca i8*, align 8
  store %"class.std::basic_ostream"* %0, %"class.std::basic_ostream"** %3, align 8
  call void @llvm.dbg.declare(metadata %"class.std::basic_ostream"** %3, metadata !27245, metadata !DIExpression()), !dbg !27246
  store i8* %1, i8** %4, align 8
  call void @llvm.dbg.declare(metadata i8** %4, metadata !27247, metadata !DIExpression()), !dbg !27248
  %5 = load %"class.std::basic_ostream"*, %"class.std::basic_ostream"** %3, align 8, !dbg !27249
  %6 = load i8*, i8** %4, align 8, !dbg !27250
  %7 = load i8, i8* %6, align 1, !dbg !27250
  %8 = call nonnull align 8 dereferenceable(8) %"class.std::basic_ostream"* @_ZStlsISt11char_traitsIcEERSt13basic_ostreamIcT_ES5_c(%"class.std::basic_ostream"* nonnull align 8 dereferenceable(8) %5, i8 signext %7), !dbg !27251
  %9 = load %"class.std::basic_ostream"*, %"class.std::basic_ostream"** %3, align 8, !dbg !27252
  ret %"class.std::basic_ostream"* %9, !dbg !27253
}

; Function Attrs: mustprogress noinline optnone uwtable
define linkonce_odr dso_local nonnull align 8 dereferenceable(8) %"class.std::basic_ostream"* @_ZN3c106detail4_strIPKcJS3_S3_S3_EEERSoS4_RKT_DpRKT0_(%"class.std::basic_ostream"* nonnull align 8 dereferenceable(8) %0, i8** nonnull align 8 dereferenceable(8) %1, i8** nonnull align 8 dereferenceable(8) %2, i8** nonnull align 8 dereferenceable(8) %3, i8** nonnull align 8 dereferenceable(8) %4) #4 comdat !dbg !27254 {
  %6 = alloca %"class.std::basic_ostream"*, align 8
  %7 = alloca i8**, align 8
  %8 = alloca i8**, align 8
  %9 = alloca i8**, align 8
  %10 = alloca i8**, align 8
  store %"class.std::basic_ostream"* %0, %"class.std::basic_ostream"** %6, align 8
  call void @llvm.dbg.declare(metadata %"class.std::basic_ostream"** %6, metadata !27261, metadata !DIExpression()), !dbg !27262
  store i8** %1, i8*** %7, align 8
  call void @llvm.dbg.declare(metadata i8*** %7, metadata !27263, metadata !DIExpression()), !dbg !27264
  store i8** %2, i8*** %8, align 8
  call void @llvm.dbg.declare(metadata i8*** %8, metadata !27265, metadata !DIExpression()), !dbg !27266
  store i8** %3, i8*** %9, align 8
  call void @llvm.dbg.declare(metadata i8*** %9, metadata !27267, metadata !DIExpression()), !dbg !27266
  store i8** %4, i8*** %10, align 8
  call void @llvm.dbg.declare(metadata i8*** %10, metadata !27268, metadata !DIExpression()), !dbg !27266
  %11 = load %"class.std::basic_ostream"*, %"class.std::basic_ostream"** %6, align 8, !dbg !27269
  %12 = load i8**, i8*** %7, align 8, !dbg !27270
  %13 = call nonnull align 8 dereferenceable(8) %"class.std::basic_ostream"* @_ZN3c106detail4_strIPKcEERSoS4_RKT_(%"class.std::basic_ostream"* nonnull align 8 dereferenceable(8) %11, i8** nonnull align 8 dereferenceable(8) %12), !dbg !27271
  %14 = load i8**, i8*** %8, align 8, !dbg !27272
  %15 = load i8**, i8*** %9, align 8, !dbg !27272
  %16 = load i8**, i8*** %10, align 8, !dbg !27272
  %17 = call nonnull align 8 dereferenceable(8) %"class.std::basic_ostream"* @_ZN3c106detail4_strIPKcJS3_S3_EEERSoS4_RKT_DpRKT0_(%"class.std::basic_ostream"* nonnull align 8 dereferenceable(8) %13, i8** nonnull align 8 dereferenceable(8) %14, i8** nonnull align 8 dereferenceable(8) %15, i8** nonnull align 8 dereferenceable(8) %16), !dbg !27273
  ret %"class.std::basic_ostream"* %17, !dbg !27274
}

; Function Attrs: mustprogress noinline optnone uwtable
define linkonce_odr dso_local nonnull align 8 dereferenceable(8) %"class.std::basic_ostream"* @_ZN3c106detail4_strIPKcEERSoS4_RKT_(%"class.std::basic_ostream"* nonnull align 8 dereferenceable(8) %0, i8** nonnull align 8 dereferenceable(8) %1) #4 comdat !dbg !27275 {
  %3 = alloca %"class.std::basic_ostream"*, align 8
  %4 = alloca i8**, align 8
  store %"class.std::basic_ostream"* %0, %"class.std::basic_ostream"** %3, align 8
  call void @llvm.dbg.declare(metadata %"class.std::basic_ostream"** %3, metadata !27279, metadata !DIExpression()), !dbg !27280
  store i8** %1, i8*** %4, align 8
  call void @llvm.dbg.declare(metadata i8*** %4, metadata !27281, metadata !DIExpression()), !dbg !27282
  %5 = load %"class.std::basic_ostream"*, %"class.std::basic_ostream"** %3, align 8, !dbg !27283
  %6 = load i8**, i8*** %4, align 8, !dbg !27284
  %7 = load i8*, i8** %6, align 8, !dbg !27284
  %8 = call nonnull align 8 dereferenceable(8) %"class.std::basic_ostream"* @_ZStlsISt11char_traitsIcEERSt13basic_ostreamIcT_ES5_PKc(%"class.std::basic_ostream"* nonnull align 8 dereferenceable(8) %5, i8* %7), !dbg !27285
  %9 = load %"class.std::basic_ostream"*, %"class.std::basic_ostream"** %3, align 8, !dbg !27286
  ret %"class.std::basic_ostream"* %9, !dbg !27287
}

; Function Attrs: mustprogress noinline optnone uwtable
define linkonce_odr dso_local nonnull align 8 dereferenceable(8) %"class.std::basic_ostream"* @_ZN3c106detail4_strIPKcJS3_S3_EEERSoS4_RKT_DpRKT0_(%"class.std::basic_ostream"* nonnull align 8 dereferenceable(8) %0, i8** nonnull align 8 dereferenceable(8) %1, i8** nonnull align 8 dereferenceable(8) %2, i8** nonnull align 8 dereferenceable(8) %3) #4 comdat !dbg !27288 {
  %5 = alloca %"class.std::basic_ostream"*, align 8
  %6 = alloca i8**, align 8
  %7 = alloca i8**, align 8
  %8 = alloca i8**, align 8
  store %"class.std::basic_ostream"* %0, %"class.std::basic_ostream"** %5, align 8
  call void @llvm.dbg.declare(metadata %"class.std::basic_ostream"** %5, metadata !27294, metadata !DIExpression()), !dbg !27295
  store i8** %1, i8*** %6, align 8
  call void @llvm.dbg.declare(metadata i8*** %6, metadata !27296, metadata !DIExpression()), !dbg !27297
  store i8** %2, i8*** %7, align 8
  call void @llvm.dbg.declare(metadata i8*** %7, metadata !27298, metadata !DIExpression()), !dbg !27299
  store i8** %3, i8*** %8, align 8
  call void @llvm.dbg.declare(metadata i8*** %8, metadata !27300, metadata !DIExpression()), !dbg !27299
  %9 = load %"class.std::basic_ostream"*, %"class.std::basic_ostream"** %5, align 8, !dbg !27301
  %10 = load i8**, i8*** %6, align 8, !dbg !27302
  %11 = call nonnull align 8 dereferenceable(8) %"class.std::basic_ostream"* @_ZN3c106detail4_strIPKcEERSoS4_RKT_(%"class.std::basic_ostream"* nonnull align 8 dereferenceable(8) %9, i8** nonnull align 8 dereferenceable(8) %10), !dbg !27303
  %12 = load i8**, i8*** %7, align 8, !dbg !27304
  %13 = load i8**, i8*** %8, align 8, !dbg !27304
  %14 = call nonnull align 8 dereferenceable(8) %"class.std::basic_ostream"* @_ZN3c106detail4_strIPKcJS3_EEERSoS4_RKT_DpRKT0_(%"class.std::basic_ostream"* nonnull align 8 dereferenceable(8) %11, i8** nonnull align 8 dereferenceable(8) %12, i8** nonnull align 8 dereferenceable(8) %13), !dbg !27305
  ret %"class.std::basic_ostream"* %14, !dbg !27306
}

; Function Attrs: mustprogress noinline optnone uwtable
define linkonce_odr dso_local nonnull align 8 dereferenceable(8) %"class.std::basic_ostream"* @_ZN3c106detail4_strIPKcJS3_EEERSoS4_RKT_DpRKT0_(%"class.std::basic_ostream"* nonnull align 8 dereferenceable(8) %0, i8** nonnull align 8 dereferenceable(8) %1, i8** nonnull align 8 dereferenceable(8) %2) #4 comdat !dbg !27307 {
  %4 = alloca %"class.std::basic_ostream"*, align 8
  %5 = alloca i8**, align 8
  %6 = alloca i8**, align 8
  store %"class.std::basic_ostream"* %0, %"class.std::basic_ostream"** %4, align 8
  call void @llvm.dbg.declare(metadata %"class.std::basic_ostream"** %4, metadata !27313, metadata !DIExpression()), !dbg !27314
  store i8** %1, i8*** %5, align 8
  call void @llvm.dbg.declare(metadata i8*** %5, metadata !27315, metadata !DIExpression()), !dbg !27316
  store i8** %2, i8*** %6, align 8
  call void @llvm.dbg.declare(metadata i8*** %6, metadata !27317, metadata !DIExpression()), !dbg !27318
  %7 = load %"class.std::basic_ostream"*, %"class.std::basic_ostream"** %4, align 8, !dbg !27319
  %8 = load i8**, i8*** %5, align 8, !dbg !27320
  %9 = call nonnull align 8 dereferenceable(8) %"class.std::basic_ostream"* @_ZN3c106detail4_strIPKcEERSoS4_RKT_(%"class.std::basic_ostream"* nonnull align 8 dereferenceable(8) %7, i8** nonnull align 8 dereferenceable(8) %8), !dbg !27321
  %10 = load i8**, i8*** %6, align 8, !dbg !27322
  %11 = call nonnull align 8 dereferenceable(8) %"class.std::basic_ostream"* @_ZN3c106detail4_strIPKcEERSoS4_RKT_(%"class.std::basic_ostream"* nonnull align 8 dereferenceable(8) %9, i8** nonnull align 8 dereferenceable(8) %10), !dbg !27323
  ret %"class.std::basic_ostream"* %11, !dbg !27324
}

declare dso_local nonnull align 8 dereferenceable(8) %"class.std::basic_ostream"* @_ZStlsISt11char_traitsIcEERSt13basic_ostreamIcT_ES5_PKc(%"class.std::basic_ostream"* nonnull align 8 dereferenceable(8), i8*) #1

declare dso_local nonnull align 8 dereferenceable(8) %"class.std::basic_ostream"* @_ZStlsISt11char_traitsIcEERSt13basic_ostreamIcT_ES5_c(%"class.std::basic_ostream"* nonnull align 8 dereferenceable(8), i8 signext) #1

; Function Attrs: argmemonly nofree nounwind willreturn
declare void @llvm.memcpy.p0i8.p0i8.i64(i8* noalias nocapture writeonly, i8* noalias nocapture readonly, i64, i1 immarg) #9

declare dso_local i32 @__cudaPushCallConfiguration(i64, i32, i64, i32, i64, i8*) #1

declare dso_local %"class.caffe2::TypeMeta"* @_ZNK2at10TensorBase8data_ptrIN3c108BFloat16EEEPT_v(%"class.at::TensorBase"* nonnull align 8 dereferenceable(8)) #1

declare dso_local i8* @_ZNK2at10TensorBase8data_ptrIaEEPT_v(%"class.at::TensorBase"* nonnull align 8 dereferenceable(8)) #1

declare dso_local float* @_ZNK2at10TensorBase8data_ptrIfEEPT_v(%"class.at::TensorBase"* nonnull align 8 dereferenceable(8)) #1

declare dso_local i32* @_ZNK2at10TensorBase8data_ptrIiEEPT_v(%"class.at::TensorBase"* nonnull align 8 dereferenceable(8)) #1

; Function Attrs: noinline norecurse optnone uwtable
define linkonce_odr dso_local void @_Z51__device_stub__dynamic_scaled_int8_azp_quant_kernelIN3c108BFloat16EfiEvPKT_PaPT0_PT1_i(%"class.caffe2::TypeMeta"* noalias %0, i8* noalias %1, float* %2, i32* %3, i32 %4) #10 !dbg !27325 {
  %6 = alloca %"class.caffe2::TypeMeta"*, align 8
  %7 = alloca i8*, align 8
  %8 = alloca float*, align 8
  %9 = alloca i32*, align 8
  %10 = alloca i32, align 4
  %11 = alloca %struct.dim3, align 8
  %12 = alloca %struct.dim3, align 8
  %13 = alloca i64, align 8
  %14 = alloca i8*, align 8
  %15 = alloca { i64, i32 }, align 8
  %16 = alloca { i64, i32 }, align 8
  store %"class.caffe2::TypeMeta"* %0, %"class.caffe2::TypeMeta"** %6, align 8
  call void @llvm.dbg.declare(metadata %"class.caffe2::TypeMeta"** %6, metadata !27326, metadata !DIExpression()), !dbg !27327
  store i8* %1, i8** %7, align 8
  call void @llvm.dbg.declare(metadata i8** %7, metadata !27328, metadata !DIExpression()), !dbg !27329
  store float* %2, float** %8, align 8
  call void @llvm.dbg.declare(metadata float** %8, metadata !27330, metadata !DIExpression()), !dbg !27331
  store i32* %3, i32** %9, align 8
  call void @llvm.dbg.declare(metadata i32** %9, metadata !27332, metadata !DIExpression()), !dbg !27333
  store i32 %4, i32* %10, align 4
  call void @llvm.dbg.declare(metadata i32* %10, metadata !27334, metadata !DIExpression()), !dbg !27335
  %17 = alloca i8*, i64 5, align 16, !dbg !27336
  %18 = bitcast %"class.caffe2::TypeMeta"** %6 to i8*, !dbg !27336
  %19 = getelementptr i8*, i8** %17, i32 0, !dbg !27336
  store i8* %18, i8** %19, align 8, !dbg !27336
  %20 = bitcast i8** %7 to i8*, !dbg !27336
  %21 = getelementptr i8*, i8** %17, i32 1, !dbg !27336
  store i8* %20, i8** %21, align 8, !dbg !27336
  %22 = bitcast float** %8 to i8*, !dbg !27336
  %23 = getelementptr i8*, i8** %17, i32 2, !dbg !27336
  store i8* %22, i8** %23, align 8, !dbg !27336
  %24 = bitcast i32** %9 to i8*, !dbg !27336
  %25 = getelementptr i8*, i8** %17, i32 3, !dbg !27336
  store i8* %24, i8** %25, align 8, !dbg !27336
  %26 = bitcast i32* %10 to i8*, !dbg !27336
  %27 = getelementptr i8*, i8** %17, i32 4, !dbg !27336
  store i8* %26, i8** %27, align 8, !dbg !27336
  %28 = call i32 @__cudaPopCallConfiguration(%struct.dim3* %11, %struct.dim3* %12, i64* %13, i8** %14), !dbg !27336
  %29 = load i64, i64* %13, align 8, !dbg !27336
  %30 = load i8*, i8** %14, align 8, !dbg !27336
  %31 = bitcast { i64, i32 }* %15 to i8*, !dbg !27336
  %32 = bitcast %struct.dim3* %11 to i8*, !dbg !27336
  call void @llvm.memcpy.p0i8.p0i8.i64(i8* align 8 %31, i8* align 8 %32, i64 12, i1 false), !dbg !27336
  %33 = getelementptr inbounds { i64, i32 }, { i64, i32 }* %15, i32 0, i32 0, !dbg !27336
  %34 = load i64, i64* %33, align 8, !dbg !27336
  %35 = getelementptr inbounds { i64, i32 }, { i64, i32 }* %15, i32 0, i32 1, !dbg !27336
  %36 = load i32, i32* %35, align 8, !dbg !27336
  %37 = bitcast { i64, i32 }* %16 to i8*, !dbg !27336
  %38 = bitcast %struct.dim3* %12 to i8*, !dbg !27336
  call void @llvm.memcpy.p0i8.p0i8.i64(i8* align 8 %37, i8* align 8 %38, i64 12, i1 false), !dbg !27336
  %39 = getelementptr inbounds { i64, i32 }, { i64, i32 }* %16, i32 0, i32 0, !dbg !27336
  %40 = load i64, i64* %39, align 8, !dbg !27336
  %41 = getelementptr inbounds { i64, i32 }, { i64, i32 }* %16, i32 0, i32 1, !dbg !27336
  %42 = load i32, i32* %41, align 8, !dbg !27336
  %43 = bitcast i8* %30 to %struct.CUstream_st*, !dbg !27336
  %44 = call i32 @cudaLaunchKernel(i8* bitcast (void (%"class.caffe2::TypeMeta"*, i8*, float*, i32*, i32)* @_Z51__device_stub__dynamic_scaled_int8_azp_quant_kernelIN3c108BFloat16EfiEvPKT_PaPT0_PT1_i to i8*), i64 %34, i32 %36, i64 %40, i32 %42, i8** %17, i64 %29, %struct.CUstream_st* %43), !dbg !27336
  br label %45, !dbg !27336

45:                                               ; preds = %5
  ret void, !dbg !27337
}

declare dso_local i32 @__cudaPopCallConfiguration(%struct.dim3*, %struct.dim3*, i64*, i8**)

declare dso_local i32 @cudaLaunchKernel(i8*, i64, i32, i64, i32, i8**, i64, %struct.CUstream_st*)

declare dso_local %"class.caffe2::TypeMeta"* @_ZNK2at10TensorBase8data_ptrIN3c104HalfEEEPT_v(%"class.at::TensorBase"* nonnull align 8 dereferenceable(8)) #1

; Function Attrs: noinline norecurse optnone uwtable
define linkonce_odr dso_local void @_Z51__device_stub__dynamic_scaled_int8_azp_quant_kernelIN3c104HalfEfiEvPKT_PaPT0_PT1_i(%"class.caffe2::TypeMeta"* noalias %0, i8* noalias %1, float* %2, i32* %3, i32 %4) #10 !dbg !27338 {
  %6 = alloca %"class.caffe2::TypeMeta"*, align 8
  %7 = alloca i8*, align 8
  %8 = alloca float*, align 8
  %9 = alloca i32*, align 8
  %10 = alloca i32, align 4
  %11 = alloca %struct.dim3, align 8
  %12 = alloca %struct.dim3, align 8
  %13 = alloca i64, align 8
  %14 = alloca i8*, align 8
  %15 = alloca { i64, i32 }, align 8
  %16 = alloca { i64, i32 }, align 8
  store %"class.caffe2::TypeMeta"* %0, %"class.caffe2::TypeMeta"** %6, align 8
  call void @llvm.dbg.declare(metadata %"class.caffe2::TypeMeta"** %6, metadata !27339, metadata !DIExpression()), !dbg !27340
  store i8* %1, i8** %7, align 8
  call void @llvm.dbg.declare(metadata i8** %7, metadata !27341, metadata !DIExpression()), !dbg !27342
  store float* %2, float** %8, align 8
  call void @llvm.dbg.declare(metadata float** %8, metadata !27343, metadata !DIExpression()), !dbg !27344
  store i32* %3, i32** %9, align 8
  call void @llvm.dbg.declare(metadata i32** %9, metadata !27345, metadata !DIExpression()), !dbg !27346
  store i32 %4, i32* %10, align 4
  call void @llvm.dbg.declare(metadata i32* %10, metadata !27347, metadata !DIExpression()), !dbg !27348
  %17 = alloca i8*, i64 5, align 16, !dbg !27349
  %18 = bitcast %"class.caffe2::TypeMeta"** %6 to i8*, !dbg !27349
  %19 = getelementptr i8*, i8** %17, i32 0, !dbg !27349
  store i8* %18, i8** %19, align 8, !dbg !27349
  %20 = bitcast i8** %7 to i8*, !dbg !27349
  %21 = getelementptr i8*, i8** %17, i32 1, !dbg !27349
  store i8* %20, i8** %21, align 8, !dbg !27349
  %22 = bitcast float** %8 to i8*, !dbg !27349
  %23 = getelementptr i8*, i8** %17, i32 2, !dbg !27349
  store i8* %22, i8** %23, align 8, !dbg !27349
  %24 = bitcast i32** %9 to i8*, !dbg !27349
  %25 = getelementptr i8*, i8** %17, i32 3, !dbg !27349
  store i8* %24, i8** %25, align 8, !dbg !27349
  %26 = bitcast i32* %10 to i8*, !dbg !27349
  %27 = getelementptr i8*, i8** %17, i32 4, !dbg !27349
  store i8* %26, i8** %27, align 8, !dbg !27349
  %28 = call i32 @__cudaPopCallConfiguration(%struct.dim3* %11, %struct.dim3* %12, i64* %13, i8** %14), !dbg !27349
  %29 = load i64, i64* %13, align 8, !dbg !27349
  %30 = load i8*, i8** %14, align 8, !dbg !27349
  %31 = bitcast { i64, i32 }* %15 to i8*, !dbg !27349
  %32 = bitcast %struct.dim3* %11 to i8*, !dbg !27349
  call void @llvm.memcpy.p0i8.p0i8.i64(i8* align 8 %31, i8* align 8 %32, i64 12, i1 false), !dbg !27349
  %33 = getelementptr inbounds { i64, i32 }, { i64, i32 }* %15, i32 0, i32 0, !dbg !27349
  %34 = load i64, i64* %33, align 8, !dbg !27349
  %35 = getelementptr inbounds { i64, i32 }, { i64, i32 }* %15, i32 0, i32 1, !dbg !27349
  %36 = load i32, i32* %35, align 8, !dbg !27349
  %37 = bitcast { i64, i32 }* %16 to i8*, !dbg !27349
  %38 = bitcast %struct.dim3* %12 to i8*, !dbg !27349
  call void @llvm.memcpy.p0i8.p0i8.i64(i8* align 8 %37, i8* align 8 %38, i64 12, i1 false), !dbg !27349
  %39 = getelementptr inbounds { i64, i32 }, { i64, i32 }* %16, i32 0, i32 0, !dbg !27349
  %40 = load i64, i64* %39, align 8, !dbg !27349
  %41 = getelementptr inbounds { i64, i32 }, { i64, i32 }* %16, i32 0, i32 1, !dbg !27349
  %42 = load i32, i32* %41, align 8, !dbg !27349
  %43 = bitcast i8* %30 to %struct.CUstream_st*, !dbg !27349
  %44 = call i32 @cudaLaunchKernel(i8* bitcast (void (%"class.caffe2::TypeMeta"*, i8*, float*, i32*, i32)* @_Z51__device_stub__dynamic_scaled_int8_azp_quant_kernelIN3c104HalfEfiEvPKT_PaPT0_PT1_i to i8*), i64 %34, i32 %36, i64 %40, i32 %42, i8** %17, i64 %29, %struct.CUstream_st* %43), !dbg !27349
  br label %45, !dbg !27349

45:                                               ; preds = %5
  ret void, !dbg !27350
}

; Function Attrs: noinline norecurse optnone uwtable
define linkonce_odr dso_local void @_Z51__device_stub__dynamic_scaled_int8_azp_quant_kernelIffiEvPKT_PaPT0_PT1_i(float* noalias %0, i8* noalias %1, float* %2, i32* %3, i32 %4) #10 !dbg !27351 {
  %6 = alloca float*, align 8
  %7 = alloca i8*, align 8
  %8 = alloca float*, align 8
  %9 = alloca i32*, align 8
  %10 = alloca i32, align 4
  %11 = alloca %struct.dim3, align 8
  %12 = alloca %struct.dim3, align 8
  %13 = alloca i64, align 8
  %14 = alloca i8*, align 8
  %15 = alloca { i64, i32 }, align 8
  %16 = alloca { i64, i32 }, align 8
  store float* %0, float** %6, align 8
  call void @llvm.dbg.declare(metadata float** %6, metadata !27352, metadata !DIExpression()), !dbg !27353
  store i8* %1, i8** %7, align 8
  call void @llvm.dbg.declare(metadata i8** %7, metadata !27354, metadata !DIExpression()), !dbg !27355
  store float* %2, float** %8, align 8
  call void @llvm.dbg.declare(metadata float** %8, metadata !27356, metadata !DIExpression()), !dbg !27357
  store i32* %3, i32** %9, align 8
  call void @llvm.dbg.declare(metadata i32** %9, metadata !27358, metadata !DIExpression()), !dbg !27359
  store i32 %4, i32* %10, align 4
  call void @llvm.dbg.declare(metadata i32* %10, metadata !27360, metadata !DIExpression()), !dbg !27361
  %17 = alloca i8*, i64 5, align 16, !dbg !27362
  %18 = bitcast float** %6 to i8*, !dbg !27362
  %19 = getelementptr i8*, i8** %17, i32 0, !dbg !27362
  store i8* %18, i8** %19, align 8, !dbg !27362
  %20 = bitcast i8** %7 to i8*, !dbg !27362
  %21 = getelementptr i8*, i8** %17, i32 1, !dbg !27362
  store i8* %20, i8** %21, align 8, !dbg !27362
  %22 = bitcast float** %8 to i8*, !dbg !27362
  %23 = getelementptr i8*, i8** %17, i32 2, !dbg !27362
  store i8* %22, i8** %23, align 8, !dbg !27362
  %24 = bitcast i32** %9 to i8*, !dbg !27362
  %25 = getelementptr i8*, i8** %17, i32 3, !dbg !27362
  store i8* %24, i8** %25, align 8, !dbg !27362
  %26 = bitcast i32* %10 to i8*, !dbg !27362
  %27 = getelementptr i8*, i8** %17, i32 4, !dbg !27362
  store i8* %26, i8** %27, align 8, !dbg !27362
  %28 = call i32 @__cudaPopCallConfiguration(%struct.dim3* %11, %struct.dim3* %12, i64* %13, i8** %14), !dbg !27362
  %29 = load i64, i64* %13, align 8, !dbg !27362
  %30 = load i8*, i8** %14, align 8, !dbg !27362
  %31 = bitcast { i64, i32 }* %15 to i8*, !dbg !27362
  %32 = bitcast %struct.dim3* %11 to i8*, !dbg !27362
  call void @llvm.memcpy.p0i8.p0i8.i64(i8* align 8 %31, i8* align 8 %32, i64 12, i1 false), !dbg !27362
  %33 = getelementptr inbounds { i64, i32 }, { i64, i32 }* %15, i32 0, i32 0, !dbg !27362
  %34 = load i64, i64* %33, align 8, !dbg !27362
  %35 = getelementptr inbounds { i64, i32 }, { i64, i32 }* %15, i32 0, i32 1, !dbg !27362
  %36 = load i32, i32* %35, align 8, !dbg !27362
  %37 = bitcast { i64, i32 }* %16 to i8*, !dbg !27362
  %38 = bitcast %struct.dim3* %12 to i8*, !dbg !27362
  call void @llvm.memcpy.p0i8.p0i8.i64(i8* align 8 %37, i8* align 8 %38, i64 12, i1 false), !dbg !27362
  %39 = getelementptr inbounds { i64, i32 }, { i64, i32 }* %16, i32 0, i32 0, !dbg !27362
  %40 = load i64, i64* %39, align 8, !dbg !27362
  %41 = getelementptr inbounds { i64, i32 }, { i64, i32 }* %16, i32 0, i32 1, !dbg !27362
  %42 = load i32, i32* %41, align 8, !dbg !27362
  %43 = bitcast i8* %30 to %struct.CUstream_st*, !dbg !27362
  %44 = call i32 @cudaLaunchKernel(i8* bitcast (void (float*, i8*, float*, i32*, i32)* @_Z51__device_stub__dynamic_scaled_int8_azp_quant_kernelIffiEvPKT_PaPT0_PT1_i to i8*), i64 %34, i32 %36, i64 %40, i32 %42, i8** %17, i64 %29, %struct.CUstream_st* %43), !dbg !27362
  br label %45, !dbg !27362

45:                                               ; preds = %5
  ret void, !dbg !27363
}

; Function Attrs: mustprogress noinline nounwind optnone uwtable
define linkonce_odr dso_local %"struct.c10::TensorImpl"* @_ZNK3c1013intrusive_ptrINS_10TensorImplENS_19UndefinedTensorImplEEptEv(%"class.c10::intrusive_ptr"* nonnull align 8 dereferenceable(8) %0) #6 comdat align 2 !dbg !27364 {
  %2 = alloca %"class.c10::intrusive_ptr"*, align 8
  store %"class.c10::intrusive_ptr"* %0, %"class.c10::intrusive_ptr"** %2, align 8
  call void @llvm.dbg.declare(metadata %"class.c10::intrusive_ptr"** %2, metadata !27372, metadata !DIExpression()), !dbg !27374
  %3 = load %"class.c10::intrusive_ptr"*, %"class.c10::intrusive_ptr"** %2, align 8
  %4 = getelementptr inbounds %"class.c10::intrusive_ptr", %"class.c10::intrusive_ptr"* %3, i32 0, i32 0, !dbg !27375
  %5 = load %"struct.c10::TensorImpl"*, %"struct.c10::TensorImpl"** %4, align 8, !dbg !27375
  ret %"struct.c10::TensorImpl"* %5, !dbg !27376
}

; Function Attrs: mustprogress noinline nounwind optnone uwtable
define linkonce_odr dso_local i16 @_ZNK3c1010TensorImpl5dtypeEv(%"struct.c10::TensorImpl"* nonnull align 8 dereferenceable(184) %0) #6 comdat align 2 !dbg !27377 {
  %2 = alloca %"class.caffe2::TypeMeta", align 2
  %3 = alloca %"struct.c10::TensorImpl"*, align 8
  store %"struct.c10::TensorImpl"* %0, %"struct.c10::TensorImpl"** %3, align 8
  call void @llvm.dbg.declare(metadata %"struct.c10::TensorImpl"** %3, metadata !27386, metadata !DIExpression()), !dbg !27388
  %4 = load %"struct.c10::TensorImpl"*, %"struct.c10::TensorImpl"** %3, align 8
  %5 = getelementptr inbounds %"struct.c10::TensorImpl", %"struct.c10::TensorImpl"* %4, i32 0, i32 9, !dbg !27389
  %6 = bitcast %"class.caffe2::TypeMeta"* %2 to i8*, !dbg !27389
  %7 = bitcast %"class.caffe2::TypeMeta"* %5 to i8*, !dbg !27389
  call void @llvm.memcpy.p0i8.p0i8.i64(i8* align 2 %6, i8* align 8 %7, i64 2, i1 false), !dbg !27389
  %8 = getelementptr inbounds %"class.caffe2::TypeMeta", %"class.caffe2::TypeMeta"* %2, i32 0, i32 0, !dbg !27390
  %9 = load i16, i16* %8, align 2, !dbg !27390
  ret i16 %9, !dbg !27390
}

; Function Attrs: mustprogress noinline optnone uwtable
define linkonce_odr dso_local signext i8 @_ZN3c1020typeMetaToScalarTypeEN6caffe28TypeMetaE(i16 %0) #4 comdat !dbg !27391 {
  %2 = alloca %"class.caffe2::TypeMeta", align 2
  %3 = getelementptr inbounds %"class.caffe2::TypeMeta", %"class.caffe2::TypeMeta"* %2, i32 0, i32 0
  store i16 %0, i16* %3, align 2
  call void @llvm.dbg.declare(metadata %"class.caffe2::TypeMeta"* %2, metadata !27395, metadata !DIExpression()), !dbg !27396
  %4 = call signext i8 @_ZN6caffe28TypeMeta12toScalarTypeEv(%"class.caffe2::TypeMeta"* nonnull align 2 dereferenceable(2) %2), !dbg !27397
  ret i8 %4, !dbg !27398
}

; Function Attrs: mustprogress noinline optnone uwtable
define linkonce_odr dso_local signext i8 @_ZN6caffe28TypeMeta12toScalarTypeEv(%"class.caffe2::TypeMeta"* nonnull align 2 dereferenceable(2) %0) #4 comdat align 2 !dbg !27399 {
  %2 = alloca %"class.caffe2::TypeMeta"*, align 8
  %3 = alloca %"class.caffe2::TypeMeta", align 2
  store %"class.caffe2::TypeMeta"* %0, %"class.caffe2::TypeMeta"** %2, align 8
  call void @llvm.dbg.declare(metadata %"class.caffe2::TypeMeta"** %2, metadata !27404, metadata !DIExpression()), !dbg !27406
  %4 = load %"class.caffe2::TypeMeta"*, %"class.caffe2::TypeMeta"** %2, align 8
  %5 = call zeroext i1 @_ZNK6caffe28TypeMeta12isScalarTypeEv(%"class.caffe2::TypeMeta"* nonnull align 2 dereferenceable(2) %4) #3, !dbg !27407
  br i1 %5, label %6, label %10, !dbg !27409

6:                                                ; preds = %1
  %7 = getelementptr inbounds %"class.caffe2::TypeMeta", %"class.caffe2::TypeMeta"* %4, i32 0, i32 0, !dbg !27410
  %8 = load i16, i16* %7, align 2, !dbg !27410
  %9 = trunc i16 %8 to i8, !dbg !27412
  ret i8 %9, !dbg !27413

10:                                               ; preds = %1
  %11 = bitcast %"class.caffe2::TypeMeta"* %3 to i8*, !dbg !27414
  %12 = bitcast %"class.caffe2::TypeMeta"* %4 to i8*, !dbg !27414
  call void @llvm.memcpy.p0i8.p0i8.i64(i8* align 2 %11, i8* align 2 %12, i64 2, i1 false), !dbg !27414
  %13 = getelementptr inbounds %"class.caffe2::TypeMeta", %"class.caffe2::TypeMeta"* %3, i32 0, i32 0, !dbg !27415
  %14 = load i16, i16* %13, align 2, !dbg !27415
  call void @_ZN6caffe28TypeMeta26error_unsupported_typemetaES0_(i16 %14) #18, !dbg !27415
  unreachable, !dbg !27415
}

; Function Attrs: mustprogress noinline nounwind optnone uwtable
define linkonce_odr dso_local zeroext i1 @_ZNK6caffe28TypeMeta12isScalarTypeEv(%"class.caffe2::TypeMeta"* nonnull align 2 dereferenceable(2) %0) #6 comdat align 2 !dbg !27416 {
  %2 = alloca %"class.caffe2::TypeMeta"*, align 8
  store %"class.caffe2::TypeMeta"* %0, %"class.caffe2::TypeMeta"** %2, align 8
  call void @llvm.dbg.declare(metadata %"class.caffe2::TypeMeta"** %2, metadata !27421, metadata !DIExpression()), !dbg !27423
  %3 = load %"class.caffe2::TypeMeta"*, %"class.caffe2::TypeMeta"** %2, align 8
  %4 = getelementptr inbounds %"class.caffe2::TypeMeta", %"class.caffe2::TypeMeta"* %3, i32 0, i32 0, !dbg !27424
  %5 = load i16, i16* %4, align 2, !dbg !27424
  %6 = zext i16 %5 to i32, !dbg !27424
  %7 = icmp slt i32 %6, 46, !dbg !27425
  ret i1 %7, !dbg !27426
}

; Function Attrs: noreturn
declare dso_local void @_ZN6caffe28TypeMeta26error_unsupported_typemetaES0_(i16) #7

; Function Attrs: mustprogress noinline optnone uwtable
define linkonce_odr dso_local i64 @_ZNK3c1010TensorImpl5numelEv(%"struct.c10::TensorImpl"* nonnull align 8 dereferenceable(184) %0) #4 comdat align 2 !dbg !27427 {
  %2 = alloca i64, align 8
  %3 = alloca %"struct.c10::TensorImpl"*, align 8
  store %"struct.c10::TensorImpl"* %0, %"struct.c10::TensorImpl"** %3, align 8
  call void @llvm.dbg.declare(metadata %"struct.c10::TensorImpl"** %3, metadata !27431, metadata !DIExpression()), !dbg !27432
  %4 = load %"struct.c10::TensorImpl"*, %"struct.c10::TensorImpl"** %3, align 8
  %5 = call zeroext i1 @_ZNK3c1010TensorImpl14matches_policyENS0_18SizesStridesPolicyE(%"struct.c10::TensorImpl"* nonnull align 8 dereferenceable(184) %4, i8 zeroext 2), !dbg !27433
  br i1 %5, label %6, label %12, !dbg !27435

6:                                                ; preds = %1
  %7 = bitcast %"struct.c10::TensorImpl"* %4 to i64 (%"struct.c10::TensorImpl"*)***, !dbg !27436
  %8 = load i64 (%"struct.c10::TensorImpl"*)**, i64 (%"struct.c10::TensorImpl"*)*** %7, align 8, !dbg !27436
  %9 = getelementptr inbounds i64 (%"struct.c10::TensorImpl"*)*, i64 (%"struct.c10::TensorImpl"*)** %8, i64 10, !dbg !27436
  %10 = load i64 (%"struct.c10::TensorImpl"*)*, i64 (%"struct.c10::TensorImpl"*)** %9, align 8, !dbg !27436
  %11 = call i64 %10(%"struct.c10::TensorImpl"* nonnull align 8 dereferenceable(184) %4), !dbg !27436
  store i64 %11, i64* %2, align 8, !dbg !27438
  br label %15, !dbg !27438

12:                                               ; preds = %1
  %13 = getelementptr inbounds %"struct.c10::TensorImpl", %"struct.c10::TensorImpl"* %4, i32 0, i32 8, !dbg !27439
  %14 = load i64, i64* %13, align 8, !dbg !27439
  store i64 %14, i64* %2, align 8, !dbg !27440
  br label %15, !dbg !27440

15:                                               ; preds = %12, %6
  %16 = load i64, i64* %2, align 8, !dbg !27441
  ret i64 %16, !dbg !27441
}

; Function Attrs: mustprogress noinline nounwind optnone uwtable
define linkonce_odr dso_local zeroext i1 @_ZNK3c1010TensorImpl14matches_policyENS0_18SizesStridesPolicyE(%"struct.c10::TensorImpl"* nonnull align 8 dereferenceable(184) %0, i8 zeroext %1) #6 comdat align 2 !dbg !27442 {
  %3 = alloca %"struct.c10::TensorImpl"*, align 8
  %4 = alloca i8, align 1
  store %"struct.c10::TensorImpl"* %0, %"struct.c10::TensorImpl"** %3, align 8
  call void @llvm.dbg.declare(metadata %"struct.c10::TensorImpl"** %3, metadata !27446, metadata !DIExpression()), !dbg !27447
  store i8 %1, i8* %4, align 1
  call void @llvm.dbg.declare(metadata i8* %4, metadata !27448, metadata !DIExpression()), !dbg !27449
  %5 = load %"struct.c10::TensorImpl"*, %"struct.c10::TensorImpl"** %3, align 8
  %6 = getelementptr inbounds %"struct.c10::TensorImpl", %"struct.c10::TensorImpl"* %5, i32 0, i32 11, !dbg !27450
  %7 = bitcast [3 x i8]* %6 to i24*, !dbg !27450
  %8 = load i24, i24* %7, align 1, !dbg !27450
  %9 = lshr i24 %8, 10, !dbg !27450
  %10 = and i24 %9, 3, !dbg !27450
  %11 = trunc i24 %10 to i8, !dbg !27450
  %12 = zext i8 %11 to i32, !dbg !27450
  %13 = load i8, i8* %4, align 1, !dbg !27451
  %14 = zext i8 %13 to i32, !dbg !27452
  %15 = icmp sge i32 %12, %14, !dbg !27453
  ret i1 %15, !dbg !27454
}

; Function Attrs: mustprogress noinline optnone uwtable
define linkonce_odr dso_local i64 @_ZNK3c1010TensorImpl4sizeEl(%"struct.c10::TensorImpl"* nonnull align 8 dereferenceable(184) %0, i64 %1) #4 comdat align 2 !dbg !27455 {
  %3 = alloca i64, align 8
  %4 = alloca %"struct.c10::TensorImpl"*, align 8
  %5 = alloca i64, align 8
  store %"struct.c10::TensorImpl"* %0, %"struct.c10::TensorImpl"** %4, align 8
  call void @llvm.dbg.declare(metadata %"struct.c10::TensorImpl"** %4, metadata !27459, metadata !DIExpression()), !dbg !27460
  store i64 %1, i64* %5, align 8
  call void @llvm.dbg.declare(metadata i64* %5, metadata !27461, metadata !DIExpression()), !dbg !27462
  %6 = load %"struct.c10::TensorImpl"*, %"struct.c10::TensorImpl"** %4, align 8
  %7 = call zeroext i1 @_ZNK3c1010TensorImpl14matches_policyENS0_18SizesStridesPolicyE(%"struct.c10::TensorImpl"* nonnull align 8 dereferenceable(184) %6, i8 zeroext 2), !dbg !27463
  br i1 %7, label %8, label %15, !dbg !27465

8:                                                ; preds = %2
  %9 = load i64, i64* %5, align 8, !dbg !27466
  %10 = bitcast %"struct.c10::TensorImpl"* %6 to i64 (%"struct.c10::TensorImpl"*, i64)***, !dbg !27468
  %11 = load i64 (%"struct.c10::TensorImpl"*, i64)**, i64 (%"struct.c10::TensorImpl"*, i64)*** %10, align 8, !dbg !27468
  %12 = getelementptr inbounds i64 (%"struct.c10::TensorImpl"*, i64)*, i64 (%"struct.c10::TensorImpl"*, i64)** %11, i64 6, !dbg !27468
  %13 = load i64 (%"struct.c10::TensorImpl"*, i64)*, i64 (%"struct.c10::TensorImpl"*, i64)** %12, align 8, !dbg !27468
  %14 = call i64 %13(%"struct.c10::TensorImpl"* nonnull align 8 dereferenceable(184) %6, i64 %9), !dbg !27468
  store i64 %14, i64* %3, align 8, !dbg !27469
  br label %22, !dbg !27469

15:                                               ; preds = %2
  %16 = load i64, i64* %5, align 8, !dbg !27470
  %17 = call i64 @_ZNK3c1010TensorImpl3dimEv(%"struct.c10::TensorImpl"* nonnull align 8 dereferenceable(184) %6), !dbg !27471
  %18 = call i64 @_ZN3c1014maybe_wrap_dimEllb(i64 %16, i64 %17, i1 zeroext false), !dbg !27472
  store i64 %18, i64* %5, align 8, !dbg !27473
  %19 = getelementptr inbounds %"struct.c10::TensorImpl", %"struct.c10::TensorImpl"* %6, i32 0, i32 6, !dbg !27474
  %20 = load i64, i64* %5, align 8, !dbg !27475
  %21 = call i64 @_ZNK3c104impl15SizesAndStrides17size_at_uncheckedEm(%"class.c10::impl::SizesAndStrides"* nonnull align 8 dereferenceable(88) %19, i64 %20) #3, !dbg !27476
  store i64 %21, i64* %3, align 8, !dbg !27477
  br label %22, !dbg !27477

22:                                               ; preds = %15, %8
  %23 = load i64, i64* %3, align 8, !dbg !27478
  ret i64 %23, !dbg !27478
}

; Function Attrs: mustprogress noinline optnone uwtable
define linkonce_odr dso_local i64 @_ZNK3c1010TensorImpl3dimEv(%"struct.c10::TensorImpl"* nonnull align 8 dereferenceable(184) %0) #4 comdat align 2 !dbg !27479 {
  %2 = alloca i64, align 8
  %3 = alloca %"struct.c10::TensorImpl"*, align 8
  store %"struct.c10::TensorImpl"* %0, %"struct.c10::TensorImpl"** %3, align 8
  call void @llvm.dbg.declare(metadata %"struct.c10::TensorImpl"** %3, metadata !27481, metadata !DIExpression()), !dbg !27482
  %4 = load %"struct.c10::TensorImpl"*, %"struct.c10::TensorImpl"** %3, align 8
  %5 = call zeroext i1 @_ZNK3c1010TensorImpl14matches_policyENS0_18SizesStridesPolicyE(%"struct.c10::TensorImpl"* nonnull align 8 dereferenceable(184) %4, i8 zeroext 2), !dbg !27483
  br i1 %5, label %6, label %12, !dbg !27485

6:                                                ; preds = %1
  %7 = bitcast %"struct.c10::TensorImpl"* %4 to i64 (%"struct.c10::TensorImpl"*)***, !dbg !27486
  %8 = load i64 (%"struct.c10::TensorImpl"*)**, i64 (%"struct.c10::TensorImpl"*)*** %7, align 8, !dbg !27486
  %9 = getelementptr inbounds i64 (%"struct.c10::TensorImpl"*)*, i64 (%"struct.c10::TensorImpl"*)** %8, i64 12, !dbg !27486
  %10 = load i64 (%"struct.c10::TensorImpl"*)*, i64 (%"struct.c10::TensorImpl"*)** %9, align 8, !dbg !27486
  %11 = call i64 %10(%"struct.c10::TensorImpl"* nonnull align 8 dereferenceable(184) %4), !dbg !27486
  store i64 %11, i64* %2, align 8, !dbg !27488
  br label %15, !dbg !27488

12:                                               ; preds = %1
  %13 = getelementptr inbounds %"struct.c10::TensorImpl", %"struct.c10::TensorImpl"* %4, i32 0, i32 6, !dbg !27489
  %14 = call i64 @_ZNK3c104impl15SizesAndStrides4sizeEv(%"class.c10::impl::SizesAndStrides"* nonnull align 8 dereferenceable(88) %13) #3, !dbg !27490
  store i64 %14, i64* %2, align 8, !dbg !27491
  br label %15, !dbg !27491

15:                                               ; preds = %12, %6
  %16 = load i64, i64* %2, align 8, !dbg !27492
  ret i64 %16, !dbg !27492
}

; Function Attrs: mustprogress noinline optnone uwtable
define linkonce_odr dso_local i64 @_ZN3c1014maybe_wrap_dimEllb(i64 %0, i64 %1, i1 zeroext %2) #4 comdat !dbg !27493 {
  %4 = alloca i64, align 8
  %5 = alloca i64, align 8
  %6 = alloca i8, align 1
  store i64 %0, i64* %4, align 8
  call void @llvm.dbg.declare(metadata i64* %4, metadata !27496, metadata !DIExpression()), !dbg !27497
  store i64 %1, i64* %5, align 8
  call void @llvm.dbg.declare(metadata i64* %5, metadata !27498, metadata !DIExpression()), !dbg !27499
  %7 = zext i1 %2 to i8
  store i8 %7, i8* %6, align 1
  call void @llvm.dbg.declare(metadata i8* %6, metadata !27500, metadata !DIExpression()), !dbg !27501
  %8 = load i64, i64* %4, align 8, !dbg !27502
  %9 = load i64, i64* %5, align 8, !dbg !27503
  %10 = load i8, i8* %6, align 1, !dbg !27504
  %11 = trunc i8 %10 to i1, !dbg !27504
  %12 = call i64 @_ZN3c1015_maybe_wrap_dimIlEET_S1_S1_b(i64 %8, i64 %9, i1 zeroext %11), !dbg !27505
  ret i64 %12, !dbg !27506
}

; Function Attrs: mustprogress noinline nounwind optnone uwtable
define linkonce_odr dso_local i64 @_ZNK3c104impl15SizesAndStrides17size_at_uncheckedEm(%"class.c10::impl::SizesAndStrides"* nonnull align 8 dereferenceable(88) %0, i64 %1) #6 comdat align 2 !dbg !27507 {
  %3 = alloca %"class.c10::impl::SizesAndStrides"*, align 8
  %4 = alloca i64, align 8
  store %"class.c10::impl::SizesAndStrides"* %0, %"class.c10::impl::SizesAndStrides"** %3, align 8
  call void @llvm.dbg.declare(metadata %"class.c10::impl::SizesAndStrides"** %3, metadata !27516, metadata !DIExpression()), !dbg !27518
  store i64 %1, i64* %4, align 8
  call void @llvm.dbg.declare(metadata i64* %4, metadata !27519, metadata !DIExpression()), !dbg !27520
  %5 = load %"class.c10::impl::SizesAndStrides"*, %"class.c10::impl::SizesAndStrides"** %3, align 8
  %6 = call i64* @_ZNK3c104impl15SizesAndStrides10sizes_dataEv(%"class.c10::impl::SizesAndStrides"* nonnull align 8 dereferenceable(88) %5) #3, !dbg !27521
  %7 = load i64, i64* %4, align 8, !dbg !27522
  %8 = getelementptr inbounds i64, i64* %6, i64 %7, !dbg !27521
  %9 = load i64, i64* %8, align 8, !dbg !27521
  ret i64 %9, !dbg !27523
}

; Function Attrs: mustprogress noinline nounwind optnone uwtable
define linkonce_odr dso_local i64* @_ZNK3c104impl15SizesAndStrides10sizes_dataEv(%"class.c10::impl::SizesAndStrides"* nonnull align 8 dereferenceable(88) %0) #6 comdat align 2 !dbg !27524 {
  %2 = alloca i64*, align 8
  %3 = alloca %"class.c10::impl::SizesAndStrides"*, align 8
  store %"class.c10::impl::SizesAndStrides"* %0, %"class.c10::impl::SizesAndStrides"** %3, align 8
  call void @llvm.dbg.declare(metadata %"class.c10::impl::SizesAndStrides"** %3, metadata !27530, metadata !DIExpression()), !dbg !27531
  %4 = load %"class.c10::impl::SizesAndStrides"*, %"class.c10::impl::SizesAndStrides"** %3, align 8
  %5 = call zeroext i1 @_ZNK3c104impl15SizesAndStrides8isInlineEv(%"class.c10::impl::SizesAndStrides"* nonnull align 8 dereferenceable(88) %4) #3, !dbg !27532
  br i1 %5, label %6, label %10, !dbg !27534

6:                                                ; preds = %1
  %7 = getelementptr inbounds %"class.c10::impl::SizesAndStrides", %"class.c10::impl::SizesAndStrides"* %4, i32 0, i32 1, !dbg !27535
  %8 = bitcast %union.anon.52* %7 to [10 x i64]*, !dbg !27535
  %9 = getelementptr inbounds [10 x i64], [10 x i64]* %8, i64 0, i64 0, !dbg !27535
  store i64* %9, i64** %2, align 8, !dbg !27537
  br label %15, !dbg !27537

10:                                               ; preds = %1
  %11 = getelementptr inbounds %"class.c10::impl::SizesAndStrides", %"class.c10::impl::SizesAndStrides"* %4, i32 0, i32 1, !dbg !27538
  %12 = bitcast %union.anon.52* %11 to i64**, !dbg !27538
  %13 = load i64*, i64** %12, align 8, !dbg !27538
  %14 = getelementptr inbounds i64, i64* %13, i64 0, !dbg !27538
  store i64* %14, i64** %2, align 8, !dbg !27540
  br label %15, !dbg !27540

15:                                               ; preds = %10, %6
  %16 = load i64*, i64** %2, align 8, !dbg !27541
  ret i64* %16, !dbg !27541
}

; Function Attrs: mustprogress noinline nounwind optnone uwtable
define linkonce_odr dso_local zeroext i1 @_ZNK3c104impl15SizesAndStrides8isInlineEv(%"class.c10::impl::SizesAndStrides"* nonnull align 8 dereferenceable(88) %0) #6 comdat align 2 !dbg !27542 {
  %2 = alloca %"class.c10::impl::SizesAndStrides"*, align 8
  store %"class.c10::impl::SizesAndStrides"* %0, %"class.c10::impl::SizesAndStrides"** %2, align 8
  call void @llvm.dbg.declare(metadata %"class.c10::impl::SizesAndStrides"** %2, metadata !27546, metadata !DIExpression()), !dbg !27547
  %3 = load %"class.c10::impl::SizesAndStrides"*, %"class.c10::impl::SizesAndStrides"** %2, align 8
  %4 = getelementptr inbounds %"class.c10::impl::SizesAndStrides", %"class.c10::impl::SizesAndStrides"* %3, i32 0, i32 0, !dbg !27548
  %5 = load i64, i64* %4, align 8, !dbg !27548
  %6 = icmp ule i64 %5, 5, !dbg !27549
  ret i1 %6, !dbg !27550
}

; Function Attrs: mustprogress noinline optnone uwtable
define linkonce_odr dso_local i64 @_ZN3c1015_maybe_wrap_dimIlEET_S1_S1_b(i64 %0, i64 %1, i1 zeroext %2) #4 comdat !dbg !27551 {
  %4 = alloca i64, align 8
  %5 = alloca i64, align 8
  %6 = alloca i64, align 8
  %7 = alloca i8, align 1
  store i64 %0, i64* %5, align 8
  call void @llvm.dbg.declare(metadata i64* %5, metadata !27556, metadata !DIExpression()), !dbg !27557
  store i64 %1, i64* %6, align 8
  call void @llvm.dbg.declare(metadata i64* %6, metadata !27558, metadata !DIExpression()), !dbg !27559
  %8 = zext i1 %2 to i8
  store i8 %8, i8* %7, align 1
  call void @llvm.dbg.declare(metadata i8* %7, metadata !27560, metadata !DIExpression()), !dbg !27561
  %9 = load i64, i64* %6, align 8, !dbg !27562
  %10 = mul nsw i64 %9, -1, !dbg !27562
  %11 = load i64, i64* %5, align 8, !dbg !27562
  %12 = icmp sle i64 %10, %11, !dbg !27562
  br i1 %12, label %13, label %17, !dbg !27562

13:                                               ; preds = %3
  %14 = load i64, i64* %5, align 8, !dbg !27562
  %15 = load i64, i64* %6, align 8, !dbg !27562
  %16 = icmp slt i64 %14, %15, !dbg !27562
  br label %17

17:                                               ; preds = %13, %3
  %18 = phi i1 [ false, %3 ], [ %16, %13 ], !dbg !27564
  br i1 %18, label %19, label %28, !dbg !27565

19:                                               ; preds = %17
  %20 = load i64, i64* %5, align 8, !dbg !27566
  %21 = icmp slt i64 %20, 0, !dbg !27569
  br i1 %21, label %22, label %26, !dbg !27570

22:                                               ; preds = %19
  %23 = load i64, i64* %5, align 8, !dbg !27571
  %24 = load i64, i64* %6, align 8, !dbg !27573
  %25 = add nsw i64 %23, %24, !dbg !27574
  store i64 %25, i64* %4, align 8, !dbg !27575
  br label %36, !dbg !27575

26:                                               ; preds = %19
  %27 = load i64, i64* %5, align 8, !dbg !27576
  store i64 %27, i64* %4, align 8, !dbg !27577
  br label %36, !dbg !27577

28:                                               ; preds = %17
  %29 = call nonnull align 8 dereferenceable(8) i64* @_ZSt4moveIRlEONSt16remove_referenceIT_E4typeEOS2_(i64* nonnull align 8 dereferenceable(8) %5) #3, !dbg !27578
  %30 = load i64, i64* %29, align 8, !dbg !27578
  %31 = call nonnull align 8 dereferenceable(8) i64* @_ZSt4moveIRlEONSt16remove_referenceIT_E4typeEOS2_(i64* nonnull align 8 dereferenceable(8) %6) #3, !dbg !27579
  %32 = load i64, i64* %31, align 8, !dbg !27579
  %33 = load i8, i8* %7, align 1, !dbg !27580
  %34 = trunc i8 %33 to i1, !dbg !27580
  %35 = call i64 @_ZN3c106detail19maybe_wrap_dim_slowIlEET_S2_S2_b(i64 %30, i64 %32, i1 zeroext %34), !dbg !27581
  store i64 %35, i64* %4, align 8, !dbg !27582
  br label %36, !dbg !27582

36:                                               ; preds = %28, %26, %22
  %37 = load i64, i64* %4, align 8, !dbg !27583
  ret i64 %37, !dbg !27583
}

; Function Attrs: mustprogress noinline nounwind optnone uwtable
define linkonce_odr dso_local nonnull align 8 dereferenceable(8) i64* @_ZSt4moveIRlEONSt16remove_referenceIT_E4typeEOS2_(i64* nonnull align 8 dereferenceable(8) %0) #6 comdat !dbg !27584 {
  %2 = alloca i64*, align 8
  store i64* %0, i64** %2, align 8
  call void @llvm.dbg.declare(metadata i64** %2, metadata !27594, metadata !DIExpression()), !dbg !27595
  %3 = load i64*, i64** %2, align 8, !dbg !27596
  ret i64* %3, !dbg !27597
}

declare dso_local i64 @_ZN3c106detail19maybe_wrap_dim_slowIlEET_S2_S2_b(i64, i64, i1 zeroext) #1

; Function Attrs: mustprogress noinline nounwind optnone uwtable
define linkonce_odr dso_local i64 @_ZNK3c104impl15SizesAndStrides4sizeEv(%"class.c10::impl::SizesAndStrides"* nonnull align 8 dereferenceable(88) %0) #6 comdat align 2 !dbg !27598 {
  %2 = alloca %"class.c10::impl::SizesAndStrides"*, align 8
  store %"class.c10::impl::SizesAndStrides"* %0, %"class.c10::impl::SizesAndStrides"** %2, align 8
  call void @llvm.dbg.declare(metadata %"class.c10::impl::SizesAndStrides"** %2, metadata !27602, metadata !DIExpression()), !dbg !27603
  %3 = load %"class.c10::impl::SizesAndStrides"*, %"class.c10::impl::SizesAndStrides"** %2, align 8
  %4 = getelementptr inbounds %"class.c10::impl::SizesAndStrides", %"class.c10::impl::SizesAndStrides"* %3, i32 0, i32 0, !dbg !27604
  %5 = load i64, i64* %4, align 8, !dbg !27604
  ret i64 %5, !dbg !27605
}

; Function Attrs: mustprogress noinline nounwind optnone uwtable
define linkonce_odr dso_local nonnull align 8 dereferenceable(8) %"class.at::Tensor"* @_ZNKSt19_Optional_base_implIN2at6TensorESt14_Optional_baseIS1_Lb0ELb0EEE6_M_getEv(%"class.std::ios_base::Init"* nonnull align 1 dereferenceable(1) %0) #6 comdat align 2 !dbg !27606 {
  %2 = alloca %"class.std::ios_base::Init"*, align 8
  store %"class.std::ios_base::Init"* %0, %"class.std::ios_base::Init"** %2, align 8
  call void @llvm.dbg.declare(metadata %"class.std::ios_base::Init"** %2, metadata !27607, metadata !DIExpression()), !dbg !27609
  %3 = load %"class.std::ios_base::Init"*, %"class.std::ios_base::Init"** %2, align 8
  br label %4, !dbg !27610

4:                                                ; preds = %1
  br label %5, !dbg !27611

5:                                                ; preds = %4
  br label %6, !dbg !27611

6:                                                ; preds = %5
  %7 = bitcast %"class.std::ios_base::Init"* %3 to %"struct.std::_Optional_base.60"*, !dbg !27613
  %8 = getelementptr inbounds %"struct.std::_Optional_base.60", %"struct.std::_Optional_base.60"* %7, i32 0, i32 0, !dbg !27614
  %9 = bitcast %"struct.std::_Optional_payload.62"* %8 to %"struct.std::_Optional_payload_base.64"*, !dbg !27613
  %10 = call nonnull align 8 dereferenceable(8) %"class.at::Tensor"* @_ZNKSt22_Optional_payload_baseIN2at6TensorEE6_M_getEv(%"struct.std::_Optional_payload_base.64"* nonnull align 8 dereferenceable(9) %9) #3, !dbg !27615
  ret %"class.at::Tensor"* %10, !dbg !27616
}

; Function Attrs: mustprogress noinline nounwind optnone uwtable
define linkonce_odr dso_local %"class.at::Tensor"* @_ZSt11__addressofIKN2at6TensorEEPT_RS3_(%"class.at::Tensor"* nonnull align 8 dereferenceable(8) %0) #6 comdat !dbg !27617 {
  %2 = alloca %"class.at::Tensor"*, align 8
  store %"class.at::Tensor"* %0, %"class.at::Tensor"** %2, align 8
  call void @llvm.dbg.declare(metadata %"class.at::Tensor"** %2, metadata !27622, metadata !DIExpression()), !dbg !27623
  %3 = load %"class.at::Tensor"*, %"class.at::Tensor"** %2, align 8, !dbg !27624
  ret %"class.at::Tensor"* %3, !dbg !27625
}

; Function Attrs: mustprogress noinline nounwind optnone uwtable
define linkonce_odr dso_local nonnull align 8 dereferenceable(8) %"class.at::Tensor"* @_ZNKSt22_Optional_payload_baseIN2at6TensorEE6_M_getEv(%"struct.std::_Optional_payload_base.64"* nonnull align 8 dereferenceable(9) %0) #6 comdat align 2 !dbg !27626 {
  %2 = alloca %"struct.std::_Optional_payload_base.64"*, align 8
  store %"struct.std::_Optional_payload_base.64"* %0, %"struct.std::_Optional_payload_base.64"** %2, align 8
  call void @llvm.dbg.declare(metadata %"struct.std::_Optional_payload_base.64"** %2, metadata !27627, metadata !DIExpression()), !dbg !27629
  %3 = load %"struct.std::_Optional_payload_base.64"*, %"struct.std::_Optional_payload_base.64"** %2, align 8
  %4 = getelementptr inbounds %"struct.std::_Optional_payload_base.64", %"struct.std::_Optional_payload_base.64"* %3, i32 0, i32 0, !dbg !27630
  %5 = bitcast %"union.std::_Optional_payload_base<at::Tensor>::_Storage"* %4 to %"class.at::Tensor"*, !dbg !27631
  ret %"class.at::Tensor"* %5, !dbg !27632
}

; Function Attrs: mustprogress noinline nounwind optnone uwtable
define linkonce_odr dso_local zeroext i1 @_ZNKSt19_Optional_base_implIN2at6TensorESt14_Optional_baseIS1_Lb0ELb0EEE13_M_is_engagedEv(%"class.std::ios_base::Init"* nonnull align 1 dereferenceable(1) %0) #6 comdat align 2 !dbg !27633 {
  %2 = alloca %"class.std::ios_base::Init"*, align 8
  store %"class.std::ios_base::Init"* %0, %"class.std::ios_base::Init"** %2, align 8
  call void @llvm.dbg.declare(metadata %"class.std::ios_base::Init"** %2, metadata !27634, metadata !DIExpression()), !dbg !27635
  %3 = load %"class.std::ios_base::Init"*, %"class.std::ios_base::Init"** %2, align 8
  %4 = bitcast %"class.std::ios_base::Init"* %3 to %"struct.std::_Optional_base.60"*, !dbg !27636
  %5 = getelementptr inbounds %"struct.std::_Optional_base.60", %"struct.std::_Optional_base.60"* %4, i32 0, i32 0, !dbg !27637
  %6 = bitcast %"struct.std::_Optional_payload.62"* %5 to %"struct.std::_Optional_payload_base.64"*, !dbg !27636
  %7 = getelementptr inbounds %"struct.std::_Optional_payload_base.64", %"struct.std::_Optional_payload_base.64"* %6, i32 0, i32 1, !dbg !27638
  %8 = load i8, i8* %7, align 8, !dbg !27638
  %9 = trunc i8 %8 to i1, !dbg !27638
  ret i1 %9, !dbg !27639
}

; Function Attrs: mustprogress noinline optnone uwtable
define linkonce_odr dso_local zeroext i1 @_ZNK3c1010TensorImpl13is_contiguousENS_12MemoryFormatE(%"struct.c10::TensorImpl"* nonnull align 8 dereferenceable(184) %0, i8 signext %1) #4 comdat align 2 !dbg !27640 {
  %3 = alloca i1, align 1
  %4 = alloca %"struct.c10::TensorImpl"*, align 8
  %5 = alloca i8, align 1
  store %"struct.c10::TensorImpl"* %0, %"struct.c10::TensorImpl"** %4, align 8
  call void @llvm.dbg.declare(metadata %"struct.c10::TensorImpl"** %4, metadata !27644, metadata !DIExpression()), !dbg !27645
  store i8 %1, i8* %5, align 1
  call void @llvm.dbg.declare(metadata i8* %5, metadata !27646, metadata !DIExpression()), !dbg !27647
  %6 = load %"struct.c10::TensorImpl"*, %"struct.c10::TensorImpl"** %4, align 8
  %7 = call zeroext i1 @_ZNK3c1010TensorImpl14matches_policyENS0_18SizesStridesPolicyE(%"struct.c10::TensorImpl"* nonnull align 8 dereferenceable(184) %6, i8 zeroext 1), !dbg !27648
  br i1 %7, label %8, label %15, !dbg !27650

8:                                                ; preds = %2
  %9 = load i8, i8* %5, align 1, !dbg !27651
  %10 = bitcast %"struct.c10::TensorImpl"* %6 to i1 (%"struct.c10::TensorImpl"*, i8)***, !dbg !27653
  %11 = load i1 (%"struct.c10::TensorImpl"*, i8)**, i1 (%"struct.c10::TensorImpl"*, i8)*** %10, align 8, !dbg !27653
  %12 = getelementptr inbounds i1 (%"struct.c10::TensorImpl"*, i8)*, i1 (%"struct.c10::TensorImpl"*, i8)** %11, i64 3, !dbg !27653
  %13 = load i1 (%"struct.c10::TensorImpl"*, i8)*, i1 (%"struct.c10::TensorImpl"*, i8)** %12, align 8, !dbg !27653
  %14 = call zeroext i1 %13(%"struct.c10::TensorImpl"* nonnull align 8 dereferenceable(184) %6, i8 signext %9), !dbg !27653
  store i1 %14, i1* %3, align 1, !dbg !27654
  br label %18, !dbg !27654

15:                                               ; preds = %2
  %16 = load i8, i8* %5, align 1, !dbg !27655
  %17 = call zeroext i1 @_ZNK3c1010TensorImpl21is_contiguous_defaultENS_12MemoryFormatE(%"struct.c10::TensorImpl"* nonnull align 8 dereferenceable(184) %6, i8 signext %16), !dbg !27656
  store i1 %17, i1* %3, align 1, !dbg !27657
  br label %18, !dbg !27657

18:                                               ; preds = %15, %8
  %19 = load i1, i1* %3, align 1, !dbg !27658
  ret i1 %19, !dbg !27658
}

; Function Attrs: mustprogress noinline optnone uwtable
define linkonce_odr dso_local zeroext i1 @_ZNK3c1010TensorImpl21is_contiguous_defaultENS_12MemoryFormatE(%"struct.c10::TensorImpl"* nonnull align 8 dereferenceable(184) %0, i8 signext %1) #4 comdat align 2 !dbg !27659 {
  %3 = alloca i1, align 1
  %4 = alloca %"struct.c10::TensorImpl"*, align 8
  %5 = alloca i8, align 1
  store %"struct.c10::TensorImpl"* %0, %"struct.c10::TensorImpl"** %4, align 8
  call void @llvm.dbg.declare(metadata %"struct.c10::TensorImpl"** %4, metadata !27661, metadata !DIExpression()), !dbg !27662
  store i8 %1, i8* %5, align 1
  call void @llvm.dbg.declare(metadata i8* %5, metadata !27663, metadata !DIExpression()), !dbg !27664
  %6 = load %"struct.c10::TensorImpl"*, %"struct.c10::TensorImpl"** %4, align 8
  %7 = getelementptr inbounds %"struct.c10::TensorImpl", %"struct.c10::TensorImpl"* %6, i32 0, i32 11, !dbg !27665
  %8 = bitcast [3 x i8]* %7 to i24*, !dbg !27665
  %9 = load i24, i24* %8, align 1, !dbg !27665
  %10 = lshr i24 %9, 12, !dbg !27665
  %11 = and i24 %10, 1, !dbg !27665
  %12 = trunc i24 %11 to i1, !dbg !27665
  br i1 %12, label %13, label %32, !dbg !27667

13:                                               ; preds = %2
  %14 = load i8, i8* %5, align 1, !dbg !27668
  %15 = icmp eq i8 %14, 2, !dbg !27671
  br i1 %15, label %16, label %20, !dbg !27672

16:                                               ; preds = %13
  %17 = call nonnull align 8 dereferenceable(272) %"class.c10::SymbolicShapeMeta"* @_ZNK3c1010TensorImpl19symbolic_shape_metaEv(%"struct.c10::TensorImpl"* nonnull align 8 dereferenceable(184) %6), !dbg !27673
  %18 = call nonnull align 8 dereferenceable(16) %"class.c10::SymBool"* @_ZNK3c1017SymbolicShapeMeta27is_channels_last_contiguousEv(%"class.c10::SymbolicShapeMeta"* nonnull align 8 dereferenceable(272) %17), !dbg !27675
  %19 = call zeroext i1 @_ZNK3c107SymBool10guard_boolEPKcl(%"class.c10::SymBool"* nonnull align 8 dereferenceable(16) %18, i8* getelementptr inbounds ([104 x i8], [104 x i8]* @.str.154, i64 0, i64 0), i64 836), !dbg !27676
  store i1 %19, i1* %3, align 1, !dbg !27677
  br label %59, !dbg !27677

20:                                               ; preds = %13
  %21 = load i8, i8* %5, align 1, !dbg !27678
  %22 = icmp eq i8 %21, 3, !dbg !27680
  br i1 %22, label %23, label %27, !dbg !27681

23:                                               ; preds = %20
  %24 = call nonnull align 8 dereferenceable(272) %"class.c10::SymbolicShapeMeta"* @_ZNK3c1010TensorImpl19symbolic_shape_metaEv(%"struct.c10::TensorImpl"* nonnull align 8 dereferenceable(184) %6), !dbg !27682
  %25 = call nonnull align 8 dereferenceable(16) %"class.c10::SymBool"* @_ZNK3c1017SymbolicShapeMeta30is_channels_last_3d_contiguousEv(%"class.c10::SymbolicShapeMeta"* nonnull align 8 dereferenceable(272) %24), !dbg !27684
  %26 = call zeroext i1 @_ZNK3c107SymBool10guard_boolEPKcl(%"class.c10::SymBool"* nonnull align 8 dereferenceable(16) %25, i8* getelementptr inbounds ([104 x i8], [104 x i8]* @.str.154, i64 0, i64 0), i64 840), !dbg !27685
  store i1 %26, i1* %3, align 1, !dbg !27686
  br label %59, !dbg !27686

27:                                               ; preds = %20
  br label %28

28:                                               ; preds = %27
  %29 = call nonnull align 8 dereferenceable(272) %"class.c10::SymbolicShapeMeta"* @_ZNK3c1010TensorImpl19symbolic_shape_metaEv(%"struct.c10::TensorImpl"* nonnull align 8 dereferenceable(184) %6), !dbg !27687
  %30 = call nonnull align 8 dereferenceable(16) %"class.c10::SymBool"* @_ZNK3c1017SymbolicShapeMeta13is_contiguousEv(%"class.c10::SymbolicShapeMeta"* nonnull align 8 dereferenceable(272) %29), !dbg !27688
  %31 = call zeroext i1 @_ZNK3c107SymBool10guard_boolEPKcl(%"class.c10::SymBool"* nonnull align 8 dereferenceable(16) %30, i8* getelementptr inbounds ([104 x i8], [104 x i8]* @.str.154, i64 0, i64 0), i64 843), !dbg !27689
  store i1 %31, i1* %3, align 1, !dbg !27690
  br label %59, !dbg !27690

32:                                               ; preds = %2
  %33 = load i8, i8* %5, align 1, !dbg !27691
  %34 = icmp eq i8 %33, 2, !dbg !27693
  br i1 %34, label %35, label %42, !dbg !27694

35:                                               ; preds = %32
  %36 = getelementptr inbounds %"struct.c10::TensorImpl", %"struct.c10::TensorImpl"* %6, i32 0, i32 11, !dbg !27695
  %37 = bitcast [3 x i8]* %36 to i24*, !dbg !27695
  %38 = load i24, i24* %37, align 1, !dbg !27695
  %39 = lshr i24 %38, 3, !dbg !27695
  %40 = and i24 %39, 1, !dbg !27695
  %41 = trunc i24 %40 to i1, !dbg !27695
  store i1 %41, i1* %3, align 1, !dbg !27697
  br label %59, !dbg !27697

42:                                               ; preds = %32
  %43 = load i8, i8* %5, align 1, !dbg !27698
  %44 = icmp eq i8 %43, 3, !dbg !27700
  br i1 %44, label %45, label %52, !dbg !27701

45:                                               ; preds = %42
  %46 = getelementptr inbounds %"struct.c10::TensorImpl", %"struct.c10::TensorImpl"* %6, i32 0, i32 11, !dbg !27702
  %47 = bitcast [3 x i8]* %46 to i24*, !dbg !27702
  %48 = load i24, i24* %47, align 1, !dbg !27702
  %49 = lshr i24 %48, 5, !dbg !27702
  %50 = and i24 %49, 1, !dbg !27702
  %51 = trunc i24 %50 to i1, !dbg !27702
  store i1 %51, i1* %3, align 1, !dbg !27704
  br label %59, !dbg !27704

52:                                               ; preds = %42
  br label %53

53:                                               ; preds = %52
  %54 = getelementptr inbounds %"struct.c10::TensorImpl", %"struct.c10::TensorImpl"* %6, i32 0, i32 11, !dbg !27705
  %55 = bitcast [3 x i8]* %54 to i24*, !dbg !27705
  %56 = load i24, i24* %55, align 1, !dbg !27705
  %57 = and i24 %56, 1, !dbg !27705
  %58 = trunc i24 %57 to i1, !dbg !27705
  store i1 %58, i1* %3, align 1, !dbg !27706
  br label %59, !dbg !27706

59:                                               ; preds = %53, %45, %35, %28, %23, %16
  %60 = load i1, i1* %3, align 1, !dbg !27707
  ret i1 %60, !dbg !27707
}

; Function Attrs: mustprogress noinline optnone uwtable
define linkonce_odr dso_local nonnull align 8 dereferenceable(272) %"class.c10::SymbolicShapeMeta"* @_ZNK3c1010TensorImpl19symbolic_shape_metaEv(%"struct.c10::TensorImpl"* nonnull align 8 dereferenceable(184) %0) #4 comdat align 2 !dbg !27708 {
  %2 = alloca %"struct.c10::TensorImpl"*, align 8
  %3 = alloca %"class.std::ios_base::Init", align 1
  %4 = alloca %"class.std::ios_base::Init", align 1
  store %"struct.c10::TensorImpl"* %0, %"struct.c10::TensorImpl"** %2, align 8
  call void @llvm.dbg.declare(metadata %"struct.c10::TensorImpl"** %2, metadata !27712, metadata !DIExpression()), !dbg !27713
  %5 = load %"struct.c10::TensorImpl"*, %"struct.c10::TensorImpl"** %2, align 8
  %6 = getelementptr inbounds %"struct.c10::TensorImpl", %"struct.c10::TensorImpl"* %5, i32 0, i32 3, !dbg !27714
  %7 = call zeroext i1 @_ZNKSt10unique_ptrIN3c109ExtraMetaESt14default_deleteIS1_EEcvbEv(%"class.std::unique_ptr.23"* nonnull align 8 dereferenceable(8) %6) #3, !dbg !27714
  br i1 %7, label %8, label %13, !dbg !27714

8:                                                ; preds = %1
  %9 = getelementptr inbounds %"struct.c10::TensorImpl", %"struct.c10::TensorImpl"* %5, i32 0, i32 3, !dbg !27714
  %10 = call %"struct.c10::ExtraMeta"* @_ZNKSt10unique_ptrIN3c109ExtraMetaESt14default_deleteIS1_EEptEv(%"class.std::unique_ptr.23"* nonnull align 8 dereferenceable(8) %9) #3, !dbg !27714
  %11 = getelementptr inbounds %"struct.c10::ExtraMeta", %"struct.c10::ExtraMeta"* %10, i32 0, i32 0, !dbg !27714
  %12 = call zeroext i1 @_ZNKSt10unique_ptrIN3c1017SymbolicShapeMetaESt14default_deleteIS1_EEcvbEv(%"class.std::unique_ptr.31"* nonnull align 8 dereferenceable(8) %11) #3, !dbg !27714
  br i1 %12, label %14, label %13, !dbg !27716

13:                                               ; preds = %8, %1
  call void @_ZN3c103strIJEEEDcDpRKT_(), !dbg !27717
  call void @_ZN3c106detail23torchInternalAssertFailEPKcS2_jS2_NS0_22CompileTimeEmptyStringE(i8* getelementptr inbounds ([20 x i8], [20 x i8]* @__func__._ZNK3c1010TensorImpl19symbolic_shape_metaEv, i64 0, i64 0), i8* getelementptr inbounds ([104 x i8], [104 x i8]* @.str.154, i64 0, i64 0), i32 1733, i8* getelementptr inbounds ([220 x i8], [220 x i8]* @.str.155, i64 0, i64 0)) #18, !dbg !27717
  unreachable, !dbg !27717

14:                                               ; preds = %8
  %15 = getelementptr inbounds %"struct.c10::TensorImpl", %"struct.c10::TensorImpl"* %5, i32 0, i32 3, !dbg !27719
  %16 = call %"struct.c10::ExtraMeta"* @_ZNKSt10unique_ptrIN3c109ExtraMetaESt14default_deleteIS1_EEptEv(%"class.std::unique_ptr.23"* nonnull align 8 dereferenceable(8) %15) #3, !dbg !27719
  %17 = getelementptr inbounds %"struct.c10::ExtraMeta", %"struct.c10::ExtraMeta"* %16, i32 0, i32 0, !dbg !27720
  %18 = call nonnull align 8 dereferenceable(272) %"class.c10::SymbolicShapeMeta"* @_ZNKSt10unique_ptrIN3c1017SymbolicShapeMetaESt14default_deleteIS1_EEdeEv(%"class.std::unique_ptr.31"* nonnull align 8 dereferenceable(8) %17), !dbg !27721
  ret %"class.c10::SymbolicShapeMeta"* %18, !dbg !27722
}

; Function Attrs: mustprogress noinline optnone uwtable
define linkonce_odr dso_local nonnull align 8 dereferenceable(16) %"class.c10::SymBool"* @_ZNK3c1017SymbolicShapeMeta27is_channels_last_contiguousEv(%"class.c10::SymbolicShapeMeta"* nonnull align 8 dereferenceable(272) %0) #4 comdat align 2 !dbg !27723 {
  %2 = alloca %"class.c10::SymbolicShapeMeta"*, align 8
  store %"class.c10::SymbolicShapeMeta"* %0, %"class.c10::SymbolicShapeMeta"** %2, align 8
  call void @llvm.dbg.declare(metadata %"class.c10::SymbolicShapeMeta"** %2, metadata !27724, metadata !DIExpression()), !dbg !27726
  %3 = load %"class.c10::SymbolicShapeMeta"*, %"class.c10::SymbolicShapeMeta"** %2, align 8
  %4 = call zeroext i1 @_ZNK3c1017SymbolicShapeMeta31has_is_channels_last_contiguousEv(%"class.c10::SymbolicShapeMeta"* nonnull align 8 dereferenceable(272) %3), !dbg !27727
  %5 = xor i1 %4, true, !dbg !27727
  br i1 %5, label %6, label %7, !dbg !27729

6:                                                ; preds = %1
  call void @_ZNK3c1017SymbolicShapeMeta32init_is_channels_last_contiguousEv(%"class.c10::SymbolicShapeMeta"* nonnull align 8 dereferenceable(272) %3), !dbg !27730
  br label %7, !dbg !27732

7:                                                ; preds = %6, %1
  %8 = getelementptr inbounds %"class.c10::SymbolicShapeMeta", %"class.c10::SymbolicShapeMeta"* %3, i32 0, i32 8, !dbg !27733
  ret %"class.c10::SymBool"* %8, !dbg !27734
}

declare dso_local zeroext i1 @_ZNK3c107SymBool10guard_boolEPKcl(%"class.c10::SymBool"* nonnull align 8 dereferenceable(16), i8*, i64) #1

; Function Attrs: mustprogress noinline optnone uwtable
define linkonce_odr dso_local nonnull align 8 dereferenceable(16) %"class.c10::SymBool"* @_ZNK3c1017SymbolicShapeMeta30is_channels_last_3d_contiguousEv(%"class.c10::SymbolicShapeMeta"* nonnull align 8 dereferenceable(272) %0) #4 comdat align 2 !dbg !27735 {
  %2 = alloca %"class.c10::SymbolicShapeMeta"*, align 8
  store %"class.c10::SymbolicShapeMeta"* %0, %"class.c10::SymbolicShapeMeta"** %2, align 8
  call void @llvm.dbg.declare(metadata %"class.c10::SymbolicShapeMeta"** %2, metadata !27736, metadata !DIExpression()), !dbg !27737
  %3 = load %"class.c10::SymbolicShapeMeta"*, %"class.c10::SymbolicShapeMeta"** %2, align 8
  %4 = call zeroext i1 @_ZNK3c1017SymbolicShapeMeta34has_is_channels_last_3d_contiguousEv(%"class.c10::SymbolicShapeMeta"* nonnull align 8 dereferenceable(272) %3), !dbg !27738
  %5 = xor i1 %4, true, !dbg !27738
  br i1 %5, label %6, label %7, !dbg !27740

6:                                                ; preds = %1
  call void @_ZNK3c1017SymbolicShapeMeta35init_is_channels_last_3d_contiguousEv(%"class.c10::SymbolicShapeMeta"* nonnull align 8 dereferenceable(272) %3), !dbg !27741
  br label %7, !dbg !27743

7:                                                ; preds = %6, %1
  %8 = getelementptr inbounds %"class.c10::SymbolicShapeMeta", %"class.c10::SymbolicShapeMeta"* %3, i32 0, i32 9, !dbg !27744
  ret %"class.c10::SymBool"* %8, !dbg !27745
}

; Function Attrs: mustprogress noinline optnone uwtable
define linkonce_odr dso_local nonnull align 8 dereferenceable(16) %"class.c10::SymBool"* @_ZNK3c1017SymbolicShapeMeta13is_contiguousEv(%"class.c10::SymbolicShapeMeta"* nonnull align 8 dereferenceable(272) %0) #4 comdat align 2 !dbg !27746 {
  %2 = alloca %"class.c10::SymbolicShapeMeta"*, align 8
  store %"class.c10::SymbolicShapeMeta"* %0, %"class.c10::SymbolicShapeMeta"** %2, align 8
  call void @llvm.dbg.declare(metadata %"class.c10::SymbolicShapeMeta"** %2, metadata !27747, metadata !DIExpression()), !dbg !27748
  %3 = load %"class.c10::SymbolicShapeMeta"*, %"class.c10::SymbolicShapeMeta"** %2, align 8
  %4 = call zeroext i1 @_ZNK3c1017SymbolicShapeMeta17has_is_contiguousEv(%"class.c10::SymbolicShapeMeta"* nonnull align 8 dereferenceable(272) %3), !dbg !27749
  %5 = xor i1 %4, true, !dbg !27749
  br i1 %5, label %6, label %7, !dbg !27751

6:                                                ; preds = %1
  call void @_ZNK3c1017SymbolicShapeMeta18init_is_contiguousEv(%"class.c10::SymbolicShapeMeta"* nonnull align 8 dereferenceable(272) %3), !dbg !27752
  br label %7, !dbg !27754

7:                                                ; preds = %6, %1
  %8 = getelementptr inbounds %"class.c10::SymbolicShapeMeta", %"class.c10::SymbolicShapeMeta"* %3, i32 0, i32 7, !dbg !27755
  ret %"class.c10::SymBool"* %8, !dbg !27756
}

; Function Attrs: mustprogress noinline nounwind optnone uwtable
define linkonce_odr dso_local zeroext i1 @_ZNK3c1017SymbolicShapeMeta17has_is_contiguousEv(%"class.c10::SymbolicShapeMeta"* nonnull align 8 dereferenceable(272) %0) #6 comdat align 2 personality i32 (...)* @__gxx_personality_v0 !dbg !27757 {
  %2 = alloca %"struct.std::__atomic_base"*, align 8
  %3 = alloca i32, align 4
  %4 = alloca i32, align 4
  %5 = alloca i32, align 4
  %6 = alloca %"class.c10::SymbolicShapeMeta"*, align 8
  store %"class.c10::SymbolicShapeMeta"* %0, %"class.c10::SymbolicShapeMeta"** %6, align 8
  call void @llvm.dbg.declare(metadata %"class.c10::SymbolicShapeMeta"** %6, metadata !27758, metadata !DIExpression()), !dbg !27759
  %7 = load %"class.c10::SymbolicShapeMeta"*, %"class.c10::SymbolicShapeMeta"** %6, align 8
  %8 = getelementptr inbounds %"class.c10::SymbolicShapeMeta", %"class.c10::SymbolicShapeMeta"* %7, i32 0, i32 4, !dbg !27760
  %9 = bitcast %"struct.std::atomic"* %8 to %"struct.std::__atomic_base"*, !dbg !27760
  store %"struct.std::__atomic_base"* %9, %"struct.std::__atomic_base"** %2, align 8
  call void @llvm.dbg.declare(metadata %"struct.std::__atomic_base"** %2, metadata !27761, metadata !DIExpression()) #3, !dbg !27764
  store i32 5, i32* %3, align 4
  call void @llvm.dbg.declare(metadata i32* %3, metadata !27766, metadata !DIExpression()) #3, !dbg !27767
  %10 = load %"struct.std::__atomic_base"*, %"struct.std::__atomic_base"** %2, align 8
  call void @llvm.dbg.declare(metadata i32* %4, metadata !27768, metadata !DIExpression()) #3, !dbg !27769
  %11 = load i32, i32* %3, align 4, !dbg !27770
  %12 = invoke i32 @_ZStanSt12memory_orderSt23__memory_order_modifier(i32 %11, i32 65535)
          to label %13 unwind label %22, !dbg !27771

13:                                               ; preds = %1
  store i32 %12, i32* %4, align 4, !dbg !27769
  %14 = getelementptr inbounds %"struct.std::__atomic_base", %"struct.std::__atomic_base"* %10, i32 0, i32 0, !dbg !27772
  %15 = load i32, i32* %3, align 4, !dbg !27773
  switch i32 %15, label %16 [
    i32 1, label %18
    i32 2, label %18
    i32 5, label %20
  ], !dbg !27774

16:                                               ; preds = %13
  %17 = load atomic i32, i32* %14 monotonic, align 4, !dbg !27774
  store i32 %17, i32* %5, align 4, !dbg !27774
  br label %25, !dbg !27774

18:                                               ; preds = %13, %13
  %19 = load atomic i32, i32* %14 acquire, align 4, !dbg !27774
  store i32 %19, i32* %5, align 4, !dbg !27774
  br label %25, !dbg !27774

20:                                               ; preds = %13
  %21 = load atomic i32, i32* %14 seq_cst, align 4, !dbg !27774
  store i32 %21, i32* %5, align 4, !dbg !27774
  br label %25, !dbg !27774

22:                                               ; preds = %1
  %23 = landingpad { i8*, i32 }
          catch i8* null, !dbg !27771
  %24 = extractvalue { i8*, i32 } %23, 0, !dbg !27771
  call void @__clang_call_terminate(i8* %24) #19, !dbg !27771
  unreachable, !dbg !27771

25:                                               ; preds = %16, %18, %20
  %26 = load i32, i32* %5, align 4, !dbg !27774
  %27 = and i32 %26, 2, !dbg !27775
  %28 = icmp ne i32 %27, 0, !dbg !27760
  ret i1 %28, !dbg !27776
}

declare dso_local void @_ZNK3c1017SymbolicShapeMeta18init_is_contiguousEv(%"class.c10::SymbolicShapeMeta"* nonnull align 8 dereferenceable(272)) #1

; Function Attrs: mustprogress noinline nounwind optnone uwtable
define linkonce_odr dso_local i32 @_ZStanSt12memory_orderSt23__memory_order_modifier(i32 %0, i32 %1) #6 comdat !dbg !27777 {
  %3 = alloca i32, align 4
  %4 = alloca i32, align 4
  store i32 %0, i32* %3, align 4
  call void @llvm.dbg.declare(metadata i32* %3, metadata !27780, metadata !DIExpression()), !dbg !27781
  store i32 %1, i32* %4, align 4
  call void @llvm.dbg.declare(metadata i32* %4, metadata !27782, metadata !DIExpression()), !dbg !27783
  %5 = load i32, i32* %3, align 4, !dbg !27784
  %6 = load i32, i32* %4, align 4, !dbg !27785
  %7 = and i32 %5, %6, !dbg !27786
  ret i32 %7, !dbg !27787
}

; Function Attrs: noinline noreturn nounwind
define linkonce_odr hidden void @__clang_call_terminate(i8* %0) #11 comdat {
  %2 = call i8* @__cxa_begin_catch(i8* %0) #3
  call void @_ZSt9terminatev() #19
  unreachable
}

declare dso_local i8* @__cxa_begin_catch(i8*)

declare dso_local void @_ZSt9terminatev()

; Function Attrs: mustprogress noinline nounwind optnone uwtable
define linkonce_odr dso_local zeroext i1 @_ZNK3c1017SymbolicShapeMeta34has_is_channels_last_3d_contiguousEv(%"class.c10::SymbolicShapeMeta"* nonnull align 8 dereferenceable(272) %0) #6 comdat align 2 personality i32 (...)* @__gxx_personality_v0 !dbg !27788 {
  %2 = alloca %"struct.std::__atomic_base"*, align 8
  %3 = alloca i32, align 4
  %4 = alloca i32, align 4
  %5 = alloca i32, align 4
  %6 = alloca %"class.c10::SymbolicShapeMeta"*, align 8
  store %"class.c10::SymbolicShapeMeta"* %0, %"class.c10::SymbolicShapeMeta"** %6, align 8
  call void @llvm.dbg.declare(metadata %"class.c10::SymbolicShapeMeta"** %6, metadata !27789, metadata !DIExpression()), !dbg !27790
  %7 = load %"class.c10::SymbolicShapeMeta"*, %"class.c10::SymbolicShapeMeta"** %6, align 8
  %8 = getelementptr inbounds %"class.c10::SymbolicShapeMeta", %"class.c10::SymbolicShapeMeta"* %7, i32 0, i32 4, !dbg !27791
  %9 = bitcast %"struct.std::atomic"* %8 to %"struct.std::__atomic_base"*, !dbg !27791
  store %"struct.std::__atomic_base"* %9, %"struct.std::__atomic_base"** %2, align 8
  call void @llvm.dbg.declare(metadata %"struct.std::__atomic_base"** %2, metadata !27761, metadata !DIExpression()) #3, !dbg !27792
  store i32 5, i32* %3, align 4
  call void @llvm.dbg.declare(metadata i32* %3, metadata !27766, metadata !DIExpression()) #3, !dbg !27794
  %10 = load %"struct.std::__atomic_base"*, %"struct.std::__atomic_base"** %2, align 8
  call void @llvm.dbg.declare(metadata i32* %4, metadata !27768, metadata !DIExpression()) #3, !dbg !27795
  %11 = load i32, i32* %3, align 4, !dbg !27796
  %12 = invoke i32 @_ZStanSt12memory_orderSt23__memory_order_modifier(i32 %11, i32 65535)
          to label %13 unwind label %22, !dbg !27797

13:                                               ; preds = %1
  store i32 %12, i32* %4, align 4, !dbg !27795
  %14 = getelementptr inbounds %"struct.std::__atomic_base", %"struct.std::__atomic_base"* %10, i32 0, i32 0, !dbg !27798
  %15 = load i32, i32* %3, align 4, !dbg !27799
  switch i32 %15, label %16 [
    i32 1, label %18
    i32 2, label %18
    i32 5, label %20
  ], !dbg !27800

16:                                               ; preds = %13
  %17 = load atomic i32, i32* %14 monotonic, align 4, !dbg !27800
  store i32 %17, i32* %5, align 4, !dbg !27800
  br label %25, !dbg !27800

18:                                               ; preds = %13, %13
  %19 = load atomic i32, i32* %14 acquire, align 4, !dbg !27800
  store i32 %19, i32* %5, align 4, !dbg !27800
  br label %25, !dbg !27800

20:                                               ; preds = %13
  %21 = load atomic i32, i32* %14 seq_cst, align 4, !dbg !27800
  store i32 %21, i32* %5, align 4, !dbg !27800
  br label %25, !dbg !27800

22:                                               ; preds = %1
  %23 = landingpad { i8*, i32 }
          catch i8* null, !dbg !27797
  %24 = extractvalue { i8*, i32 } %23, 0, !dbg !27797
  call void @__clang_call_terminate(i8* %24) #19, !dbg !27797
  unreachable, !dbg !27797

25:                                               ; preds = %16, %18, %20
  %26 = load i32, i32* %5, align 4, !dbg !27800
  %27 = and i32 %26, 8, !dbg !27801
  %28 = icmp ne i32 %27, 0, !dbg !27791
  ret i1 %28, !dbg !27802
}

declare dso_local void @_ZNK3c1017SymbolicShapeMeta35init_is_channels_last_3d_contiguousEv(%"class.c10::SymbolicShapeMeta"* nonnull align 8 dereferenceable(272)) #1

; Function Attrs: mustprogress noinline nounwind optnone uwtable
define linkonce_odr dso_local zeroext i1 @_ZNK3c1017SymbolicShapeMeta31has_is_channels_last_contiguousEv(%"class.c10::SymbolicShapeMeta"* nonnull align 8 dereferenceable(272) %0) #6 comdat align 2 personality i32 (...)* @__gxx_personality_v0 !dbg !27803 {
  %2 = alloca %"struct.std::__atomic_base"*, align 8
  %3 = alloca i32, align 4
  %4 = alloca i32, align 4
  %5 = alloca i32, align 4
  %6 = alloca %"class.c10::SymbolicShapeMeta"*, align 8
  store %"class.c10::SymbolicShapeMeta"* %0, %"class.c10::SymbolicShapeMeta"** %6, align 8
  call void @llvm.dbg.declare(metadata %"class.c10::SymbolicShapeMeta"** %6, metadata !27804, metadata !DIExpression()), !dbg !27805
  %7 = load %"class.c10::SymbolicShapeMeta"*, %"class.c10::SymbolicShapeMeta"** %6, align 8
  %8 = getelementptr inbounds %"class.c10::SymbolicShapeMeta", %"class.c10::SymbolicShapeMeta"* %7, i32 0, i32 4, !dbg !27806
  %9 = bitcast %"struct.std::atomic"* %8 to %"struct.std::__atomic_base"*, !dbg !27806
  store %"struct.std::__atomic_base"* %9, %"struct.std::__atomic_base"** %2, align 8
  call void @llvm.dbg.declare(metadata %"struct.std::__atomic_base"** %2, metadata !27761, metadata !DIExpression()) #3, !dbg !27807
  store i32 5, i32* %3, align 4
  call void @llvm.dbg.declare(metadata i32* %3, metadata !27766, metadata !DIExpression()) #3, !dbg !27809
  %10 = load %"struct.std::__atomic_base"*, %"struct.std::__atomic_base"** %2, align 8
  call void @llvm.dbg.declare(metadata i32* %4, metadata !27768, metadata !DIExpression()) #3, !dbg !27810
  %11 = load i32, i32* %3, align 4, !dbg !27811
  %12 = invoke i32 @_ZStanSt12memory_orderSt23__memory_order_modifier(i32 %11, i32 65535)
          to label %13 unwind label %22, !dbg !27812

13:                                               ; preds = %1
  store i32 %12, i32* %4, align 4, !dbg !27810
  %14 = getelementptr inbounds %"struct.std::__atomic_base", %"struct.std::__atomic_base"* %10, i32 0, i32 0, !dbg !27813
  %15 = load i32, i32* %3, align 4, !dbg !27814
  switch i32 %15, label %16 [
    i32 1, label %18
    i32 2, label %18
    i32 5, label %20
  ], !dbg !27815

16:                                               ; preds = %13
  %17 = load atomic i32, i32* %14 monotonic, align 4, !dbg !27815
  store i32 %17, i32* %5, align 4, !dbg !27815
  br label %25, !dbg !27815

18:                                               ; preds = %13, %13
  %19 = load atomic i32, i32* %14 acquire, align 4, !dbg !27815
  store i32 %19, i32* %5, align 4, !dbg !27815
  br label %25, !dbg !27815

20:                                               ; preds = %13
  %21 = load atomic i32, i32* %14 seq_cst, align 4, !dbg !27815
  store i32 %21, i32* %5, align 4, !dbg !27815
  br label %25, !dbg !27815

22:                                               ; preds = %1
  %23 = landingpad { i8*, i32 }
          catch i8* null, !dbg !27812
  %24 = extractvalue { i8*, i32 } %23, 0, !dbg !27812
  call void @__clang_call_terminate(i8* %24) #19, !dbg !27812
  unreachable, !dbg !27812

25:                                               ; preds = %16, %18, %20
  %26 = load i32, i32* %5, align 4, !dbg !27815
  %27 = and i32 %26, 4, !dbg !27816
  %28 = icmp ne i32 %27, 0, !dbg !27806
  ret i1 %28, !dbg !27817
}

declare dso_local void @_ZNK3c1017SymbolicShapeMeta32init_is_channels_last_contiguousEv(%"class.c10::SymbolicShapeMeta"* nonnull align 8 dereferenceable(272)) #1

; Function Attrs: mustprogress noinline nounwind optnone uwtable
define linkonce_odr dso_local zeroext i1 @_ZNKSt10unique_ptrIN3c109ExtraMetaESt14default_deleteIS1_EEcvbEv(%"class.std::unique_ptr.23"* nonnull align 8 dereferenceable(8) %0) #6 comdat align 2 !dbg !27818 {
  %2 = alloca %"class.std::unique_ptr.23"*, align 8
  store %"class.std::unique_ptr.23"* %0, %"class.std::unique_ptr.23"** %2, align 8
  call void @llvm.dbg.declare(metadata %"class.std::unique_ptr.23"** %2, metadata !27819, metadata !DIExpression()), !dbg !27821
  %3 = load %"class.std::unique_ptr.23"*, %"class.std::unique_ptr.23"** %2, align 8
  %4 = call %"struct.c10::ExtraMeta"* @_ZNKSt10unique_ptrIN3c109ExtraMetaESt14default_deleteIS1_EE3getEv(%"class.std::unique_ptr.23"* nonnull align 8 dereferenceable(8) %3) #3, !dbg !27822
  %5 = icmp eq %"struct.c10::ExtraMeta"* %4, null, !dbg !27823
  %6 = zext i1 %5 to i64, !dbg !27822
  %7 = select i1 %5, i1 false, i1 true, !dbg !27822
  ret i1 %7, !dbg !27824
}

; Function Attrs: mustprogress noinline nounwind optnone uwtable
define linkonce_odr dso_local %"struct.c10::ExtraMeta"* @_ZNKSt10unique_ptrIN3c109ExtraMetaESt14default_deleteIS1_EEptEv(%"class.std::unique_ptr.23"* nonnull align 8 dereferenceable(8) %0) #6 comdat align 2 !dbg !27825 {
  %2 = alloca %"class.std::unique_ptr.23"*, align 8
  store %"class.std::unique_ptr.23"* %0, %"class.std::unique_ptr.23"** %2, align 8
  call void @llvm.dbg.declare(metadata %"class.std::unique_ptr.23"** %2, metadata !27826, metadata !DIExpression()), !dbg !27827
  %3 = load %"class.std::unique_ptr.23"*, %"class.std::unique_ptr.23"** %2, align 8
  %4 = call %"struct.c10::ExtraMeta"* @_ZNKSt10unique_ptrIN3c109ExtraMetaESt14default_deleteIS1_EE3getEv(%"class.std::unique_ptr.23"* nonnull align 8 dereferenceable(8) %3) #3, !dbg !27828
  ret %"struct.c10::ExtraMeta"* %4, !dbg !27829
}

; Function Attrs: mustprogress noinline nounwind optnone uwtable
define linkonce_odr dso_local zeroext i1 @_ZNKSt10unique_ptrIN3c1017SymbolicShapeMetaESt14default_deleteIS1_EEcvbEv(%"class.std::unique_ptr.31"* nonnull align 8 dereferenceable(8) %0) #6 comdat align 2 !dbg !27830 {
  %2 = alloca %"class.std::unique_ptr.31"*, align 8
  store %"class.std::unique_ptr.31"* %0, %"class.std::unique_ptr.31"** %2, align 8
  call void @llvm.dbg.declare(metadata %"class.std::unique_ptr.31"** %2, metadata !27831, metadata !DIExpression()), !dbg !27833
  %3 = load %"class.std::unique_ptr.31"*, %"class.std::unique_ptr.31"** %2, align 8
  %4 = call %"class.c10::SymbolicShapeMeta"* @_ZNKSt10unique_ptrIN3c1017SymbolicShapeMetaESt14default_deleteIS1_EE3getEv(%"class.std::unique_ptr.31"* nonnull align 8 dereferenceable(8) %3) #3, !dbg !27834
  %5 = icmp eq %"class.c10::SymbolicShapeMeta"* %4, null, !dbg !27835
  %6 = zext i1 %5 to i64, !dbg !27834
  %7 = select i1 %5, i1 false, i1 true, !dbg !27834
  ret i1 %7, !dbg !27836
}

; Function Attrs: mustprogress noinline optnone uwtable
define linkonce_odr dso_local void @_ZN3c103strIJEEEDcDpRKT_() #4 comdat !dbg !27837 {
  %1 = alloca %"class.std::ios_base::Init", align 1
  call void @_ZN3c106detail12_str_wrapperIJEE4callEv(), !dbg !27852
  ret void, !dbg !27853
}

; Function Attrs: mustprogress noinline noreturn optnone uwtable
define linkonce_odr dso_local void @_ZN3c106detail23torchInternalAssertFailEPKcS2_jS2_NS0_22CompileTimeEmptyStringE(i8* %0, i8* %1, i32 %2, i8* %3) #12 comdat !dbg !27854 {
  %5 = alloca %"class.std::ios_base::Init", align 1
  %6 = alloca i8*, align 8
  %7 = alloca i8*, align 8
  %8 = alloca i32, align 4
  %9 = alloca i8*, align 8
  store i8* %0, i8** %6, align 8
  call void @llvm.dbg.declare(metadata i8** %6, metadata !27857, metadata !DIExpression()), !dbg !27858
  store i8* %1, i8** %7, align 8
  call void @llvm.dbg.declare(metadata i8** %7, metadata !27859, metadata !DIExpression()), !dbg !27860
  store i32 %2, i32* %8, align 4
  call void @llvm.dbg.declare(metadata i32* %8, metadata !27861, metadata !DIExpression()), !dbg !27862
  store i8* %3, i8** %9, align 8
  call void @llvm.dbg.declare(metadata i8** %9, metadata !27863, metadata !DIExpression()), !dbg !27864
  call void @llvm.dbg.declare(metadata %"class.std::ios_base::Init"* %5, metadata !27865, metadata !DIExpression()), !dbg !27866
  %10 = load i8*, i8** %6, align 8, !dbg !27867
  %11 = load i8*, i8** %7, align 8, !dbg !27868
  %12 = load i32, i32* %8, align 4, !dbg !27869
  %13 = load i8*, i8** %9, align 8, !dbg !27870
  call void @_ZN3c106detail14torchCheckFailEPKcS2_jS2_(i8* %10, i8* %11, i32 %12, i8* %13) #18, !dbg !27871
  unreachable, !dbg !27871
}

; Function Attrs: mustprogress noinline nounwind optnone uwtable
define linkonce_odr dso_local nonnull align 8 dereferenceable(272) %"class.c10::SymbolicShapeMeta"* @_ZNKSt10unique_ptrIN3c1017SymbolicShapeMetaESt14default_deleteIS1_EEdeEv(%"class.std::unique_ptr.31"* nonnull align 8 dereferenceable(8) %0) #6 comdat align 2 !dbg !27872 {
  %2 = alloca %"class.std::unique_ptr.31"*, align 8
  store %"class.std::unique_ptr.31"* %0, %"class.std::unique_ptr.31"** %2, align 8
  call void @llvm.dbg.declare(metadata %"class.std::unique_ptr.31"** %2, metadata !27873, metadata !DIExpression()), !dbg !27874
  %3 = load %"class.std::unique_ptr.31"*, %"class.std::unique_ptr.31"** %2, align 8
  br label %4, !dbg !27875

4:                                                ; preds = %1
  br label %5, !dbg !27876

5:                                                ; preds = %4
  %6 = call %"class.c10::SymbolicShapeMeta"* @_ZNKSt10unique_ptrIN3c1017SymbolicShapeMetaESt14default_deleteIS1_EE3getEv(%"class.std::unique_ptr.31"* nonnull align 8 dereferenceable(8) %3) #3, !dbg !27878
  ret %"class.c10::SymbolicShapeMeta"* %6, !dbg !27879
}

; Function Attrs: mustprogress noinline nounwind optnone uwtable
define linkonce_odr dso_local %"class.c10::SymbolicShapeMeta"* @_ZNKSt10unique_ptrIN3c1017SymbolicShapeMetaESt14default_deleteIS1_EE3getEv(%"class.std::unique_ptr.31"* nonnull align 8 dereferenceable(8) %0) #6 comdat align 2 personality i8* bitcast (i32 (...)* @__gxx_personality_v0 to i8*) !dbg !27880 {
  %2 = alloca %"class.std::unique_ptr.31"*, align 8
  store %"class.std::unique_ptr.31"* %0, %"class.std::unique_ptr.31"** %2, align 8
  call void @llvm.dbg.declare(metadata %"class.std::unique_ptr.31"** %2, metadata !27881, metadata !DIExpression()), !dbg !27882
  %3 = load %"class.std::unique_ptr.31"*, %"class.std::unique_ptr.31"** %2, align 8
  %4 = getelementptr inbounds %"class.std::unique_ptr.31", %"class.std::unique_ptr.31"* %3, i32 0, i32 0, !dbg !27883
  %5 = bitcast %"struct.std::__uniq_ptr_data.32"* %4 to %"class.std::__uniq_ptr_impl.33"*, !dbg !27883
  %6 = invoke %"class.c10::SymbolicShapeMeta"* @_ZNKSt15__uniq_ptr_implIN3c1017SymbolicShapeMetaESt14default_deleteIS1_EE6_M_ptrEv(%"class.std::__uniq_ptr_impl.33"* nonnull align 8 dereferenceable(8) %5)
          to label %7 unwind label %8, !dbg !27884

7:                                                ; preds = %1
  ret %"class.c10::SymbolicShapeMeta"* %6, !dbg !27885

8:                                                ; preds = %1
  %9 = landingpad { i8*, i32 }
          catch i8* null, !dbg !27884
  %10 = extractvalue { i8*, i32 } %9, 0, !dbg !27884
  call void @__clang_call_terminate(i8* %10) #19, !dbg !27884
  unreachable, !dbg !27884
}

; Function Attrs: mustprogress noinline nounwind optnone uwtable
define linkonce_odr dso_local %"class.c10::SymbolicShapeMeta"* @_ZNKSt15__uniq_ptr_implIN3c1017SymbolicShapeMetaESt14default_deleteIS1_EE6_M_ptrEv(%"class.std::__uniq_ptr_impl.33"* nonnull align 8 dereferenceable(8) %0) #6 comdat align 2 !dbg !27886 {
  %2 = alloca %"class.std::__uniq_ptr_impl.33"*, align 8
  store %"class.std::__uniq_ptr_impl.33"* %0, %"class.std::__uniq_ptr_impl.33"** %2, align 8
  call void @llvm.dbg.declare(metadata %"class.std::__uniq_ptr_impl.33"** %2, metadata !27887, metadata !DIExpression()), !dbg !27889
  %3 = load %"class.std::__uniq_ptr_impl.33"*, %"class.std::__uniq_ptr_impl.33"** %2, align 8
  %4 = getelementptr inbounds %"class.std::__uniq_ptr_impl.33", %"class.std::__uniq_ptr_impl.33"* %3, i32 0, i32 0, !dbg !27890
  %5 = call nonnull align 8 dereferenceable(8) %"class.c10::SymbolicShapeMeta"** @_ZSt3getILm0EJPN3c1017SymbolicShapeMetaESt14default_deleteIS1_EEERKNSt13tuple_elementIXT_ESt5tupleIJDpT0_EEE4typeERKS9_(%"class.std::tuple.34"* nonnull align 8 dereferenceable(8) %4) #3, !dbg !27891
  %6 = load %"class.c10::SymbolicShapeMeta"*, %"class.c10::SymbolicShapeMeta"** %5, align 8, !dbg !27891
  ret %"class.c10::SymbolicShapeMeta"* %6, !dbg !27892
}

; Function Attrs: mustprogress noinline nounwind optnone uwtable
define linkonce_odr dso_local nonnull align 8 dereferenceable(8) %"class.c10::SymbolicShapeMeta"** @_ZSt3getILm0EJPN3c1017SymbolicShapeMetaESt14default_deleteIS1_EEERKNSt13tuple_elementIXT_ESt5tupleIJDpT0_EEE4typeERKS9_(%"class.std::tuple.34"* nonnull align 8 dereferenceable(8) %0) #6 comdat !dbg !27893 {
  %2 = alloca %"class.std::tuple.34"*, align 8
  store %"class.std::tuple.34"* %0, %"class.std::tuple.34"** %2, align 8
  call void @llvm.dbg.declare(metadata %"class.std::tuple.34"** %2, metadata !27906, metadata !DIExpression()), !dbg !27907
  %3 = load %"class.std::tuple.34"*, %"class.std::tuple.34"** %2, align 8, !dbg !27908
  %4 = bitcast %"class.std::tuple.34"* %3 to %"struct.std::_Tuple_impl.35"*, !dbg !27908
  %5 = call nonnull align 8 dereferenceable(8) %"class.c10::SymbolicShapeMeta"** @_ZSt12__get_helperILm0EPN3c1017SymbolicShapeMetaEJSt14default_deleteIS1_EEERKT0_RKSt11_Tuple_implIXT_EJS5_DpT1_EE(%"struct.std::_Tuple_impl.35"* nonnull align 8 dereferenceable(8) %4) #3, !dbg !27909
  ret %"class.c10::SymbolicShapeMeta"** %5, !dbg !27910
}

; Function Attrs: mustprogress noinline nounwind optnone uwtable
define linkonce_odr dso_local nonnull align 8 dereferenceable(8) %"class.c10::SymbolicShapeMeta"** @_ZSt12__get_helperILm0EPN3c1017SymbolicShapeMetaEJSt14default_deleteIS1_EEERKT0_RKSt11_Tuple_implIXT_EJS5_DpT1_EE(%"struct.std::_Tuple_impl.35"* nonnull align 8 dereferenceable(8) %0) #6 comdat !dbg !27911 {
  %2 = alloca %"struct.std::_Tuple_impl.35"*, align 8
  store %"struct.std::_Tuple_impl.35"* %0, %"struct.std::_Tuple_impl.35"** %2, align 8
  call void @llvm.dbg.declare(metadata %"struct.std::_Tuple_impl.35"** %2, metadata !27914, metadata !DIExpression()), !dbg !27915
  %3 = load %"struct.std::_Tuple_impl.35"*, %"struct.std::_Tuple_impl.35"** %2, align 8, !dbg !27916
  %4 = call nonnull align 8 dereferenceable(8) %"class.c10::SymbolicShapeMeta"** @_ZNSt11_Tuple_implILm0EJPN3c1017SymbolicShapeMetaESt14default_deleteIS1_EEE7_M_headERKS5_(%"struct.std::_Tuple_impl.35"* nonnull align 8 dereferenceable(8) %3) #3, !dbg !27917
  ret %"class.c10::SymbolicShapeMeta"** %4, !dbg !27918
}

; Function Attrs: mustprogress noinline nounwind optnone uwtable
define linkonce_odr dso_local nonnull align 8 dereferenceable(8) %"class.c10::SymbolicShapeMeta"** @_ZNSt11_Tuple_implILm0EJPN3c1017SymbolicShapeMetaESt14default_deleteIS1_EEE7_M_headERKS5_(%"struct.std::_Tuple_impl.35"* nonnull align 8 dereferenceable(8) %0) #6 comdat align 2 !dbg !27919 {
  %2 = alloca %"struct.std::_Tuple_impl.35"*, align 8
  store %"struct.std::_Tuple_impl.35"* %0, %"struct.std::_Tuple_impl.35"** %2, align 8
  call void @llvm.dbg.declare(metadata %"struct.std::_Tuple_impl.35"** %2, metadata !27920, metadata !DIExpression()), !dbg !27921
  %3 = load %"struct.std::_Tuple_impl.35"*, %"struct.std::_Tuple_impl.35"** %2, align 8, !dbg !27922
  %4 = bitcast %"struct.std::_Tuple_impl.35"* %3 to %"struct.std::_Head_base.38"*, !dbg !27922
  %5 = call nonnull align 8 dereferenceable(8) %"class.c10::SymbolicShapeMeta"** @_ZNSt10_Head_baseILm0EPN3c1017SymbolicShapeMetaELb0EE7_M_headERKS3_(%"struct.std::_Head_base.38"* nonnull align 8 dereferenceable(8) %4) #3, !dbg !27923
  ret %"class.c10::SymbolicShapeMeta"** %5, !dbg !27924
}

; Function Attrs: mustprogress noinline nounwind optnone uwtable
define linkonce_odr dso_local nonnull align 8 dereferenceable(8) %"class.c10::SymbolicShapeMeta"** @_ZNSt10_Head_baseILm0EPN3c1017SymbolicShapeMetaELb0EE7_M_headERKS3_(%"struct.std::_Head_base.38"* nonnull align 8 dereferenceable(8) %0) #6 comdat align 2 !dbg !27925 {
  %2 = alloca %"struct.std::_Head_base.38"*, align 8
  store %"struct.std::_Head_base.38"* %0, %"struct.std::_Head_base.38"** %2, align 8
  call void @llvm.dbg.declare(metadata %"struct.std::_Head_base.38"** %2, metadata !27926, metadata !DIExpression()), !dbg !27927
  %3 = load %"struct.std::_Head_base.38"*, %"struct.std::_Head_base.38"** %2, align 8, !dbg !27928
  %4 = getelementptr inbounds %"struct.std::_Head_base.38", %"struct.std::_Head_base.38"* %3, i32 0, i32 0, !dbg !27929
  ret %"class.c10::SymbolicShapeMeta"** %4, !dbg !27930
}

; Function Attrs: mustprogress noinline nounwind optnone uwtable
define linkonce_odr dso_local void @_ZN3c106detail12_str_wrapperIJEE4callEv() #6 comdat align 2 !dbg !27931 {
  ret void, !dbg !27935
}

; Function Attrs: mustprogress noinline nounwind optnone uwtable
define linkonce_odr dso_local %"struct.c10::ExtraMeta"* @_ZNKSt10unique_ptrIN3c109ExtraMetaESt14default_deleteIS1_EE3getEv(%"class.std::unique_ptr.23"* nonnull align 8 dereferenceable(8) %0) #6 comdat align 2 personality i8* bitcast (i32 (...)* @__gxx_personality_v0 to i8*) !dbg !27936 {
  %2 = alloca %"class.std::unique_ptr.23"*, align 8
  store %"class.std::unique_ptr.23"* %0, %"class.std::unique_ptr.23"** %2, align 8
  call void @llvm.dbg.declare(metadata %"class.std::unique_ptr.23"** %2, metadata !27937, metadata !DIExpression()), !dbg !27938
  %3 = load %"class.std::unique_ptr.23"*, %"class.std::unique_ptr.23"** %2, align 8
  %4 = getelementptr inbounds %"class.std::unique_ptr.23", %"class.std::unique_ptr.23"* %3, i32 0, i32 0, !dbg !27939
  %5 = bitcast %"struct.std::__uniq_ptr_data.24"* %4 to %"class.std::__uniq_ptr_impl.25"*, !dbg !27939
  %6 = invoke %"struct.c10::ExtraMeta"* @_ZNKSt15__uniq_ptr_implIN3c109ExtraMetaESt14default_deleteIS1_EE6_M_ptrEv(%"class.std::__uniq_ptr_impl.25"* nonnull align 8 dereferenceable(8) %5)
          to label %7 unwind label %8, !dbg !27940

7:                                                ; preds = %1
  ret %"struct.c10::ExtraMeta"* %6, !dbg !27941

8:                                                ; preds = %1
  %9 = landingpad { i8*, i32 }
          catch i8* null, !dbg !27940
  %10 = extractvalue { i8*, i32 } %9, 0, !dbg !27940
  call void @__clang_call_terminate(i8* %10) #19, !dbg !27940
  unreachable, !dbg !27940
}

; Function Attrs: mustprogress noinline nounwind optnone uwtable
define linkonce_odr dso_local %"struct.c10::ExtraMeta"* @_ZNKSt15__uniq_ptr_implIN3c109ExtraMetaESt14default_deleteIS1_EE6_M_ptrEv(%"class.std::__uniq_ptr_impl.25"* nonnull align 8 dereferenceable(8) %0) #6 comdat align 2 !dbg !27942 {
  %2 = alloca %"class.std::__uniq_ptr_impl.25"*, align 8
  store %"class.std::__uniq_ptr_impl.25"* %0, %"class.std::__uniq_ptr_impl.25"** %2, align 8
  call void @llvm.dbg.declare(metadata %"class.std::__uniq_ptr_impl.25"** %2, metadata !27943, metadata !DIExpression()), !dbg !27945
  %3 = load %"class.std::__uniq_ptr_impl.25"*, %"class.std::__uniq_ptr_impl.25"** %2, align 8
  %4 = getelementptr inbounds %"class.std::__uniq_ptr_impl.25", %"class.std::__uniq_ptr_impl.25"* %3, i32 0, i32 0, !dbg !27946
  %5 = call nonnull align 8 dereferenceable(8) %"struct.c10::ExtraMeta"** @_ZSt3getILm0EJPN3c109ExtraMetaESt14default_deleteIS1_EEERKNSt13tuple_elementIXT_ESt5tupleIJDpT0_EEE4typeERKS9_(%"class.std::tuple.26"* nonnull align 8 dereferenceable(8) %4) #3, !dbg !27947
  %6 = load %"struct.c10::ExtraMeta"*, %"struct.c10::ExtraMeta"** %5, align 8, !dbg !27947
  ret %"struct.c10::ExtraMeta"* %6, !dbg !27948
}

; Function Attrs: mustprogress noinline nounwind optnone uwtable
define linkonce_odr dso_local nonnull align 8 dereferenceable(8) %"struct.c10::ExtraMeta"** @_ZSt3getILm0EJPN3c109ExtraMetaESt14default_deleteIS1_EEERKNSt13tuple_elementIXT_ESt5tupleIJDpT0_EEE4typeERKS9_(%"class.std::tuple.26"* nonnull align 8 dereferenceable(8) %0) #6 comdat !dbg !27949 {
  %2 = alloca %"class.std::tuple.26"*, align 8
  store %"class.std::tuple.26"* %0, %"class.std::tuple.26"** %2, align 8
  call void @llvm.dbg.declare(metadata %"class.std::tuple.26"** %2, metadata !27960, metadata !DIExpression()), !dbg !27961
  %3 = load %"class.std::tuple.26"*, %"class.std::tuple.26"** %2, align 8, !dbg !27962
  %4 = bitcast %"class.std::tuple.26"* %3 to %"struct.std::_Tuple_impl.27"*, !dbg !27962
  %5 = call nonnull align 8 dereferenceable(8) %"struct.c10::ExtraMeta"** @_ZSt12__get_helperILm0EPN3c109ExtraMetaEJSt14default_deleteIS1_EEERKT0_RKSt11_Tuple_implIXT_EJS5_DpT1_EE(%"struct.std::_Tuple_impl.27"* nonnull align 8 dereferenceable(8) %4) #3, !dbg !27963
  ret %"struct.c10::ExtraMeta"** %5, !dbg !27964
}

; Function Attrs: mustprogress noinline nounwind optnone uwtable
define linkonce_odr dso_local nonnull align 8 dereferenceable(8) %"struct.c10::ExtraMeta"** @_ZSt12__get_helperILm0EPN3c109ExtraMetaEJSt14default_deleteIS1_EEERKT0_RKSt11_Tuple_implIXT_EJS5_DpT1_EE(%"struct.std::_Tuple_impl.27"* nonnull align 8 dereferenceable(8) %0) #6 comdat !dbg !27965 {
  %2 = alloca %"struct.std::_Tuple_impl.27"*, align 8
  store %"struct.std::_Tuple_impl.27"* %0, %"struct.std::_Tuple_impl.27"** %2, align 8
  call void @llvm.dbg.declare(metadata %"struct.std::_Tuple_impl.27"** %2, metadata !27968, metadata !DIExpression()), !dbg !27969
  %3 = load %"struct.std::_Tuple_impl.27"*, %"struct.std::_Tuple_impl.27"** %2, align 8, !dbg !27970
  %4 = call nonnull align 8 dereferenceable(8) %"struct.c10::ExtraMeta"** @_ZNSt11_Tuple_implILm0EJPN3c109ExtraMetaESt14default_deleteIS1_EEE7_M_headERKS5_(%"struct.std::_Tuple_impl.27"* nonnull align 8 dereferenceable(8) %3) #3, !dbg !27971
  ret %"struct.c10::ExtraMeta"** %4, !dbg !27972
}

; Function Attrs: mustprogress noinline nounwind optnone uwtable
define linkonce_odr dso_local nonnull align 8 dereferenceable(8) %"struct.c10::ExtraMeta"** @_ZNSt11_Tuple_implILm0EJPN3c109ExtraMetaESt14default_deleteIS1_EEE7_M_headERKS5_(%"struct.std::_Tuple_impl.27"* nonnull align 8 dereferenceable(8) %0) #6 comdat align 2 !dbg !27973 {
  %2 = alloca %"struct.std::_Tuple_impl.27"*, align 8
  store %"struct.std::_Tuple_impl.27"* %0, %"struct.std::_Tuple_impl.27"** %2, align 8
  call void @llvm.dbg.declare(metadata %"struct.std::_Tuple_impl.27"** %2, metadata !27974, metadata !DIExpression()), !dbg !27975
  %3 = load %"struct.std::_Tuple_impl.27"*, %"struct.std::_Tuple_impl.27"** %2, align 8, !dbg !27976
  %4 = bitcast %"struct.std::_Tuple_impl.27"* %3 to %"struct.std::_Head_base.30"*, !dbg !27976
  %5 = call nonnull align 8 dereferenceable(8) %"struct.c10::ExtraMeta"** @_ZNSt10_Head_baseILm0EPN3c109ExtraMetaELb0EE7_M_headERKS3_(%"struct.std::_Head_base.30"* nonnull align 8 dereferenceable(8) %4) #3, !dbg !27977
  ret %"struct.c10::ExtraMeta"** %5, !dbg !27978
}

; Function Attrs: mustprogress noinline nounwind optnone uwtable
define linkonce_odr dso_local nonnull align 8 dereferenceable(8) %"struct.c10::ExtraMeta"** @_ZNSt10_Head_baseILm0EPN3c109ExtraMetaELb0EE7_M_headERKS3_(%"struct.std::_Head_base.30"* nonnull align 8 dereferenceable(8) %0) #6 comdat align 2 !dbg !27979 {
  %2 = alloca %"struct.std::_Head_base.30"*, align 8
  store %"struct.std::_Head_base.30"* %0, %"struct.std::_Head_base.30"** %2, align 8
  call void @llvm.dbg.declare(metadata %"struct.std::_Head_base.30"** %2, metadata !27980, metadata !DIExpression()), !dbg !27981
  %3 = load %"struct.std::_Head_base.30"*, %"struct.std::_Head_base.30"** %2, align 8, !dbg !27982
  %4 = getelementptr inbounds %"struct.std::_Head_base.30", %"struct.std::_Head_base.30"* %3, i32 0, i32 0, !dbg !27983
  ret %"struct.c10::ExtraMeta"** %4, !dbg !27984
}

; Function Attrs: convergent mustprogress noinline norecurse nounwind optnone
define dso_local void @_Z36dynamic_scaled_int8_azp_quant_kernelIffiEvPKT_PaPT0_PT1_i(float* noalias %0, i8* noalias %1, float* %2, i32* %3, i32 %4) #13 !dbg !9 {
  %6 = alloca float, align 4
  %7 = alloca float*, align 8
  %8 = alloca i8*, align 8
  %9 = alloca float*, align 8
  %10 = alloca i32*, align 8
  %11 = alloca i32, align 4
  %12 = alloca i32, align 4
  %13 = alloca float, align 4
  %14 = alloca float, align 4
  %15 = alloca i32, align 4
  %16 = alloca float, align 4
  %17 = alloca float, align 4
  %18 = alloca float, align 4
  %19 = alloca i32, align 4
  %20 = alloca float, align 4
  %21 = alloca i32, align 4
  %22 = alloca i32, align 4
  %23 = alloca float, align 4
  %24 = alloca i8, align 1
  store float* %0, float** %7, align 8
  call void @llvm.dbg.declare(metadata float** %7, metadata !27985, metadata !DIExpression()), !dbg !27986
  store i8* %1, i8** %8, align 8
  call void @llvm.dbg.declare(metadata i8** %8, metadata !27987, metadata !DIExpression()), !dbg !27988
  store float* %2, float** %9, align 8
  call void @llvm.dbg.declare(metadata float** %9, metadata !27989, metadata !DIExpression()), !dbg !27990
  store i32* %3, i32** %10, align 8
  call void @llvm.dbg.declare(metadata i32** %10, metadata !27991, metadata !DIExpression()), !dbg !27992
  store i32 %4, i32* %11, align 4
  call void @llvm.dbg.declare(metadata i32* %11, metadata !27993, metadata !DIExpression()), !dbg !27994
  call void @llvm.dbg.declare(metadata i32* %12, metadata !27995, metadata !DIExpression()), !dbg !27996
  %25 = call i32 @llvm.nvvm.read.ptx.sreg.ctaid.x() #3, !dbg !27997
  store i32 %25, i32* %12, align 4, !dbg !27996
  call void @llvm.dbg.declare(metadata float* %13, metadata !28000, metadata !DIExpression()), !dbg !28001
  store float 0xC7EFFFFFE0000000, float* %13, align 4, !dbg !28001
  call void @llvm.dbg.declare(metadata float* %14, metadata !28002, metadata !DIExpression()), !dbg !28003
  store float 0x47EFFFFFE0000000, float* %14, align 4, !dbg !28003
  call void @llvm.dbg.declare(metadata i32* %15, metadata !28004, metadata !DIExpression()), !dbg !28006
  %26 = call i32 @llvm.nvvm.read.ptx.sreg.tid.x() #3, !dbg !28007
  store i32 %26, i32* %15, align 4, !dbg !28006
  br label %27, !dbg !28010

27:                                               ; preds = %59, %5
  %28 = load i32, i32* %15, align 4, !dbg !28011
  %29 = load i32, i32* %11, align 4, !dbg !28013
  %30 = icmp slt i32 %28, %29, !dbg !28014
  br i1 %30, label %31, label %63, !dbg !28015

31:                                               ; preds = %27
  call void @llvm.dbg.declare(metadata float* %16, metadata !28016, metadata !DIExpression()), !dbg !28018
  %32 = load float*, float** %7, align 8, !dbg !28019
  %33 = load i32, i32* %12, align 4, !dbg !28020
  %34 = load i32, i32* %11, align 4, !dbg !28021
  %35 = mul nsw i32 %33, %34, !dbg !28022
  %36 = load i32, i32* %15, align 4, !dbg !28023
  %37 = add nsw i32 %35, %36, !dbg !28024
  %38 = sext i32 %37 to i64, !dbg !28019
  %39 = getelementptr inbounds float, float* %32, i64 %38, !dbg !28019
  %40 = load float, float* %39, align 4, !dbg !28019
  store float %40, float* %16, align 4, !dbg !28018
  %41 = load float, float* %16, align 4, !dbg !28025
  %42 = load float, float* %13, align 4, !dbg !28026
  %43 = fcmp contract ogt float %41, %42, !dbg !28027
  br i1 %43, label %44, label %46, !dbg !28025

44:                                               ; preds = %31
  %45 = load float, float* %16, align 4, !dbg !28028
  br label %48, !dbg !28025

46:                                               ; preds = %31
  %47 = load float, float* %13, align 4, !dbg !28029
  br label %48, !dbg !28025

48:                                               ; preds = %46, %44
  %49 = phi contract float [ %45, %44 ], [ %47, %46 ], !dbg !28025
  store float %49, float* %13, align 4, !dbg !28030
  %50 = load float, float* %16, align 4, !dbg !28031
  %51 = load float, float* %14, align 4, !dbg !28032
  %52 = fcmp contract olt float %50, %51, !dbg !28033
  br i1 %52, label %53, label %55, !dbg !28031

53:                                               ; preds = %48
  %54 = load float, float* %16, align 4, !dbg !28034
  br label %57, !dbg !28031

55:                                               ; preds = %48
  %56 = load float, float* %14, align 4, !dbg !28035
  br label %57, !dbg !28031

57:                                               ; preds = %55, %53
  %58 = phi contract float [ %54, %53 ], [ %56, %55 ], !dbg !28031
  store float %58, float* %14, align 4, !dbg !28036
  br label %59, !dbg !28037

59:                                               ; preds = %57
  %60 = call i32 @llvm.nvvm.read.ptx.sreg.ntid.x() #3, !dbg !28038
  %61 = load i32, i32* %15, align 4, !dbg !28041
  %62 = add i32 %61, %60, !dbg !28041
  store i32 %62, i32* %15, align 4, !dbg !28041
  br label %27, !dbg !28042, !llvm.loop !28043

63:                                               ; preds = %27
  %64 = load float, float* %13, align 4, !dbg !28046
  %65 = call contract float @_Z14blockReduceMaxILi1024EEff(float %64) #16, !dbg !28047
  store float %65, float* %13, align 4, !dbg !28048
  call void @llvm.nvvm.barrier0(), !dbg !28049
  %66 = load float, float* %14, align 4, !dbg !28050
  %67 = call contract float @_Z14blockReduceMinILi1024EEff(float %66) #16, !dbg !28051
  store float %67, float* %14, align 4, !dbg !28052
  %68 = call i32 @llvm.nvvm.read.ptx.sreg.tid.x() #3, !dbg !28053
  %69 = icmp eq i32 %68, 0, !dbg !28056
  br i1 %69, label %70, label %93, !dbg !28057

70:                                               ; preds = %63
  call void @llvm.dbg.declare(metadata float* %17, metadata !28058, metadata !DIExpression()), !dbg !28060
  %71 = load float, float* %13, align 4, !dbg !28061
  %72 = load float, float* %14, align 4, !dbg !28062
  %73 = fsub contract float %71, %72, !dbg !28063
  %74 = fdiv contract float %73, 2.550000e+02, !dbg !28064
  store float %74, float* %17, align 4, !dbg !28060
  call void @llvm.dbg.declare(metadata float* %18, metadata !28065, metadata !DIExpression()), !dbg !28066
  %75 = load float, float* %14, align 4, !dbg !28067
  %76 = load float, float* %17, align 4, !dbg !28068
  %77 = fdiv contract float %75, %76, !dbg !28069
  %78 = fsub contract float -1.280000e+02, %77, !dbg !28070
  store float %78, float* %6, align 4
  call void @llvm.dbg.declare(metadata float* %6, metadata !28071, metadata !DIExpression()) #3, !dbg !28072
  %79 = load float, float* %6, align 4, !dbg !28074
  %80 = call contract float @llvm.nearbyint.f32(float %79) #3, !dbg !28075
  store float %80, float* %18, align 4, !dbg !28066
  call void @llvm.dbg.declare(metadata i32* %19, metadata !28076, metadata !DIExpression()), !dbg !28077
  %81 = load float, float* %18, align 4, !dbg !28078
  %82 = fptosi float %81 to i32, !dbg !28078
  store i32 %82, i32* %19, align 4, !dbg !28077
  %83 = load float, float* %17, align 4, !dbg !28079
  store float %83, float* addrspacecast (float addrspace(3)* @_ZZ36dynamic_scaled_int8_azp_quant_kernelIffiEvPKT_PaPT0_PT1_iE8scale_sh to float*), align 4, !dbg !28080
  %84 = load float*, float** %9, align 8, !dbg !28081
  %85 = load i32, i32* %12, align 4, !dbg !28082
  %86 = sext i32 %85 to i64, !dbg !28081
  %87 = getelementptr inbounds float, float* %84, i64 %86, !dbg !28081
  store float %83, float* %87, align 4, !dbg !28083
  %88 = load i32, i32* %19, align 4, !dbg !28084
  store i32 %88, i32* addrspacecast (i32 addrspace(3)* @_ZZ36dynamic_scaled_int8_azp_quant_kernelIffiEvPKT_PaPT0_PT1_iE6azp_sh to i32*), align 4, !dbg !28085
  %89 = load i32*, i32** %10, align 8, !dbg !28086
  %90 = load i32, i32* %12, align 4, !dbg !28087
  %91 = sext i32 %90 to i64, !dbg !28086
  %92 = getelementptr inbounds i32, i32* %89, i64 %91, !dbg !28086
  store i32 %88, i32* %92, align 4, !dbg !28088
  br label %93, !dbg !28089

93:                                               ; preds = %70, %63
  call void @llvm.nvvm.barrier0(), !dbg !28090
  call void @llvm.dbg.declare(metadata float* %20, metadata !28091, metadata !DIExpression()), !dbg !28092
  %94 = load float, float* addrspacecast (float addrspace(3)* @_ZZ36dynamic_scaled_int8_azp_quant_kernelIffiEvPKT_PaPT0_PT1_iE8scale_sh to float*), align 4, !dbg !28093
  store float %94, float* %20, align 4, !dbg !28092
  call void @llvm.dbg.declare(metadata i32* %21, metadata !28094, metadata !DIExpression()), !dbg !28095
  %95 = load i32, i32* addrspacecast (i32 addrspace(3)* @_ZZ36dynamic_scaled_int8_azp_quant_kernelIffiEvPKT_PaPT0_PT1_iE6azp_sh to i32*), align 4, !dbg !28096
  store i32 %95, i32* %21, align 4, !dbg !28095
  call void @llvm.dbg.declare(metadata i32* %22, metadata !28097, metadata !DIExpression()), !dbg !28099
  %96 = call i32 @llvm.nvvm.read.ptx.sreg.tid.x() #3, !dbg !28100
  store i32 %96, i32* %22, align 4, !dbg !28099
  br label %97, !dbg !28102

97:                                               ; preds = %127, %93
  %98 = load i32, i32* %22, align 4, !dbg !28103
  %99 = load i32, i32* %11, align 4, !dbg !28105
  %100 = icmp slt i32 %98, %99, !dbg !28106
  br i1 %100, label %101, label %131, !dbg !28107

101:                                              ; preds = %97
  call void @llvm.dbg.declare(metadata float* %23, metadata !28108, metadata !DIExpression()), !dbg !28110
  %102 = load float*, float** %7, align 8, !dbg !28111
  %103 = load i32, i32* %12, align 4, !dbg !28112
  %104 = load i32, i32* %11, align 4, !dbg !28113
  %105 = mul nsw i32 %103, %104, !dbg !28114
  %106 = load i32, i32* %22, align 4, !dbg !28115
  %107 = add nsw i32 %105, %106, !dbg !28116
  %108 = sext i32 %107 to i64, !dbg !28111
  %109 = getelementptr inbounds float, float* %102, i64 %108, !dbg !28111
  %110 = load float, float* %109, align 4, !dbg !28111
  store float %110, float* %23, align 4, !dbg !28110
  call void @llvm.dbg.declare(metadata i8* %24, metadata !28117, metadata !DIExpression()), !dbg !28119
  %111 = load float, float* %23, align 4, !dbg !28120
  %112 = load float, float* %20, align 4, !dbg !28121
  %113 = fdiv contract float %111, %112, !dbg !28122
  %114 = call i32 @_Z17float_to_int32_rnf(float %113) #16, !dbg !28123
  %115 = load i32, i32* %21, align 4, !dbg !28124
  %116 = add nsw i32 %114, %115, !dbg !28125
  %117 = call signext i8 @_Z13int32_to_int8i(i32 %116) #16, !dbg !28126
  store i8 %117, i8* %24, align 1, !dbg !28119
  %118 = load i8, i8* %24, align 1, !dbg !28127
  %119 = load i8*, i8** %8, align 8, !dbg !28128
  %120 = load i32, i32* %12, align 4, !dbg !28129
  %121 = load i32, i32* %11, align 4, !dbg !28130
  %122 = mul nsw i32 %120, %121, !dbg !28131
  %123 = load i32, i32* %22, align 4, !dbg !28132
  %124 = add nsw i32 %122, %123, !dbg !28133
  %125 = sext i32 %124 to i64, !dbg !28128
  %126 = getelementptr inbounds i8, i8* %119, i64 %125, !dbg !28128
  store i8 %118, i8* %126, align 1, !dbg !28134
  br label %127, !dbg !28135

127:                                              ; preds = %101
  %128 = call i32 @llvm.nvvm.read.ptx.sreg.ntid.x() #3, !dbg !28136
  %129 = load i32, i32* %22, align 4, !dbg !28138
  %130 = add i32 %129, %128, !dbg !28138
  store i32 %130, i32* %22, align 4, !dbg !28138
  br label %97, !dbg !28139, !llvm.loop !28140

131:                                              ; preds = %97
  ret void, !dbg !28142
}

; Function Attrs: nounwind readnone
declare i32 @llvm.nvvm.read.ptx.sreg.ctaid.x() #14

; Function Attrs: nounwind readnone
declare i32 @llvm.nvvm.read.ptx.sreg.tid.x() #14

; Function Attrs: nounwind readnone
declare i32 @llvm.nvvm.read.ptx.sreg.ntid.x() #14

; Function Attrs: convergent mustprogress noinline nounwind optnone
define linkonce_odr dso_local float @_Z14blockReduceMaxILi1024EEff(float %0) #15 comdat !dbg !4371 {
  %2 = alloca float, align 4
  %3 = alloca i32, align 4
  %4 = alloca i32, align 4
  store float %0, float* %2, align 4
  call void @llvm.dbg.declare(metadata float* %2, metadata !28143, metadata !DIExpression()), !dbg !28144
  call void @llvm.dbg.declare(metadata i32* %3, metadata !28145, metadata !DIExpression()), !dbg !28146
  %5 = call i32 @llvm.nvvm.read.ptx.sreg.tid.x() #3, !dbg !28147
  store i32 %5, i32* %3, align 4, !dbg !28146
  %6 = load float, float* %2, align 4, !dbg !28149
  %7 = load i32, i32* %3, align 4, !dbg !28150
  %8 = sext i32 %7 to i64, !dbg !28151
  %9 = getelementptr inbounds [1024 x float], [1024 x float]* addrspacecast ([1024 x float] addrspace(3)* @_ZZ14blockReduceMaxILi1024EEffE6shared to [1024 x float]*), i64 0, i64 %8, !dbg !28151
  store float %6, float* %9, align 4, !dbg !28152
  call void @llvm.nvvm.barrier0(), !dbg !28153
  call void @llvm.dbg.declare(metadata i32* %4, metadata !28154, metadata !DIExpression()), !dbg !28156
  store i32 512, i32* %4, align 4, !dbg !28156
  br label %10, !dbg !28157

10:                                               ; preds = %47, %1
  %11 = load i32, i32* %4, align 4, !dbg !28158
  %12 = icmp sgt i32 %11, 0, !dbg !28160
  br i1 %12, label %13, label %50, !dbg !28161

13:                                               ; preds = %10
  %14 = load i32, i32* %3, align 4, !dbg !28162
  %15 = load i32, i32* %4, align 4, !dbg !28165
  %16 = icmp slt i32 %14, %15, !dbg !28166
  br i1 %16, label %17, label %46, !dbg !28167

17:                                               ; preds = %13
  %18 = load i32, i32* %3, align 4, !dbg !28168
  %19 = sext i32 %18 to i64, !dbg !28170
  %20 = getelementptr inbounds [1024 x float], [1024 x float]* addrspacecast ([1024 x float] addrspace(3)* @_ZZ14blockReduceMaxILi1024EEffE6shared to [1024 x float]*), i64 0, i64 %19, !dbg !28170
  %21 = load float, float* %20, align 4, !dbg !28170
  %22 = load i32, i32* %3, align 4, !dbg !28171
  %23 = load i32, i32* %4, align 4, !dbg !28172
  %24 = add nsw i32 %22, %23, !dbg !28173
  %25 = sext i32 %24 to i64, !dbg !28174
  %26 = getelementptr inbounds [1024 x float], [1024 x float]* addrspacecast ([1024 x float] addrspace(3)* @_ZZ14blockReduceMaxILi1024EEffE6shared to [1024 x float]*), i64 0, i64 %25, !dbg !28174
  %27 = load float, float* %26, align 4, !dbg !28174
  %28 = fcmp contract ogt float %21, %27, !dbg !28175
  br i1 %28, label %29, label %34, !dbg !28170

29:                                               ; preds = %17
  %30 = load i32, i32* %3, align 4, !dbg !28176
  %31 = sext i32 %30 to i64, !dbg !28177
  %32 = getelementptr inbounds [1024 x float], [1024 x float]* addrspacecast ([1024 x float] addrspace(3)* @_ZZ14blockReduceMaxILi1024EEffE6shared to [1024 x float]*), i64 0, i64 %31, !dbg !28177
  %33 = load float, float* %32, align 4, !dbg !28177
  br label %41, !dbg !28170

34:                                               ; preds = %17
  %35 = load i32, i32* %3, align 4, !dbg !28178
  %36 = load i32, i32* %4, align 4, !dbg !28179
  %37 = add nsw i32 %35, %36, !dbg !28180
  %38 = sext i32 %37 to i64, !dbg !28181
  %39 = getelementptr inbounds [1024 x float], [1024 x float]* addrspacecast ([1024 x float] addrspace(3)* @_ZZ14blockReduceMaxILi1024EEffE6shared to [1024 x float]*), i64 0, i64 %38, !dbg !28181
  %40 = load float, float* %39, align 4, !dbg !28181
  br label %41, !dbg !28170

41:                                               ; preds = %34, %29
  %42 = phi contract float [ %33, %29 ], [ %40, %34 ], !dbg !28170
  %43 = load i32, i32* %3, align 4, !dbg !28182
  %44 = sext i32 %43 to i64, !dbg !28183
  %45 = getelementptr inbounds [1024 x float], [1024 x float]* addrspacecast ([1024 x float] addrspace(3)* @_ZZ14blockReduceMaxILi1024EEffE6shared to [1024 x float]*), i64 0, i64 %44, !dbg !28183
  store float %42, float* %45, align 4, !dbg !28184
  br label %46, !dbg !28185

46:                                               ; preds = %41, %13
  call void @llvm.nvvm.barrier0(), !dbg !28186
  br label %47, !dbg !28187

47:                                               ; preds = %46
  %48 = load i32, i32* %4, align 4, !dbg !28188
  %49 = ashr i32 %48, 1, !dbg !28188
  store i32 %49, i32* %4, align 4, !dbg !28188
  br label %10, !dbg !28189, !llvm.loop !28190

50:                                               ; preds = %10
  %51 = load float, float* getelementptr inbounds ([1024 x float], [1024 x float]* addrspacecast ([1024 x float] addrspace(3)* @_ZZ14blockReduceMaxILi1024EEffE6shared to [1024 x float]*), i64 0, i64 0), align 4, !dbg !28192
  ret float %51, !dbg !28193
}

; Function Attrs: convergent nounwind
declare void @llvm.nvvm.barrier0() #16

; Function Attrs: convergent mustprogress noinline nounwind optnone
define linkonce_odr dso_local float @_Z14blockReduceMinILi1024EEff(float %0) #15 comdat !dbg !4381 {
  %2 = alloca float, align 4
  %3 = alloca i32, align 4
  %4 = alloca i32, align 4
  store float %0, float* %2, align 4
  call void @llvm.dbg.declare(metadata float* %2, metadata !28194, metadata !DIExpression()), !dbg !28195
  call void @llvm.dbg.declare(metadata i32* %3, metadata !28196, metadata !DIExpression()), !dbg !28197
  %5 = call i32 @llvm.nvvm.read.ptx.sreg.tid.x() #3, !dbg !28198
  store i32 %5, i32* %3, align 4, !dbg !28197
  %6 = load float, float* %2, align 4, !dbg !28200
  %7 = load i32, i32* %3, align 4, !dbg !28201
  %8 = sext i32 %7 to i64, !dbg !28202
  %9 = getelementptr inbounds [1024 x float], [1024 x float]* addrspacecast ([1024 x float] addrspace(3)* @_ZZ14blockReduceMinILi1024EEffE6shared to [1024 x float]*), i64 0, i64 %8, !dbg !28202
  store float %6, float* %9, align 4, !dbg !28203
  call void @llvm.nvvm.barrier0(), !dbg !28204
  call void @llvm.dbg.declare(metadata i32* %4, metadata !28205, metadata !DIExpression()), !dbg !28207
  store i32 512, i32* %4, align 4, !dbg !28207
  br label %10, !dbg !28208

10:                                               ; preds = %47, %1
  %11 = load i32, i32* %4, align 4, !dbg !28209
  %12 = icmp sgt i32 %11, 0, !dbg !28211
  br i1 %12, label %13, label %50, !dbg !28212

13:                                               ; preds = %10
  %14 = load i32, i32* %3, align 4, !dbg !28213
  %15 = load i32, i32* %4, align 4, !dbg !28216
  %16 = icmp slt i32 %14, %15, !dbg !28217
  br i1 %16, label %17, label %46, !dbg !28218

17:                                               ; preds = %13
  %18 = load i32, i32* %3, align 4, !dbg !28219
  %19 = sext i32 %18 to i64, !dbg !28221
  %20 = getelementptr inbounds [1024 x float], [1024 x float]* addrspacecast ([1024 x float] addrspace(3)* @_ZZ14blockReduceMinILi1024EEffE6shared to [1024 x float]*), i64 0, i64 %19, !dbg !28221
  %21 = load float, float* %20, align 4, !dbg !28221
  %22 = load i32, i32* %3, align 4, !dbg !28222
  %23 = load i32, i32* %4, align 4, !dbg !28223
  %24 = add nsw i32 %22, %23, !dbg !28224
  %25 = sext i32 %24 to i64, !dbg !28225
  %26 = getelementptr inbounds [1024 x float], [1024 x float]* addrspacecast ([1024 x float] addrspace(3)* @_ZZ14blockReduceMinILi1024EEffE6shared to [1024 x float]*), i64 0, i64 %25, !dbg !28225
  %27 = load float, float* %26, align 4, !dbg !28225
  %28 = fcmp contract olt float %21, %27, !dbg !28226
  br i1 %28, label %29, label %34, !dbg !28221

29:                                               ; preds = %17
  %30 = load i32, i32* %3, align 4, !dbg !28227
  %31 = sext i32 %30 to i64, !dbg !28228
  %32 = getelementptr inbounds [1024 x float], [1024 x float]* addrspacecast ([1024 x float] addrspace(3)* @_ZZ14blockReduceMinILi1024EEffE6shared to [1024 x float]*), i64 0, i64 %31, !dbg !28228
  %33 = load float, float* %32, align 4, !dbg !28228
  br label %41, !dbg !28221

34:                                               ; preds = %17
  %35 = load i32, i32* %3, align 4, !dbg !28229
  %36 = load i32, i32* %4, align 4, !dbg !28230
  %37 = add nsw i32 %35, %36, !dbg !28231
  %38 = sext i32 %37 to i64, !dbg !28232
  %39 = getelementptr inbounds [1024 x float], [1024 x float]* addrspacecast ([1024 x float] addrspace(3)* @_ZZ14blockReduceMinILi1024EEffE6shared to [1024 x float]*), i64 0, i64 %38, !dbg !28232
  %40 = load float, float* %39, align 4, !dbg !28232
  br label %41, !dbg !28221

41:                                               ; preds = %34, %29
  %42 = phi contract float [ %33, %29 ], [ %40, %34 ], !dbg !28221
  %43 = load i32, i32* %3, align 4, !dbg !28233
  %44 = sext i32 %43 to i64, !dbg !28234
  %45 = getelementptr inbounds [1024 x float], [1024 x float]* addrspacecast ([1024 x float] addrspace(3)* @_ZZ14blockReduceMinILi1024EEffE6shared to [1024 x float]*), i64 0, i64 %44, !dbg !28234
  store float %42, float* %45, align 4, !dbg !28235
  br label %46, !dbg !28236

46:                                               ; preds = %41, %13
  call void @llvm.nvvm.barrier0(), !dbg !28237
  br label %47, !dbg !28238

47:                                               ; preds = %46
  %48 = load i32, i32* %4, align 4, !dbg !28239
  %49 = ashr i32 %48, 1, !dbg !28239
  store i32 %49, i32* %4, align 4, !dbg !28239
  br label %10, !dbg !28240, !llvm.loop !28241

50:                                               ; preds = %10
  %51 = load float, float* getelementptr inbounds ([1024 x float], [1024 x float]* addrspacecast ([1024 x float] addrspace(3)* @_ZZ14blockReduceMinILi1024EEffE6shared to [1024 x float]*), i64 0, i64 0), align 4, !dbg !28243
  ret float %51, !dbg !28244
}

; Function Attrs: nofree nosync nounwind readnone speculatable willreturn
declare float @llvm.nearbyint.f32(float) #5

; Function Attrs: convergent noinline nounwind optnone
define linkonce_odr dso_local i32 @_Z17float_to_int32_rnf(float %0) #17 comdat !dbg !28245 {
  %2 = alloca float, align 4
  %3 = alloca float, align 4
  store float %0, float* %3, align 4
  call void @llvm.dbg.declare(metadata float* %3, metadata !28248, metadata !DIExpression()), !dbg !28249
  %4 = load float, float* %3, align 4, !dbg !28250
  store float %4, float* %2, align 4
  call void @llvm.dbg.declare(metadata float* %2, metadata !28251, metadata !DIExpression()) #3, !dbg !28253
  %5 = load float, float* %2, align 4, !dbg !28255
  %6 = call i32 @llvm.nvvm.f2i.rn(float %5) #3, !dbg !28256
  ret i32 %6, !dbg !28257
}

; Function Attrs: convergent mustprogress noinline nounwind optnone
define linkonce_odr dso_local signext i8 @_Z13int32_to_int8i(i32 %0) #15 comdat !dbg !28258 {
  %2 = alloca i8, align 1
  %3 = alloca i32, align 4
  store i32 %0, i32* %3, align 4
  call void @llvm.dbg.declare(metadata i32* %3, metadata !28261, metadata !DIExpression()), !dbg !28262
  %4 = load i32, i32* %3, align 4, !dbg !28263
  %5 = icmp slt i32 %4, -128, !dbg !28265
  br i1 %5, label %6, label %7, !dbg !28266

6:                                                ; preds = %1
  store i8 -128, i8* %2, align 1, !dbg !28267
  br label %14, !dbg !28267

7:                                                ; preds = %1
  %8 = load i32, i32* %3, align 4, !dbg !28268
  %9 = icmp sgt i32 %8, 127, !dbg !28270
  br i1 %9, label %10, label %11, !dbg !28271

10:                                               ; preds = %7
  store i8 127, i8* %2, align 1, !dbg !28272
  br label %14, !dbg !28272

11:                                               ; preds = %7
  %12 = load i32, i32* %3, align 4, !dbg !28273
  %13 = trunc i32 %12 to i8, !dbg !28273
  store i8 %13, i8* %2, align 1, !dbg !28274
  br label %14, !dbg !28274

14:                                               ; preds = %11, %10, %6
  %15 = load i8, i8* %2, align 1, !dbg !28275
  ret i8 %15, !dbg !28275
}

; Function Attrs: nounwind readnone
declare i32 @llvm.nvvm.f2i.rn(float) #14

; Function Attrs: convergent mustprogress noinline norecurse nounwind optnone
define dso_local void @_Z36dynamic_scaled_int8_azp_quant_kernelIN3c104HalfEfiEvPKT_PaPT0_PT1_i(%"class.caffe2::TypeMeta"* noalias %0, i8* noalias %1, float* %2, i32* %3, i32 %4) #13 !dbg !4384 {
  %6 = alloca float, align 4
  %7 = alloca %"class.caffe2::TypeMeta"*, align 8
  %8 = alloca i8*, align 8
  %9 = alloca float*, align 8
  %10 = alloca i32*, align 8
  %11 = alloca i32, align 4
  %12 = alloca i32, align 4
  %13 = alloca float, align 4
  %14 = alloca float, align 4
  %15 = alloca i32, align 4
  %16 = alloca float, align 4
  %17 = alloca float, align 4
  %18 = alloca float, align 4
  %19 = alloca i32, align 4
  %20 = alloca float, align 4
  %21 = alloca i32, align 4
  %22 = alloca i32, align 4
  %23 = alloca float, align 4
  %24 = alloca i8, align 1
  store %"class.caffe2::TypeMeta"* %0, %"class.caffe2::TypeMeta"** %7, align 8
  call void @llvm.dbg.declare(metadata %"class.caffe2::TypeMeta"** %7, metadata !28276, metadata !DIExpression()), !dbg !28277
  store i8* %1, i8** %8, align 8
  call void @llvm.dbg.declare(metadata i8** %8, metadata !28278, metadata !DIExpression()), !dbg !28279
  store float* %2, float** %9, align 8
  call void @llvm.dbg.declare(metadata float** %9, metadata !28280, metadata !DIExpression()), !dbg !28281
  store i32* %3, i32** %10, align 8
  call void @llvm.dbg.declare(metadata i32** %10, metadata !28282, metadata !DIExpression()), !dbg !28283
  store i32 %4, i32* %11, align 4
  call void @llvm.dbg.declare(metadata i32* %11, metadata !28284, metadata !DIExpression()), !dbg !28285
  call void @llvm.dbg.declare(metadata i32* %12, metadata !28286, metadata !DIExpression()), !dbg !28287
  %25 = call i32 @llvm.nvvm.read.ptx.sreg.ctaid.x() #3, !dbg !28288
  store i32 %25, i32* %12, align 4, !dbg !28287
  call void @llvm.dbg.declare(metadata float* %13, metadata !28290, metadata !DIExpression()), !dbg !28291
  store float 0xC7EFFFFFE0000000, float* %13, align 4, !dbg !28291
  call void @llvm.dbg.declare(metadata float* %14, metadata !28292, metadata !DIExpression()), !dbg !28293
  store float 0x47EFFFFFE0000000, float* %14, align 4, !dbg !28293
  call void @llvm.dbg.declare(metadata i32* %15, metadata !28294, metadata !DIExpression()), !dbg !28296
  %26 = call i32 @llvm.nvvm.read.ptx.sreg.tid.x() #3, !dbg !28297
  store i32 %26, i32* %15, align 4, !dbg !28296
  br label %27, !dbg !28299

27:                                               ; preds = %59, %5
  %28 = load i32, i32* %15, align 4, !dbg !28300
  %29 = load i32, i32* %11, align 4, !dbg !28302
  %30 = icmp slt i32 %28, %29, !dbg !28303
  br i1 %30, label %31, label %63, !dbg !28304

31:                                               ; preds = %27
  call void @llvm.dbg.declare(metadata float* %16, metadata !28305, metadata !DIExpression()), !dbg !28307
  %32 = load %"class.caffe2::TypeMeta"*, %"class.caffe2::TypeMeta"** %7, align 8, !dbg !28308
  %33 = load i32, i32* %12, align 4, !dbg !28309
  %34 = load i32, i32* %11, align 4, !dbg !28310
  %35 = mul nsw i32 %33, %34, !dbg !28311
  %36 = load i32, i32* %15, align 4, !dbg !28312
  %37 = add nsw i32 %35, %36, !dbg !28313
  %38 = sext i32 %37 to i64, !dbg !28308
  %39 = getelementptr inbounds %"class.caffe2::TypeMeta", %"class.caffe2::TypeMeta"* %32, i64 %38, !dbg !28308
  %40 = call contract float @_ZNK3c104HalfcvfEv(%"class.caffe2::TypeMeta"* nonnull align 2 dereferenceable(2) %39) #16, !dbg !28308
  store float %40, float* %16, align 4, !dbg !28307
  %41 = load float, float* %16, align 4, !dbg !28314
  %42 = load float, float* %13, align 4, !dbg !28315
  %43 = fcmp contract ogt float %41, %42, !dbg !28316
  br i1 %43, label %44, label %46, !dbg !28314

44:                                               ; preds = %31
  %45 = load float, float* %16, align 4, !dbg !28317
  br label %48, !dbg !28314

46:                                               ; preds = %31
  %47 = load float, float* %13, align 4, !dbg !28318
  br label %48, !dbg !28314

48:                                               ; preds = %46, %44
  %49 = phi contract float [ %45, %44 ], [ %47, %46 ], !dbg !28314
  store float %49, float* %13, align 4, !dbg !28319
  %50 = load float, float* %16, align 4, !dbg !28320
  %51 = load float, float* %14, align 4, !dbg !28321
  %52 = fcmp contract olt float %50, %51, !dbg !28322
  br i1 %52, label %53, label %55, !dbg !28320

53:                                               ; preds = %48
  %54 = load float, float* %16, align 4, !dbg !28323
  br label %57, !dbg !28320

55:                                               ; preds = %48
  %56 = load float, float* %14, align 4, !dbg !28324
  br label %57, !dbg !28320

57:                                               ; preds = %55, %53
  %58 = phi contract float [ %54, %53 ], [ %56, %55 ], !dbg !28320
  store float %58, float* %14, align 4, !dbg !28325
  br label %59, !dbg !28326

59:                                               ; preds = %57
  %60 = call i32 @llvm.nvvm.read.ptx.sreg.ntid.x() #3, !dbg !28327
  %61 = load i32, i32* %15, align 4, !dbg !28329
  %62 = add i32 %61, %60, !dbg !28329
  store i32 %62, i32* %15, align 4, !dbg !28329
  br label %27, !dbg !28330, !llvm.loop !28331

63:                                               ; preds = %27
  %64 = load float, float* %13, align 4, !dbg !28333
  %65 = call contract float @_Z14blockReduceMaxILi1024EEff(float %64) #16, !dbg !28334
  store float %65, float* %13, align 4, !dbg !28335
  call void @llvm.nvvm.barrier0(), !dbg !28336
  %66 = load float, float* %14, align 4, !dbg !28337
  %67 = call contract float @_Z14blockReduceMinILi1024EEff(float %66) #16, !dbg !28338
  store float %67, float* %14, align 4, !dbg !28339
  %68 = call i32 @llvm.nvvm.read.ptx.sreg.tid.x() #3, !dbg !28340
  %69 = icmp eq i32 %68, 0, !dbg !28343
  br i1 %69, label %70, label %93, !dbg !28344

70:                                               ; preds = %63
  call void @llvm.dbg.declare(metadata float* %17, metadata !28345, metadata !DIExpression()), !dbg !28347
  %71 = load float, float* %13, align 4, !dbg !28348
  %72 = load float, float* %14, align 4, !dbg !28349
  %73 = fsub contract float %71, %72, !dbg !28350
  %74 = fdiv contract float %73, 2.550000e+02, !dbg !28351
  store float %74, float* %17, align 4, !dbg !28347
  call void @llvm.dbg.declare(metadata float* %18, metadata !28352, metadata !DIExpression()), !dbg !28353
  %75 = load float, float* %14, align 4, !dbg !28354
  %76 = load float, float* %17, align 4, !dbg !28355
  %77 = fdiv contract float %75, %76, !dbg !28356
  %78 = fsub contract float -1.280000e+02, %77, !dbg !28357
  store float %78, float* %6, align 4
  call void @llvm.dbg.declare(metadata float* %6, metadata !28071, metadata !DIExpression()) #3, !dbg !28358
  %79 = load float, float* %6, align 4, !dbg !28360
  %80 = call contract float @llvm.nearbyint.f32(float %79) #3, !dbg !28361
  store float %80, float* %18, align 4, !dbg !28353
  call void @llvm.dbg.declare(metadata i32* %19, metadata !28362, metadata !DIExpression()), !dbg !28363
  %81 = load float, float* %18, align 4, !dbg !28364
  %82 = fptosi float %81 to i32, !dbg !28364
  store i32 %82, i32* %19, align 4, !dbg !28363
  %83 = load float, float* %17, align 4, !dbg !28365
  store float %83, float* addrspacecast (float addrspace(3)* @_ZZ36dynamic_scaled_int8_azp_quant_kernelIN3c104HalfEfiEvPKT_PaPT0_PT1_iE8scale_sh to float*), align 4, !dbg !28366
  %84 = load float*, float** %9, align 8, !dbg !28367
  %85 = load i32, i32* %12, align 4, !dbg !28368
  %86 = sext i32 %85 to i64, !dbg !28367
  %87 = getelementptr inbounds float, float* %84, i64 %86, !dbg !28367
  store float %83, float* %87, align 4, !dbg !28369
  %88 = load i32, i32* %19, align 4, !dbg !28370
  store i32 %88, i32* addrspacecast (i32 addrspace(3)* @_ZZ36dynamic_scaled_int8_azp_quant_kernelIN3c104HalfEfiEvPKT_PaPT0_PT1_iE6azp_sh to i32*), align 4, !dbg !28371
  %89 = load i32*, i32** %10, align 8, !dbg !28372
  %90 = load i32, i32* %12, align 4, !dbg !28373
  %91 = sext i32 %90 to i64, !dbg !28372
  %92 = getelementptr inbounds i32, i32* %89, i64 %91, !dbg !28372
  store i32 %88, i32* %92, align 4, !dbg !28374
  br label %93, !dbg !28375

93:                                               ; preds = %70, %63
  call void @llvm.nvvm.barrier0(), !dbg !28376
  call void @llvm.dbg.declare(metadata float* %20, metadata !28377, metadata !DIExpression()), !dbg !28378
  %94 = load float, float* addrspacecast (float addrspace(3)* @_ZZ36dynamic_scaled_int8_azp_quant_kernelIN3c104HalfEfiEvPKT_PaPT0_PT1_iE8scale_sh to float*), align 4, !dbg !28379
  store float %94, float* %20, align 4, !dbg !28378
  call void @llvm.dbg.declare(metadata i32* %21, metadata !28380, metadata !DIExpression()), !dbg !28381
  %95 = load i32, i32* addrspacecast (i32 addrspace(3)* @_ZZ36dynamic_scaled_int8_azp_quant_kernelIN3c104HalfEfiEvPKT_PaPT0_PT1_iE6azp_sh to i32*), align 4, !dbg !28382
  store i32 %95, i32* %21, align 4, !dbg !28381
  call void @llvm.dbg.declare(metadata i32* %22, metadata !28383, metadata !DIExpression()), !dbg !28385
  %96 = call i32 @llvm.nvvm.read.ptx.sreg.tid.x() #3, !dbg !28386
  store i32 %96, i32* %22, align 4, !dbg !28385
  br label %97, !dbg !28388

97:                                               ; preds = %127, %93
  %98 = load i32, i32* %22, align 4, !dbg !28389
  %99 = load i32, i32* %11, align 4, !dbg !28391
  %100 = icmp slt i32 %98, %99, !dbg !28392
  br i1 %100, label %101, label %131, !dbg !28393

101:                                              ; preds = %97
  call void @llvm.dbg.declare(metadata float* %23, metadata !28394, metadata !DIExpression()), !dbg !28396
  %102 = load %"class.caffe2::TypeMeta"*, %"class.caffe2::TypeMeta"** %7, align 8, !dbg !28397
  %103 = load i32, i32* %12, align 4, !dbg !28398
  %104 = load i32, i32* %11, align 4, !dbg !28399
  %105 = mul nsw i32 %103, %104, !dbg !28400
  %106 = load i32, i32* %22, align 4, !dbg !28401
  %107 = add nsw i32 %105, %106, !dbg !28402
  %108 = sext i32 %107 to i64, !dbg !28397
  %109 = getelementptr inbounds %"class.caffe2::TypeMeta", %"class.caffe2::TypeMeta"* %102, i64 %108, !dbg !28397
  %110 = call contract float @_ZNK3c104HalfcvfEv(%"class.caffe2::TypeMeta"* nonnull align 2 dereferenceable(2) %109) #16, !dbg !28397
  store float %110, float* %23, align 4, !dbg !28396
  call void @llvm.dbg.declare(metadata i8* %24, metadata !28403, metadata !DIExpression()), !dbg !28404
  %111 = load float, float* %23, align 4, !dbg !28405
  %112 = load float, float* %20, align 4, !dbg !28406
  %113 = fdiv contract float %111, %112, !dbg !28407
  %114 = call i32 @_Z17float_to_int32_rnf(float %113) #16, !dbg !28408
  %115 = load i32, i32* %21, align 4, !dbg !28409
  %116 = add nsw i32 %114, %115, !dbg !28410
  %117 = call signext i8 @_Z13int32_to_int8i(i32 %116) #16, !dbg !28411
  store i8 %117, i8* %24, align 1, !dbg !28404
  %118 = load i8, i8* %24, align 1, !dbg !28412
  %119 = load i8*, i8** %8, align 8, !dbg !28413
  %120 = load i32, i32* %12, align 4, !dbg !28414
  %121 = load i32, i32* %11, align 4, !dbg !28415
  %122 = mul nsw i32 %120, %121, !dbg !28416
  %123 = load i32, i32* %22, align 4, !dbg !28417
  %124 = add nsw i32 %122, %123, !dbg !28418
  %125 = sext i32 %124 to i64, !dbg !28413
  %126 = getelementptr inbounds i8, i8* %119, i64 %125, !dbg !28413
  store i8 %118, i8* %126, align 1, !dbg !28419
  br label %127, !dbg !28420

127:                                              ; preds = %101
  %128 = call i32 @llvm.nvvm.read.ptx.sreg.ntid.x() #3, !dbg !28421
  %129 = load i32, i32* %22, align 4, !dbg !28423
  %130 = add i32 %129, %128, !dbg !28423
  store i32 %130, i32* %22, align 4, !dbg !28423
  br label %97, !dbg !28424, !llvm.loop !28425

131:                                              ; preds = %97
  ret void, !dbg !28427
}

; Function Attrs: convergent mustprogress noinline nounwind optnone
define linkonce_odr dso_local float @_ZNK3c104HalfcvfEv(%"class.caffe2::TypeMeta"* nonnull align 2 dereferenceable(2) %0) #15 comdat align 2 !dbg !28428 {
  %2 = alloca %"class.caffe2::TypeMeta"*, align 8
  %3 = alloca %"class.caffe2::TypeMeta", align 2
  store %"class.caffe2::TypeMeta"* %0, %"class.caffe2::TypeMeta"** %2, align 8
  call void @llvm.dbg.declare(metadata %"class.caffe2::TypeMeta"** %2, metadata !28430, metadata !DIExpression()), !dbg !28431
  %4 = load %"class.caffe2::TypeMeta"*, %"class.caffe2::TypeMeta"** %2, align 8
  %5 = getelementptr inbounds %"class.caffe2::TypeMeta", %"class.caffe2::TypeMeta"* %4, i32 0, i32 0, !dbg !28432
  %6 = bitcast i16* %5 to %"class.caffe2::TypeMeta"*, !dbg !28433
  %7 = bitcast %"class.caffe2::TypeMeta"* %3 to i8*, !dbg !28433
  %8 = bitcast %"class.caffe2::TypeMeta"* %6 to i8*, !dbg !28433
  call void @llvm.memcpy.p0i8.p0i8.i64(i8* align 2 %7, i8* align 2 %8, i64 2, i1 false), !dbg !28433
  %9 = call contract float @_ZL12__half2float6__half(%"class.caffe2::TypeMeta"* byval(%"class.caffe2::TypeMeta") align 2 %3) #16, !dbg !28434
  ret float %9, !dbg !28435
}

; Function Attrs: convergent mustprogress noinline nounwind optnone
define internal float @_ZL12__half2float6__half(%"class.caffe2::TypeMeta"* byval(%"class.caffe2::TypeMeta") align 2 %0) #15 !dbg !28436 {
  %2 = alloca float, align 4
  call void @llvm.dbg.declare(metadata %"class.caffe2::TypeMeta"* %0, metadata !28439, metadata !DIExpression()), !dbg !28440
  call void @llvm.dbg.declare(metadata float* %2, metadata !28441, metadata !DIExpression()), !dbg !28442
  %3 = bitcast %"class.caffe2::TypeMeta"* %0 to i16*, !dbg !28443
  %4 = load i16, i16* %3, align 2, !dbg !28443
  %5 = call contract float asm "{  cvt.f32.f16 $0, $1;}\0A", "=f,h"(i16 %4) #20, !dbg !28443, !srcloc !28445
  store float %5, float* %2, align 4, !dbg !28443
  %6 = load float, float* %2, align 4, !dbg !28446
  ret float %6, !dbg !28447
}

; Function Attrs: convergent mustprogress noinline norecurse nounwind optnone
define dso_local void @_Z36dynamic_scaled_int8_azp_quant_kernelIN3c108BFloat16EfiEvPKT_PaPT0_PT1_i(%"class.caffe2::TypeMeta"* noalias %0, i8* noalias %1, float* %2, i32* %3, i32 %4) #13 !dbg !4397 {
  %6 = alloca float, align 4
  %7 = alloca %"class.caffe2::TypeMeta"*, align 8
  %8 = alloca i8*, align 8
  %9 = alloca float*, align 8
  %10 = alloca i32*, align 8
  %11 = alloca i32, align 4
  %12 = alloca i32, align 4
  %13 = alloca float, align 4
  %14 = alloca float, align 4
  %15 = alloca i32, align 4
  %16 = alloca float, align 4
  %17 = alloca float, align 4
  %18 = alloca float, align 4
  %19 = alloca i32, align 4
  %20 = alloca float, align 4
  %21 = alloca i32, align 4
  %22 = alloca i32, align 4
  %23 = alloca float, align 4
  %24 = alloca i8, align 1
  store %"class.caffe2::TypeMeta"* %0, %"class.caffe2::TypeMeta"** %7, align 8
  call void @llvm.dbg.declare(metadata %"class.caffe2::TypeMeta"** %7, metadata !28448, metadata !DIExpression()), !dbg !28449
  store i8* %1, i8** %8, align 8
  call void @llvm.dbg.declare(metadata i8** %8, metadata !28450, metadata !DIExpression()), !dbg !28451
  store float* %2, float** %9, align 8
  call void @llvm.dbg.declare(metadata float** %9, metadata !28452, metadata !DIExpression()), !dbg !28453
  store i32* %3, i32** %10, align 8
  call void @llvm.dbg.declare(metadata i32** %10, metadata !28454, metadata !DIExpression()), !dbg !28455
  store i32 %4, i32* %11, align 4
  call void @llvm.dbg.declare(metadata i32* %11, metadata !28456, metadata !DIExpression()), !dbg !28457
  call void @llvm.dbg.declare(metadata i32* %12, metadata !28458, metadata !DIExpression()), !dbg !28459
  %25 = call i32 @llvm.nvvm.read.ptx.sreg.ctaid.x() #3, !dbg !28460
  store i32 %25, i32* %12, align 4, !dbg !28459
  call void @llvm.dbg.declare(metadata float* %13, metadata !28462, metadata !DIExpression()), !dbg !28463
  store float 0xC7EFFFFFE0000000, float* %13, align 4, !dbg !28463
  call void @llvm.dbg.declare(metadata float* %14, metadata !28464, metadata !DIExpression()), !dbg !28465
  store float 0x47EFFFFFE0000000, float* %14, align 4, !dbg !28465
  call void @llvm.dbg.declare(metadata i32* %15, metadata !28466, metadata !DIExpression()), !dbg !28468
  %26 = call i32 @llvm.nvvm.read.ptx.sreg.tid.x() #3, !dbg !28469
  store i32 %26, i32* %15, align 4, !dbg !28468
  br label %27, !dbg !28471

27:                                               ; preds = %59, %5
  %28 = load i32, i32* %15, align 4, !dbg !28472
  %29 = load i32, i32* %11, align 4, !dbg !28474
  %30 = icmp slt i32 %28, %29, !dbg !28475
  br i1 %30, label %31, label %63, !dbg !28476

31:                                               ; preds = %27
  call void @llvm.dbg.declare(metadata float* %16, metadata !28477, metadata !DIExpression()), !dbg !28479
  %32 = load %"class.caffe2::TypeMeta"*, %"class.caffe2::TypeMeta"** %7, align 8, !dbg !28480
  %33 = load i32, i32* %12, align 4, !dbg !28481
  %34 = load i32, i32* %11, align 4, !dbg !28482
  %35 = mul nsw i32 %33, %34, !dbg !28483
  %36 = load i32, i32* %15, align 4, !dbg !28484
  %37 = add nsw i32 %35, %36, !dbg !28485
  %38 = sext i32 %37 to i64, !dbg !28480
  %39 = getelementptr inbounds %"class.caffe2::TypeMeta", %"class.caffe2::TypeMeta"* %32, i64 %38, !dbg !28480
  %40 = call contract float @_ZNK3c108BFloat16cvfEv(%"class.caffe2::TypeMeta"* nonnull align 2 dereferenceable(2) %39) #16, !dbg !28480
  store float %40, float* %16, align 4, !dbg !28479
  %41 = load float, float* %16, align 4, !dbg !28486
  %42 = load float, float* %13, align 4, !dbg !28487
  %43 = fcmp contract ogt float %41, %42, !dbg !28488
  br i1 %43, label %44, label %46, !dbg !28486

44:                                               ; preds = %31
  %45 = load float, float* %16, align 4, !dbg !28489
  br label %48, !dbg !28486

46:                                               ; preds = %31
  %47 = load float, float* %13, align 4, !dbg !28490
  br label %48, !dbg !28486

48:                                               ; preds = %46, %44
  %49 = phi contract float [ %45, %44 ], [ %47, %46 ], !dbg !28486
  store float %49, float* %13, align 4, !dbg !28491
  %50 = load float, float* %16, align 4, !dbg !28492
  %51 = load float, float* %14, align 4, !dbg !28493
  %52 = fcmp contract olt float %50, %51, !dbg !28494
  br i1 %52, label %53, label %55, !dbg !28492

53:                                               ; preds = %48
  %54 = load float, float* %16, align 4, !dbg !28495
  br label %57, !dbg !28492

55:                                               ; preds = %48
  %56 = load float, float* %14, align 4, !dbg !28496
  br label %57, !dbg !28492

57:                                               ; preds = %55, %53
  %58 = phi contract float [ %54, %53 ], [ %56, %55 ], !dbg !28492
  store float %58, float* %14, align 4, !dbg !28497
  br label %59, !dbg !28498

59:                                               ; preds = %57
  %60 = call i32 @llvm.nvvm.read.ptx.sreg.ntid.x() #3, !dbg !28499
  %61 = load i32, i32* %15, align 4, !dbg !28501
  %62 = add i32 %61, %60, !dbg !28501
  store i32 %62, i32* %15, align 4, !dbg !28501
  br label %27, !dbg !28502, !llvm.loop !28503

63:                                               ; preds = %27
  %64 = load float, float* %13, align 4, !dbg !28505
  %65 = call contract float @_Z14blockReduceMaxILi1024EEff(float %64) #16, !dbg !28506
  store float %65, float* %13, align 4, !dbg !28507
  call void @llvm.nvvm.barrier0(), !dbg !28508
  %66 = load float, float* %14, align 4, !dbg !28509
  %67 = call contract float @_Z14blockReduceMinILi1024EEff(float %66) #16, !dbg !28510
  store float %67, float* %14, align 4, !dbg !28511
  %68 = call i32 @llvm.nvvm.read.ptx.sreg.tid.x() #3, !dbg !28512
  %69 = icmp eq i32 %68, 0, !dbg !28515
  br i1 %69, label %70, label %93, !dbg !28516

70:                                               ; preds = %63
  call void @llvm.dbg.declare(metadata float* %17, metadata !28517, metadata !DIExpression()), !dbg !28519
  %71 = load float, float* %13, align 4, !dbg !28520
  %72 = load float, float* %14, align 4, !dbg !28521
  %73 = fsub contract float %71, %72, !dbg !28522
  %74 = fdiv contract float %73, 2.550000e+02, !dbg !28523
  store float %74, float* %17, align 4, !dbg !28519
  call void @llvm.dbg.declare(metadata float* %18, metadata !28524, metadata !DIExpression()), !dbg !28525
  %75 = load float, float* %14, align 4, !dbg !28526
  %76 = load float, float* %17, align 4, !dbg !28527
  %77 = fdiv contract float %75, %76, !dbg !28528
  %78 = fsub contract float -1.280000e+02, %77, !dbg !28529
  store float %78, float* %6, align 4
  call void @llvm.dbg.declare(metadata float* %6, metadata !28071, metadata !DIExpression()) #3, !dbg !28530
  %79 = load float, float* %6, align 4, !dbg !28532
  %80 = call contract float @llvm.nearbyint.f32(float %79) #3, !dbg !28533
  store float %80, float* %18, align 4, !dbg !28525
  call void @llvm.dbg.declare(metadata i32* %19, metadata !28534, metadata !DIExpression()), !dbg !28535
  %81 = load float, float* %18, align 4, !dbg !28536
  %82 = fptosi float %81 to i32, !dbg !28536
  store i32 %82, i32* %19, align 4, !dbg !28535
  %83 = load float, float* %17, align 4, !dbg !28537
  store float %83, float* addrspacecast (float addrspace(3)* @_ZZ36dynamic_scaled_int8_azp_quant_kernelIN3c108BFloat16EfiEvPKT_PaPT0_PT1_iE8scale_sh to float*), align 4, !dbg !28538
  %84 = load float*, float** %9, align 8, !dbg !28539
  %85 = load i32, i32* %12, align 4, !dbg !28540
  %86 = sext i32 %85 to i64, !dbg !28539
  %87 = getelementptr inbounds float, float* %84, i64 %86, !dbg !28539
  store float %83, float* %87, align 4, !dbg !28541
  %88 = load i32, i32* %19, align 4, !dbg !28542
  store i32 %88, i32* addrspacecast (i32 addrspace(3)* @_ZZ36dynamic_scaled_int8_azp_quant_kernelIN3c108BFloat16EfiEvPKT_PaPT0_PT1_iE6azp_sh to i32*), align 4, !dbg !28543
  %89 = load i32*, i32** %10, align 8, !dbg !28544
  %90 = load i32, i32* %12, align 4, !dbg !28545
  %91 = sext i32 %90 to i64, !dbg !28544
  %92 = getelementptr inbounds i32, i32* %89, i64 %91, !dbg !28544
  store i32 %88, i32* %92, align 4, !dbg !28546
  br label %93, !dbg !28547

93:                                               ; preds = %70, %63
  call void @llvm.nvvm.barrier0(), !dbg !28548
  call void @llvm.dbg.declare(metadata float* %20, metadata !28549, metadata !DIExpression()), !dbg !28550
  %94 = load float, float* addrspacecast (float addrspace(3)* @_ZZ36dynamic_scaled_int8_azp_quant_kernelIN3c108BFloat16EfiEvPKT_PaPT0_PT1_iE8scale_sh to float*), align 4, !dbg !28551
  store float %94, float* %20, align 4, !dbg !28550
  call void @llvm.dbg.declare(metadata i32* %21, metadata !28552, metadata !DIExpression()), !dbg !28553
  %95 = load i32, i32* addrspacecast (i32 addrspace(3)* @_ZZ36dynamic_scaled_int8_azp_quant_kernelIN3c108BFloat16EfiEvPKT_PaPT0_PT1_iE6azp_sh to i32*), align 4, !dbg !28554
  store i32 %95, i32* %21, align 4, !dbg !28553
  call void @llvm.dbg.declare(metadata i32* %22, metadata !28555, metadata !DIExpression()), !dbg !28557
  %96 = call i32 @llvm.nvvm.read.ptx.sreg.tid.x() #3, !dbg !28558
  store i32 %96, i32* %22, align 4, !dbg !28557
  br label %97, !dbg !28560

97:                                               ; preds = %127, %93
  %98 = load i32, i32* %22, align 4, !dbg !28561
  %99 = load i32, i32* %11, align 4, !dbg !28563
  %100 = icmp slt i32 %98, %99, !dbg !28564
  br i1 %100, label %101, label %131, !dbg !28565

101:                                              ; preds = %97
  call void @llvm.dbg.declare(metadata float* %23, metadata !28566, metadata !DIExpression()), !dbg !28568
  %102 = load %"class.caffe2::TypeMeta"*, %"class.caffe2::TypeMeta"** %7, align 8, !dbg !28569
  %103 = load i32, i32* %12, align 4, !dbg !28570
  %104 = load i32, i32* %11, align 4, !dbg !28571
  %105 = mul nsw i32 %103, %104, !dbg !28572
  %106 = load i32, i32* %22, align 4, !dbg !28573
  %107 = add nsw i32 %105, %106, !dbg !28574
  %108 = sext i32 %107 to i64, !dbg !28569
  %109 = getelementptr inbounds %"class.caffe2::TypeMeta", %"class.caffe2::TypeMeta"* %102, i64 %108, !dbg !28569
  %110 = call contract float @_ZNK3c108BFloat16cvfEv(%"class.caffe2::TypeMeta"* nonnull align 2 dereferenceable(2) %109) #16, !dbg !28569
  store float %110, float* %23, align 4, !dbg !28568
  call void @llvm.dbg.declare(metadata i8* %24, metadata !28575, metadata !DIExpression()), !dbg !28576
  %111 = load float, float* %23, align 4, !dbg !28577
  %112 = load float, float* %20, align 4, !dbg !28578
  %113 = fdiv contract float %111, %112, !dbg !28579
  %114 = call i32 @_Z17float_to_int32_rnf(float %113) #16, !dbg !28580
  %115 = load i32, i32* %21, align 4, !dbg !28581
  %116 = add nsw i32 %114, %115, !dbg !28582
  %117 = call signext i8 @_Z13int32_to_int8i(i32 %116) #16, !dbg !28583
  store i8 %117, i8* %24, align 1, !dbg !28576
  %118 = load i8, i8* %24, align 1, !dbg !28584
  %119 = load i8*, i8** %8, align 8, !dbg !28585
  %120 = load i32, i32* %12, align 4, !dbg !28586
  %121 = load i32, i32* %11, align 4, !dbg !28587
  %122 = mul nsw i32 %120, %121, !dbg !28588
  %123 = load i32, i32* %22, align 4, !dbg !28589
  %124 = add nsw i32 %122, %123, !dbg !28590
  %125 = sext i32 %124 to i64, !dbg !28585
  %126 = getelementptr inbounds i8, i8* %119, i64 %125, !dbg !28585
  store i8 %118, i8* %126, align 1, !dbg !28591
  br label %127, !dbg !28592

127:                                              ; preds = %101
  %128 = call i32 @llvm.nvvm.read.ptx.sreg.ntid.x() #3, !dbg !28593
  %129 = load i32, i32* %22, align 4, !dbg !28595
  %130 = add i32 %129, %128, !dbg !28595
  store i32 %130, i32* %22, align 4, !dbg !28595
  br label %97, !dbg !28596, !llvm.loop !28597

131:                                              ; preds = %97
  ret void, !dbg !28599
}

; Function Attrs: convergent mustprogress noinline nounwind optnone
define linkonce_odr dso_local float @_ZNK3c108BFloat16cvfEv(%"class.caffe2::TypeMeta"* nonnull align 2 dereferenceable(2) %0) #15 comdat align 2 !dbg !28600 {
  %2 = alloca %"class.caffe2::TypeMeta"*, align 8
  %3 = alloca %"class.caffe2::TypeMeta", align 2
  store %"class.caffe2::TypeMeta"* %0, %"class.caffe2::TypeMeta"** %2, align 8
  call void @llvm.dbg.declare(metadata %"class.caffe2::TypeMeta"** %2, metadata !28602, metadata !DIExpression()), !dbg !28603
  %4 = load %"class.caffe2::TypeMeta"*, %"class.caffe2::TypeMeta"** %2, align 8
  %5 = getelementptr inbounds %"class.caffe2::TypeMeta", %"class.caffe2::TypeMeta"* %4, i32 0, i32 0, !dbg !28604
  %6 = bitcast i16* %5 to %"class.caffe2::TypeMeta"*, !dbg !28605
  %7 = bitcast %"class.caffe2::TypeMeta"* %3 to i8*, !dbg !28605
  %8 = bitcast %"class.caffe2::TypeMeta"* %6 to i8*, !dbg !28605
  call void @llvm.memcpy.p0i8.p0i8.i64(i8* align 2 %7, i8* align 2 %8, i64 2, i1 false), !dbg !28605
  %9 = call contract float @_ZL16__bfloat162float13__nv_bfloat16(%"class.caffe2::TypeMeta"* byval(%"class.caffe2::TypeMeta") align 2 %3) #16, !dbg !28606
  ret float %9, !dbg !28607
}

; Function Attrs: convergent mustprogress noinline nounwind optnone
define internal float @_ZL16__bfloat162float13__nv_bfloat16(%"class.caffe2::TypeMeta"* byval(%"class.caffe2::TypeMeta") align 2 %0) #15 !dbg !28608 {
  %2 = alloca %"class.caffe2::TypeMeta", align 2
  call void @llvm.dbg.declare(metadata %"class.caffe2::TypeMeta"* %0, metadata !28611, metadata !DIExpression()), !dbg !28612
  %3 = call %"class.caffe2::TypeMeta" @_ZNK13__nv_bfloat16cv17__nv_bfloat16_rawEv(%"class.caffe2::TypeMeta"* nonnull align 2 dereferenceable(2) %0) #16, !dbg !28613
  %4 = getelementptr inbounds %"class.caffe2::TypeMeta", %"class.caffe2::TypeMeta"* %2, i32 0, i32 0, !dbg !28613
  %5 = extractvalue %"class.caffe2::TypeMeta" %3, 0, !dbg !28613
  store i16 %5, i16* %4, align 2, !dbg !28613
  %6 = getelementptr inbounds %"class.caffe2::TypeMeta", %"class.caffe2::TypeMeta"* %2, i32 0, i32 0, !dbg !28614
  %7 = load i16, i16* %6, align 2, !dbg !28614
  %8 = call contract float @_ZL25__internal_bfloat162floatt(i16 zeroext %7) #16, !dbg !28615
  ret float %8, !dbg !28616
}

; Function Attrs: convergent mustprogress noinline nounwind optnone
define linkonce_odr dso_local %"class.caffe2::TypeMeta" @_ZNK13__nv_bfloat16cv17__nv_bfloat16_rawEv(%"class.caffe2::TypeMeta"* nonnull align 2 dereferenceable(2) %0) #15 comdat align 2 !dbg !28617 {
  %2 = alloca %"class.caffe2::TypeMeta", align 2
  %3 = alloca %"class.caffe2::TypeMeta"*, align 8
  store %"class.caffe2::TypeMeta"* %0, %"class.caffe2::TypeMeta"** %3, align 8
  call void @llvm.dbg.declare(metadata %"class.caffe2::TypeMeta"** %3, metadata !28618, metadata !DIExpression()), !dbg !28619
