; ModuleID = '/home/mvh6224/CUDA-BOSolver/coverage-exp/6649/common_combined.bc'
source_filename = "llvm-link"
target datalayout = "e-m:e-p270:32:32-p271:32:32-p272:64:64-i64:64-f80:128-n8:16:32:64-S128"
target triple = "x86_64-pc-linux-gnu"

%"class.std::ios_base::Init" = type { i8 }
%"struct.c10::UndefinedTensorImpl" = type { %"struct.c10::TensorImpl" }
%"struct.c10::TensorImpl" = type { %"class.c10::intrusive_ptr_target", %"struct.c10::Storage", %"class.std::unique_ptr.15", %"class.std::unique_ptr.23", %"struct.c10::VariableVersion", %"struct.c10::impl::PyObjectSlot", %"class.c10::impl::SizesAndStrides", i64, i64, %"class.caffe2::TypeMeta", %"class.std::optional.53", [3 x i8], %"class.c10::SymInt" }
%"class.c10::intrusive_ptr_target" = type { i32 (...)**, %"struct.std::atomic", %"struct.std::atomic" }
%"struct.std::atomic" = type { %"struct.std::__atomic_base" }
%"struct.std::__atomic_base" = type { i32 }
%"struct.c10::Storage" = type { %"class.c10::intrusive_ptr.0" }
%"class.c10::intrusive_ptr.0" = type { %"struct.c10::StorageImpl"* }
%"struct.c10::StorageImpl" = type { %"class.c10::intrusive_ptr_target", %"class.c10::DataPtr", %"class.c10::SymInt", i8, i8, i8, i8, i8, i8, i8, %"struct.c10::Allocator"*, %"struct.c10::impl::PyObjectSlot", %"class.std::unique_ptr.5" }
%"class.c10::DataPtr" = type <{ %"class.c10::detail::UniqueVoidPtr", %"struct.c10::Device", [6 x i8] }>
%"class.c10::detail::UniqueVoidPtr" = type { i8*, %"class.std::unique_ptr" }
%"class.std::unique_ptr" = type { %"struct.std::__uniq_ptr_data" }
%"struct.std::__uniq_ptr_data" = type { %"class.std::__uniq_ptr_impl" }
%"class.std::__uniq_ptr_impl" = type { %"class.std::tuple" }
%"class.std::tuple" = type { %"struct.std::_Tuple_impl" }
%"struct.std::_Tuple_impl" = type { %"struct.std::_Tuple_impl.1", %"struct.std::_Head_base.2" }
%"struct.std::_Tuple_impl.1" = type { %"struct.std::_Head_base" }
%"struct.std::_Head_base" = type { void (i8*)* }
%"struct.std::_Head_base.2" = type { i8* }
%"struct.c10::Device" = type { i8, i8 }
%"struct.c10::Allocator" = type { i32 (...)** }
%"class.std::unique_ptr.5" = type { %"struct.std::__uniq_ptr_data.6" }
%"struct.std::__uniq_ptr_data.6" = type { %"class.std::__uniq_ptr_impl.7" }
%"class.std::__uniq_ptr_impl.7" = type { %"class.std::tuple.8" }
%"class.std::tuple.8" = type { %"struct.std::_Tuple_impl.9" }
%"struct.std::_Tuple_impl.9" = type { %"struct.std::_Head_base.12" }
%"struct.std::_Head_base.12" = type { %"struct.c10::StorageExtraMeta"* }
%"struct.c10::StorageExtraMeta" = type { %"class.std::optional" }
%"class.std::optional" = type { %"struct.std::_Optional_base" }
%"struct.std::_Optional_base" = type { %"struct.std::_Optional_payload" }
%"struct.std::_Optional_payload" = type { %"struct.std::_Optional_payload.base", [7 x i8] }
%"struct.std::_Optional_payload.base" = type { %"struct.std::_Optional_payload_base.base" }
%"struct.std::_Optional_payload_base.base" = type <{ %"union.std::_Optional_payload_base<std::__cxx11::basic_string<char>>::_Storage", i8 }>
%"union.std::_Optional_payload_base<std::__cxx11::basic_string<char>>::_Storage" = type { %"class.std::__cxx11::basic_string" }
%"class.std::__cxx11::basic_string" = type { %"struct.std::_Head_base.2", i64, %union.anon }
%union.anon = type { i64, [8 x i8] }
%"class.std::unique_ptr.15" = type { %"struct.std::__uniq_ptr_data.16" }
%"struct.std::__uniq_ptr_data.16" = type { %"class.std::__uniq_ptr_impl.17" }
%"class.std::__uniq_ptr_impl.17" = type { %"class.std::tuple.18" }
%"class.std::tuple.18" = type { %"struct.std::_Tuple_impl.19" }
%"struct.std::_Tuple_impl.19" = type { %"struct.c10::impl::PyInterpreter" }
%"struct.c10::impl::PyInterpreter" = type { %"struct.c10::Allocator"* }
%"class.std::unique_ptr.23" = type { %"struct.std::__uniq_ptr_data.24" }
%"struct.std::__uniq_ptr_data.24" = type { %"class.std::__uniq_ptr_impl.25" }
%"class.std::__uniq_ptr_impl.25" = type { %"class.std::tuple.26" }
%"class.std::tuple.26" = type { %"struct.std::_Tuple_impl.27" }
%"struct.std::_Tuple_impl.27" = type { %"struct.std::_Head_base.30" }
%"struct.std::_Head_base.30" = type { %"struct.c10::ExtraMeta"* }
%"struct.c10::ExtraMeta" = type { %"class.std::unique_ptr.31", %"class.std::unique_ptr.15", %"class.c10::intrusive_ptr.41", %"class.std::optional", %"class.std::optional" }
%"class.std::unique_ptr.31" = type { %"struct.std::__uniq_ptr_data.32" }
%"struct.std::__uniq_ptr_data.32" = type { %"class.std::__uniq_ptr_impl.33" }
%"class.std::__uniq_ptr_impl.33" = type { %"class.std::tuple.34" }
%"class.std::tuple.34" = type { %"struct.std::_Tuple_impl.35" }
%"struct.std::_Tuple_impl.35" = type { %"struct.std::_Head_base.38" }
%"struct.std::_Head_base.38" = type { %"class.c10::SymbolicShapeMeta"* }
%"class.c10::SymbolicShapeMeta" = type { %"class.c10::SmallVector", %"class.c10::SmallVector", %"class.c10::SymInt", i8, %"struct.std::atomic", %"class.std::mutex", %"class.c10::SymInt", %"class.c10::SymBool", %"class.c10::SymBool", %"class.c10::SymBool", %"class.c10::SymBool", %"class.c10::SymBool", %"class.c10::SymBool" }
%"class.c10::SmallVector" = type { %"class.c10::SmallVectorImpl", %"struct.c10::SmallVectorStorage" }
%"class.c10::SmallVectorImpl" = type { %"class.c10::SmallVectorTemplateBase" }
%"class.c10::SmallVectorTemplateBase" = type { %"class.c10::SmallVectorTemplateCommon" }
%"class.c10::SmallVectorTemplateCommon" = type { %"class.c10::SmallVectorBase" }
%"class.c10::SmallVectorBase" = type { i8*, i32, i32 }
%"struct.c10::SmallVectorStorage" = type { [40 x i8] }
%"class.std::mutex" = type { %"class.std::__mutex_base" }
%"class.std::__mutex_base" = type { %union.pthread_mutex_t }
%union.pthread_mutex_t = type { %struct.__pthread_mutex_s }
%struct.__pthread_mutex_s = type { i32, i32, i32, i32, i32, i16, i16, %struct.__pthread_internal_list }
%struct.__pthread_internal_list = type { %struct.__pthread_internal_list*, %struct.__pthread_internal_list* }
%"class.c10::SymBool" = type { i8, %"class.c10::intrusive_ptr.41" }
%"class.c10::intrusive_ptr.41" = type { %"class.c10::SymNodeImpl"* }
%"class.c10::SymNodeImpl" = type { %"class.c10::intrusive_ptr_target" }
%"struct.c10::VariableVersion" = type { %"class.c10::intrusive_ptr.51" }
%"class.c10::intrusive_ptr.51" = type { %"struct.c10::VariableVersion::VersionCounter"* }
%"struct.c10::VariableVersion::VersionCounter" = type <{ %"class.c10::intrusive_ptr_target", %"struct.std::atomic", [4 x i8] }>
%"struct.c10::impl::PyObjectSlot" = type { %"struct.std::atomic.3", %struct._object* }
%"struct.std::atomic.3" = type { %"struct.std::__atomic_base.4" }
%"struct.std::__atomic_base.4" = type { %"struct.c10::impl::PyInterpreter"* }
%struct._object = type opaque
%"class.c10::impl::SizesAndStrides" = type { i64, %union.anon.52 }
%union.anon.52 = type { [10 x i64] }
%"class.caffe2::TypeMeta" = type { i16 }
%"class.std::optional.53" = type { %"struct.std::_Optional_base.54" }
%"struct.std::_Optional_base.54" = type { %"struct.std::_Optional_payload.56" }
%"struct.std::_Optional_payload.56" = type { %"struct.std::_Optional_payload_base.57" }
%"struct.std::_Optional_payload_base.57" = type { %"union.std::_Optional_payload_base<c10::Device>::_Storage", i8 }
%"union.std::_Optional_payload_base<c10::Device>::_Storage" = type { %"struct.c10::Device" }
%"class.c10::SymInt" = type { i64 }
%"struct.std::array" = type { [21 x %"struct.std::_Tuple_impl.19"] }
%"struct.std::atomic.91" = type { %"struct.std::__atomic_base.92" }
%"struct.std::__atomic_base.92" = type { %"struct.c10::cuda::impl::CUDAGuardImpl"* }
%"struct.c10::cuda::impl::CUDAGuardImpl" = type { %"struct.c10::Allocator" }
%"class.at::Tensor" = type { %"class.at::TensorBase" }
%"class.at::TensorBase" = type { %"class.c10::intrusive_ptr" }
%"class.c10::intrusive_ptr" = type { %"struct.c10::TensorImpl"* }
%struct.dim3 = type { i32, i32, i32 }
%"struct.c10::cuda::OptionalCUDAGuard" = type { %"class.c10::impl::InlineOptionalDeviceGuard" }
%"class.c10::impl::InlineOptionalDeviceGuard" = type { %"class.std::optional.59" }
%"class.std::optional.59" = type { %"struct.std::_Optional_base.60" }
%"struct.std::_Optional_base.60" = type { %"struct.std::_Optional_payload.62" }
%"struct.std::_Optional_payload.62" = type { %"struct.std::_Optional_payload.base.66", [7 x i8] }
%"struct.std::_Optional_payload.base.66" = type { %"struct.std::_Optional_payload_base.base.65" }
%"struct.std::_Optional_payload_base.base.65" = type { %"union.std::_Optional_payload_base<c10::impl::InlineDeviceGuard<c10::cuda::impl::CUDAGuardImpl>>::_Storage", i8 }
%"union.std::_Optional_payload_base<c10::impl::InlineDeviceGuard<c10::cuda::impl::CUDAGuardImpl>>::_Storage" = type { %"class.c10::impl::InlineDeviceGuard" }
%"class.c10::impl::InlineDeviceGuard" = type <{ %"struct.c10::cuda::impl::CUDAGuardImpl", %"struct.c10::Device", %"struct.c10::Device", [4 x i8] }>
%struct.CUstream_st = type opaque
%"class.c10::cuda::CUDAStream" = type { %"class.c10::Stream" }
%"class.c10::Stream" = type { %"struct.c10::Device", i64 }
%class.anon = type { %"class.at::Tensor"*, %struct.dim3*, %struct.dim3*, %struct.CUstream_st**, %"class.at::Tensor"*, %"class.at::Tensor"*, i64* }
%class.anon.93 = type { %struct.dim3*, %struct.dim3*, %struct.CUstream_st**, %"class.at::Tensor"*, %"class.at::Tensor"*, %"class.at::Tensor"*, i64* }
%"struct.std::_Optional_payload_base.64" = type { %"union.std::_Optional_payload_base<c10::impl::InlineDeviceGuard<c10::cuda::impl::CUDAGuardImpl>>::_Storage", i8, [7 x i8] }
%"struct.std::_Optional_payload.63" = type { %"struct.std::_Optional_payload_base.base.65", [7 x i8] }
%"class.c10::Warning" = type <{ %"class.std::variant", [6 x i8], %"struct.c10::SourceLocation", %"class.std::__cxx11::basic_string", i8, [7 x i8] }>
%"class.std::variant" = type { %"struct.std::__detail::__variant::_Variant_base" }
%"struct.std::__detail::__variant::_Variant_base" = type { %"struct.std::__detail::__variant::_Move_assign_base" }
%"struct.std::__detail::__variant::_Move_assign_base" = type { %"struct.std::__detail::__variant::_Copy_assign_base" }
%"struct.std::__detail::__variant::_Copy_assign_base" = type { %"struct.std::__detail::__variant::_Move_ctor_base" }
%"struct.std::__detail::__variant::_Move_ctor_base" = type { %"struct.std::__detail::__variant::_Copy_ctor_base" }
%"struct.std::__detail::__variant::_Copy_ctor_base" = type { %"struct.std::__detail::__variant::_Variant_storage" }
%"struct.std::__detail::__variant::_Variant_storage" = type { %"union.std::__detail::__variant::_Variadic_union", i8 }
%"union.std::__detail::__variant::_Variadic_union" = type { %"struct.std::__detail::__variant::_Uninitialized" }
%"struct.std::__detail::__variant::_Uninitialized" = type { %"class.std::ios_base::Init" }
%"struct.c10::SourceLocation" = type { i8*, i8*, i32 }
%"class.std::__cxx11::basic_ostringstream" = type { %"struct.c10::Allocator", %"class.std::__cxx11::basic_stringbuf", %"class.std::basic_ios" }
%"class.std::__cxx11::basic_stringbuf" = type { %"class.std::basic_streambuf", i32, %"class.std::__cxx11::basic_string" }
%"class.std::basic_streambuf" = type { i32 (...)**, i8*, i8*, i8*, i8*, i8*, i8*, %"class.std::locale" }
%"class.std::locale" = type { %"class.std::locale::_Impl"* }
%"class.std::locale::_Impl" = type { i32, %"class.std::locale::facet"**, i64, %"class.std::locale::facet"**, i8** }
%"class.std::locale::facet" = type <{ i32 (...)**, i32, [4 x i8] }>
%"class.std::basic_ios" = type { %"class.std::ios_base", %"class.std::basic_ostream"*, i8, i8, %"class.std::basic_streambuf"*, %"class.std::ctype"*, %"class.std::num_put"*, %"class.std::num_put"* }
%"class.std::ios_base" = type { i32 (...)**, i64, i64, i32, i32, i32, %"struct.std::ios_base::_Callback_list"*, %"struct.std::ios_base::_Words", [8 x %"struct.std::ios_base::_Words"], i32, %"struct.std::ios_base::_Words"*, %"class.std::locale" }
%"struct.std::ios_base::_Callback_list" = type { %"struct.std::ios_base::_Callback_list"*, void (i32, %"class.std::ios_base"*, i32)*, i32, i32 }
%"struct.std::ios_base::_Words" = type { i8*, i64 }
%"class.std::basic_ostream" = type { i32 (...)**, %"class.std::basic_ios" }
%"class.std::ctype" = type <{ %"class.std::locale::facet.base", [4 x i8], %struct.__locale_struct*, i8, [7 x i8], i32*, i32*, i16*, i8, [256 x i8], [256 x i8], i8, [6 x i8] }>
%"class.std::locale::facet.base" = type <{ i32 (...)**, i32 }>
%struct.__locale_struct = type { [13 x %struct.__locale_data*], i16*, i32*, i32*, [13 x i8*] }
%struct.__locale_data = type opaque
%"class.std::num_put" = type { %"class.std::locale::facet.base", [4 x i8] }
%struct.CUevent_st = type opaque
%"class.c10::DeviceGuard" = type { %"class.c10::impl::InlineDeviceGuard.87" }
%"class.c10::impl::InlineDeviceGuard.87" = type <{ %"class.c10::impl::VirtualGuardImpl", %"struct.c10::Device", %"struct.c10::Device", [4 x i8] }>
%"class.c10::impl::VirtualGuardImpl" = type { %"struct.c10::Allocator", %"struct.c10::Allocator"* }
%class.anon.69 = type { %"class.at::Tensor"*, %struct.dim3*, %struct.dim3*, %struct.CUstream_st**, %"class.at::Tensor"*, i64*, %"class.at::Tensor"* }
%class.anon.96 = type { %struct.dim3*, %struct.dim3*, %struct.CUstream_st**, %"class.at::Tensor"*, %"class.at::Tensor"*, i64*, %"class.at::Tensor"* }
%"class.std::optional.70" = type { %"struct.std::_Optional_base.71" }
%"struct.std::_Optional_base.71" = type { %"struct.std::_Optional_payload.73" }
%"struct.std::_Optional_payload.73" = type { %"struct.std::_Optional_payload.base.77", [7 x i8] }
%"struct.std::_Optional_payload.base.77" = type { %"struct.std::_Optional_payload_base.base.76" }
%"struct.std::_Optional_payload_base.base.76" = type <{ %"union.std::_Optional_payload_base<at::Tensor>::_Storage", i8 }>
%"union.std::_Optional_payload_base<at::Tensor>::_Storage" = type { %"class.at::Tensor" }
%class.anon.80 = type { %"class.at::Tensor"*, %struct.dim3*, %struct.dim3*, %struct.CUstream_st**, %"class.at::Tensor"*, %"class.at::Tensor"*, %"class.std::optional.70"*, i32* }
%class.anon.99 = type { %struct.dim3*, %struct.dim3*, %struct.CUstream_st**, %"class.at::Tensor"*, %"class.at::Tensor"*, %"class.at::Tensor"*, %"class.std::optional.70"*, i32* }
%"struct.std::_Optional_payload_base.75" = type <{ %"union.std::_Optional_payload_base<at::Tensor>::_Storage", i8, [7 x i8] }>
%"struct.vllm::vec4_t" = type { float, float, float, float }
%"struct.vllm::float8x4_t" = type { %"class.std::ios_base::Init", %"class.std::ios_base::Init", %"class.std::ios_base::Init", %"class.std::ios_base::Init" }
%"struct.vllm::vec4_t.0" = type { %"class.caffe2::TypeMeta", %"class.caffe2::TypeMeta", %"class.caffe2::TypeMeta", %"class.caffe2::TypeMeta" }

$_ZNK2at10TensorBase5numelEv = comdat any

$_ZNK2at10TensorBase4sizeEl = comdat any

$_ZN4dim3C2Ejjj = comdat any

$_ZN2at9device_ofERKNS_6TensorE = comdat any

$_ZN3c104cuda17OptionalCUDAGuardC2ESt8optionalINS_6DeviceEE = comdat any

$_ZNK3c104cuda10CUDAStreamcvP11CUstream_stEv = comdat any

$_ZN3c104cuda17OptionalCUDAGuardD2Ev = comdat any

$_ZN3c104impl25InlineOptionalDeviceGuardINS_4cuda4impl13CUDAGuardImplEED2Ev = comdat any

$_ZNSt8optionalIN3c104impl17InlineDeviceGuardINS0_4cuda4impl13CUDAGuardImplEEEED2Ev = comdat any

$_ZNSt14_Optional_baseIN3c104impl17InlineDeviceGuardINS0_4cuda4impl13CUDAGuardImplEEELb0ELb0EED2Ev = comdat any

$_ZNSt17_Optional_payloadIN3c104impl17InlineDeviceGuardINS0_4cuda4impl13CUDAGuardImplEEELb0ELb0ELb0EED2Ev = comdat any

$_ZNSt22_Optional_payload_baseIN3c104impl17InlineDeviceGuardINS0_4cuda4impl13CUDAGuardImplEEEE8_M_resetEv = comdat any

$_ZNSt17_Optional_payloadIN3c104impl17InlineDeviceGuardINS0_4cuda4impl13CUDAGuardImplEEELb1ELb0ELb0EED2Ev = comdat any

$_ZNSt22_Optional_payload_baseIN3c104impl17InlineDeviceGuardINS0_4cuda4impl13CUDAGuardImplEEEED2Ev = comdat any

$_ZNSt22_Optional_payload_baseIN3c104impl17InlineDeviceGuardINS0_4cuda4impl13CUDAGuardImplEEEE8_StorageIS6_Lb0EED2Ev = comdat any

$_ZNSt22_Optional_payload_baseIN3c104impl17InlineDeviceGuardINS0_4cuda4impl13CUDAGuardImplEEEE10_M_destroyEv = comdat any

$_ZN3c104impl17InlineDeviceGuardINS_4cuda4impl13CUDAGuardImplEED2Ev = comdat any

$_ZNK3c104cuda4impl13CUDAGuardImpl18uncheckedSetDeviceENS_6DeviceE = comdat any

$_ZN3c104cuda4impl13CUDAGuardImplD2Ev = comdat any

$_ZN3c104impl24DeviceGuardImplInterfaceD2Ev = comdat any

$_ZNK3c106Device5indexEv = comdat any

$_ZNSt7variantIJN3c107Warning11UserWarningENS1_18DeprecationWarningEEEC2IS2_vvS2_vEEOT_ = comdat any

$_ZN3c103strIJA15_cPKcEEEDcDpRKT_ = comdat any

$_ZN3c107WarningD2Ev = comdat any

$__clang_call_terminate = comdat any

$_ZN3c106detail12_str_wrapperIJPKcRKS3_EE4callB5cxx11ES5_S5_ = comdat any

$_ZN3c106detail4_strIPKcJS3_EEERSoS4_RKT_DpRKT0_ = comdat any

$_ZN3c106detail4_strIPKcEERSoS4_RKT_ = comdat any

$_ZSt7forwardIN3c107Warning11UserWarningEEOT_RNSt16remove_referenceIS3_E4typeE = comdat any

$_ZNSt7variantIJN3c107Warning11UserWarningENS1_18DeprecationWarningEEEC2ILm0EJS2_ES2_vEESt16in_place_index_tIXT_EEDpOT0_ = comdat any

$_ZNSt8__detail9__variant13_Variant_baseIJN3c107Warning11UserWarningENS3_18DeprecationWarningEEEC2ILm0EJS4_EEESt16in_place_index_tIXT_EEDpOT0_ = comdat any

$_ZNSt27_Enable_default_constructorILb1ESt7variantIJN3c107Warning11UserWarningENS2_18DeprecationWarningEEEEC2ESt31_Enable_default_constructor_tag = comdat any

$_ZNSt8__detail9__variant17_Move_assign_baseILb1EJN3c107Warning11UserWarningENS3_18DeprecationWarningEEECI2NS0_16_Variant_storageILb1EJS4_S5_EEEILm0EJS4_EEESt16in_place_index_tIXT_EEDpOT0_ = comdat any

$_ZNSt8__detail9__variant17_Copy_assign_baseILb1EJN3c107Warning11UserWarningENS3_18DeprecationWarningEEECI2NS0_16_Variant_storageILb1EJS4_S5_EEEILm0EJS4_EEESt16in_place_index_tIXT_EEDpOT0_ = comdat any

$_ZNSt8__detail9__variant15_Move_ctor_baseILb1EJN3c107Warning11UserWarningENS3_18DeprecationWarningEEECI2NS0_16_Variant_storageILb1EJS4_S5_EEEILm0EJS4_EEESt16in_place_index_tIXT_EEDpOT0_ = comdat any

$_ZNSt8__detail9__variant15_Copy_ctor_baseILb1EJN3c107Warning11UserWarningENS3_18DeprecationWarningEEECI2NS0_16_Variant_storageILb1EJS4_S5_EEEILm0EJS4_EEESt16in_place_index_tIXT_EEDpOT0_ = comdat any

$_ZNSt8__detail9__variant16_Variant_storageILb1EJN3c107Warning11UserWarningENS3_18DeprecationWarningEEEC2ILm0EJS4_EEESt16in_place_index_tIXT_EEDpOT0_ = comdat any

$_ZNSt8__detail9__variant15_Variadic_unionIJN3c107Warning11UserWarningENS3_18DeprecationWarningEEEC2IJS4_EEESt16in_place_index_tILm0EEDpOT_ = comdat any

$_ZNSt8__detail9__variant14_UninitializedIN3c107Warning11UserWarningELb1EEC2IJS4_EEESt16in_place_index_tILm0EEDpOT_ = comdat any

$_ZNK2at10TensorBase11scalar_typeEv = comdat any

$_ZN6detail11scalar_typeEN3c1010ScalarTypeE = comdat any

$_ZN3c108toStringENS_10ScalarTypeE = comdat any

$_ZN3c106detail17torchCheckMsgImplIJcPKcA24_cS3_A2_cEEEDcS3_DpRKT_ = comdat any

$_ZN3c103strIJcPKcA24_cS2_A2_cEEEDcDpRKT_ = comdat any

$_ZN3c106detail12_str_wrapperIJRKcRKPS2_S4_S6_S4_EE4callB5cxx11ES3_S6_S6_S6_S6_ = comdat any

$_ZN3c106detail4_strIcJPKcS3_S3_S3_EEERSoS4_RKT_DpRKT0_ = comdat any

$_ZN3c106detail4_strIcEERSoS2_RKT_ = comdat any

$_ZN3c106detail4_strIPKcJS3_S3_S3_EEERSoS4_RKT_DpRKT0_ = comdat any

$_ZN3c106detail4_strIPKcJS3_S3_EEERSoS4_RKT_DpRKT0_ = comdat any

$_ZNK3c1013intrusive_ptrINS_10TensorImplENS_19UndefinedTensorImplEEptEv = comdat any

$_ZNK3c1010TensorImpl5dtypeEv = comdat any

$_ZN3c1020typeMetaToScalarTypeEN6caffe28TypeMetaE = comdat any

$_ZN6caffe28TypeMeta12toScalarTypeEv = comdat any

$_ZNK6caffe28TypeMeta12isScalarTypeEv = comdat any

$_ZN3c104impl25InlineOptionalDeviceGuardINS_4cuda4impl13CUDAGuardImplEEC2ESt8optionalINS_6DeviceEE = comdat any

$_ZNSt8optionalIN3c104impl17InlineDeviceGuardINS0_4cuda4impl13CUDAGuardImplEEEEC2Ev = comdat any

$_ZNKSt8optionalIN3c106DeviceEE9has_valueEv = comdat any

$_ZNRSt8optionalIN3c106DeviceEE5valueEv = comdat any

$_ZNSt8optionalIN3c104impl17InlineDeviceGuardINS0_4cuda4impl13CUDAGuardImplEEEE7emplaceIJRNS0_6DeviceEEEENSt9enable_ifIX18is_constructible_vIS6_DpT_EERS6_E4typeEDpOSC_ = comdat any

$_ZNSt19_Optional_base_implIN3c104impl17InlineDeviceGuardINS0_4cuda4impl13CUDAGuardImplEEESt14_Optional_baseIS6_Lb0ELb0EEE8_M_resetEv = comdat any

$_ZSt7forwardIRN3c106DeviceEEOT_RNSt16remove_referenceIS3_E4typeE = comdat any

$_ZNSt19_Optional_base_implIN3c104impl17InlineDeviceGuardINS0_4cuda4impl13CUDAGuardImplEEESt14_Optional_baseIS6_Lb0ELb0EEE12_M_constructIJRNS0_6DeviceEEEEvDpOT_ = comdat any

$_ZNSt19_Optional_base_implIN3c104impl17InlineDeviceGuardINS0_4cuda4impl13CUDAGuardImplEEESt14_Optional_baseIS6_Lb0ELb0EEE6_M_getEv = comdat any

$_ZNSt22_Optional_payload_baseIN3c104impl17InlineDeviceGuardINS0_4cuda4impl13CUDAGuardImplEEEE6_M_getEv = comdat any

$_ZNSt22_Optional_payload_baseIN3c104impl17InlineDeviceGuardINS0_4cuda4impl13CUDAGuardImplEEEE12_M_constructIJRNS0_6DeviceEEEEvDpOT_ = comdat any

$_ZSt11__addressofIN3c104impl17InlineDeviceGuardINS0_4cuda4impl13CUDAGuardImplEEEEPT_RS7_ = comdat any

$_ZSt10_ConstructIN3c104impl17InlineDeviceGuardINS0_4cuda4impl13CUDAGuardImplEEEJRNS0_6DeviceEEEvPT_DpOT0_ = comdat any

$_ZN3c104impl17InlineDeviceGuardINS_4cuda4impl13CUDAGuardImplEEC2ENS_6DeviceE = comdat any

$_ZNK3c106Device4typeEv = comdat any

$_ZN3c104cuda4impl13CUDAGuardImplC2ENS_10DeviceTypeE = comdat any

$_ZNK3c104cuda4impl13CUDAGuardImpl9getDeviceEv = comdat any

$_ZNK3c104cuda4impl13CUDAGuardImpl14exchangeDeviceENS_6DeviceE = comdat any

$_ZNK3c106Device7is_cudaEv = comdat any

$_ZN3c103strIJEEEDcDpRKT_ = comdat any

$_ZN3c106detail23torchInternalAssertFailEPKcS2_jS2_NS0_22CompileTimeEmptyStringE = comdat any

$_ZN3c106DeviceC2ENS_10DeviceTypeEa = comdat any

$_ZN3c106Device8validateEv = comdat any

$_ZN3c103strIJA46_ciEEEDcDpRKT_ = comdat any

$_ZNK3c106Device6is_cpuEv = comdat any

$_ZN3c103strIJA42_ciEEEDcDpRKT_ = comdat any

$_ZN3c106detail12_str_wrapperIJPKcRKiEE4callB5cxx11ERKS3_S5_ = comdat any

$_ZN3c106detail4_strIPKcJiEEERSoS4_RKT_DpRKT0_ = comdat any

$_ZN3c106detail4_strIiEERSoS2_RKT_ = comdat any

$_ZN3c106detail12_str_wrapperIJEE4callEv = comdat any

$_ZN3c104impl24DeviceGuardImplInterfaceC2Ev = comdat any

$_ZNK3c104cuda4impl13CUDAGuardImpl4typeEv = comdat any

$_ZNK3c104cuda4impl13CUDAGuardImpl9setDeviceENS_6DeviceE = comdat any

$_ZNK3c104cuda4impl13CUDAGuardImpl9getStreamENS_6DeviceE = comdat any

$_ZNK3c104cuda4impl13CUDAGuardImpl16getDefaultStreamENS_6DeviceE = comdat any

$_ZNK3c104cuda4impl13CUDAGuardImpl23getStreamFromGlobalPoolENS_6DeviceEb = comdat any

$_ZNK3c104cuda4impl13CUDAGuardImpl12getNewStreamENS_6DeviceEi = comdat any

$_ZNK3c104cuda4impl13CUDAGuardImpl14exchangeStreamENS_6StreamE = comdat any

$_ZNK3c104cuda4impl13CUDAGuardImpl12destroyEventEPva = comdat any

$_ZNK3c104cuda4impl13CUDAGuardImpl6recordEPPvRKNS_6StreamEaNS_9EventFlagE = comdat any

$_ZNK3c104cuda4impl13CUDAGuardImpl5blockEPvRKNS_6StreamE = comdat any

$_ZNK3c104cuda4impl13CUDAGuardImpl10queryEventEPv = comdat any

$_ZNK3c104cuda4impl13CUDAGuardImpl11deviceCountEv = comdat any

$_ZNK3c104cuda4impl13CUDAGuardImpl11queryStreamERKNS_6StreamE = comdat any

$_ZNK3c104cuda4impl13CUDAGuardImpl17synchronizeStreamERKNS_6StreamE = comdat any

$_ZNK3c104cuda4impl13CUDAGuardImpl16synchronizeEventEPv = comdat any

$_ZNK3c104cuda4impl13CUDAGuardImpl17synchronizeDeviceEa = comdat any

$_ZNK3c104cuda4impl13CUDAGuardImpl21recordDataPtrOnStreamERKNS_7DataPtrERKNS_6StreamE = comdat any

$_ZNK3c104cuda4impl13CUDAGuardImpl11elapsedTimeEPvS3_a = comdat any

$_ZN3c104cuda4impl13CUDAGuardImplD0Ev = comdat any

$_ZN3c106detail17torchCheckMsgImplEPKcS2_ = comdat any

$_ZN3c104cuda10CUDAStreamC2ENS_6StreamE = comdat any

$_ZN3c104cuda20CUDACachingAllocator12recordStreamERKNS_7DataPtrENS0_10CUDAStreamE = comdat any

$_ZN3c104cuda20CUDACachingAllocator3getEv = comdat any

$_ZNKSt6atomicIPN3c104cuda20CUDACachingAllocator13CUDAAllocatorEE4loadESt12memory_order = comdat any

$_ZStanSt12memory_orderSt23__memory_order_modifier = comdat any

$_ZNK3c106Stream11device_typeEv = comdat any

$_ZN3c106detail17torchCheckMsgImplEPKc = comdat any

$_ZN3c104impl8GPUTrace9get_traceEv = comdat any

$_ZNK3c104impl13PyInterpreterptEv = comdat any

$_ZNKSt6atomicIPKN3c104impl13PyInterpreterEE4loadESt12memory_order = comdat any

$_ZNK3c104cuda10CUDAStream11synchronizeEv = comdat any

$_ZNK3c106Stream6deviceEv = comdat any

$_ZN3c1011DeviceGuardC2ENS_6DeviceE = comdat any

$_ZN3c104cuda18stream_synchronizeEP11CUstream_st = comdat any

$_ZN3c1011DeviceGuardD2Ev = comdat any

$_ZN3c104impl17InlineDeviceGuardINS0_16VirtualGuardImplEED2Ev = comdat any

$_ZNK3c104impl16VirtualGuardImpl18uncheckedSetDeviceENS_6DeviceE = comdat any

$_ZN3c104impl16VirtualGuardImplD2Ev = comdat any

$_ZN3c104cuda13warning_stateEv = comdat any

$_ZN3c104cuda12WarningState19get_sync_debug_modeEv = comdat any

$_ZN3c104impl17InlineDeviceGuardINS0_16VirtualGuardImplEEC2ENS_6DeviceE = comdat any

$_ZN3c104impl16VirtualGuardImplC2ENS_10DeviceTypeE = comdat any

$_ZNK3c104impl16VirtualGuardImpl9getDeviceEv = comdat any

$_ZNK3c104impl16VirtualGuardImpl14exchangeDeviceENS_6DeviceE = comdat any

$_ZN3c104impl18getDeviceGuardImplENS_10DeviceTypeE = comdat any

$_ZNSt5arrayISt6atomicIPKN3c104impl24DeviceGuardImplInterfaceEELm21EEixEm = comdat any

$_ZNKSt6atomicIPKN3c104impl24DeviceGuardImplInterfaceEE4loadESt12memory_order = comdat any

$_ZN3c106detail17torchCheckMsgImplIJA40_cNS_10DeviceTypeEA9_cEEEDcPKcDpRKT_ = comdat any

$_ZN3c103strIJA40_cNS_10DeviceTypeEA9_cEEEDcDpRKT_ = comdat any

$_ZN3c106detail12_str_wrapperIJPKcRKNS_10DeviceTypeES3_EE4callB5cxx11ERKS3_S6_S9_ = comdat any

$_ZN3c106detail4_strIPKcJNS_10DeviceTypeES3_EEERSoS5_RKT_DpRKT0_ = comdat any

$_ZN3c106detail4_strINS_10DeviceTypeEJPKcEEERSoS5_RKT_DpRKT0_ = comdat any

$_ZN3c106detail4_strINS_10DeviceTypeEEERSoS3_RKT_ = comdat any

$_ZNSt14__array_traitsISt6atomicIPKN3c104impl24DeviceGuardImplInterfaceEELm21EE6_S_refERA21_KS6_m = comdat any

$_ZNK3c104impl16VirtualGuardImpl4typeEv = comdat any

$_ZNK3c104impl16VirtualGuardImpl9setDeviceENS_6DeviceE = comdat any

$_ZNK3c104impl16VirtualGuardImpl9getStreamENS_6DeviceE = comdat any

$_ZNK3c104impl16VirtualGuardImpl16getDefaultStreamENS_6DeviceE = comdat any

$_ZNK3c104impl16VirtualGuardImpl23getStreamFromGlobalPoolENS_6DeviceEb = comdat any

$_ZNK3c104impl16VirtualGuardImpl12getNewStreamENS_6DeviceEi = comdat any

$_ZNK3c104impl16VirtualGuardImpl14exchangeStreamENS_6StreamE = comdat any

$_ZNK3c104impl16VirtualGuardImpl12destroyEventEPva = comdat any

$_ZNK3c104impl16VirtualGuardImpl6recordEPPvRKNS_6StreamEaNS_9EventFlagE = comdat any

$_ZNK3c104impl16VirtualGuardImpl5blockEPvRKNS_6StreamE = comdat any

$_ZNK3c104impl16VirtualGuardImpl10queryEventEPv = comdat any

$_ZNK3c104impl16VirtualGuardImpl11deviceCountEv = comdat any

$_ZNK3c104impl16VirtualGuardImpl11queryStreamERKNS_6StreamE = comdat any

$_ZNK3c104impl16VirtualGuardImpl17synchronizeStreamERKNS_6StreamE = comdat any

$_ZNK3c104impl16VirtualGuardImpl16synchronizeEventEPv = comdat any

$_ZNK3c104impl16VirtualGuardImpl17synchronizeDeviceEa = comdat any

$_ZNK3c104impl16VirtualGuardImpl21recordDataPtrOnStreamERKNS_7DataPtrERKNS_6StreamE = comdat any

$_ZNK3c104impl16VirtualGuardImpl11elapsedTimeEPvS2_a = comdat any

$_ZN3c104impl16VirtualGuardImplD0Ev = comdat any

$_ZNK3c104cuda10CUDAStream5queryEv = comdat any

$_ZNK3c106Stream12device_indexEv = comdat any

$_ZN3c106detail17torchCheckMsgImplIJA20_caA49_caA2_cEEEDcPKcDpRKT_ = comdat any

$_ZNK3c104cuda4impl13CUDAGuardImpl11createEventEPP10CUevent_stNS_9EventFlagE = comdat any

$_ZN3c103strIJA20_caA49_caA2_cEEEDcDpRKT_ = comdat any

$_ZN3c106detail12_str_wrapperIJPKcRKaS3_S5_S3_EE4callB5cxx11ERKS3_S5_S8_S5_S8_ = comdat any

$_ZN3c106detail4_strIPKcJaS3_aS3_EEERSoS4_RKT_DpRKT0_ = comdat any

$_ZN3c106detail4_strIaJPKcaS3_EEERSoS4_RKT_DpRKT0_ = comdat any

$_ZN3c106detail4_strIaEERSoS2_RKT_ = comdat any

$_ZN3c106detail4_strIPKcJaS3_EEERSoS4_RKT_DpRKT0_ = comdat any

$_ZN3c106detail4_strIaJPKcEEERSoS4_RKT_DpRKT0_ = comdat any

$_ZNK3c104cuda10CUDAStream6unwrapEv = comdat any

$_ZNK3c104cuda10CUDAStreamcvNS_6StreamEEv = comdat any

$_ZNK3c104impl24DeviceGuardImplInterface16getDefaultStreamENS_6DeviceE = comdat any

$_ZNK3c104impl24DeviceGuardImplInterface23getStreamFromGlobalPoolENS_6DeviceEb = comdat any

$_ZNK3c104impl24DeviceGuardImplInterface12getNewStreamENS_6DeviceEi = comdat any

$_ZNK3c104impl24DeviceGuardImplInterface12destroyEventEPva = comdat any

$_ZNK3c104impl24DeviceGuardImplInterface6recordEPPvRKNS_6StreamEaNS_9EventFlagE = comdat any

$_ZNK3c104impl24DeviceGuardImplInterface5blockEPvRKNS_6StreamE = comdat any

$_ZNK3c104impl24DeviceGuardImplInterface10queryEventEPv = comdat any

$_ZNK3c104impl24DeviceGuardImplInterface11queryStreamERKNS_6StreamE = comdat any

$_ZNK3c104impl24DeviceGuardImplInterface17synchronizeStreamERKNS_6StreamE = comdat any

$_ZNK3c104impl24DeviceGuardImplInterface16synchronizeEventEPv = comdat any

$_ZNK3c104impl24DeviceGuardImplInterface17synchronizeDeviceEa = comdat any

$_ZNK3c104impl24DeviceGuardImplInterface21recordDataPtrOnStreamERKNS_7DataPtrERKNS_6StreamE = comdat any

$_ZNK3c104impl24DeviceGuardImplInterface11elapsedTimeEPvS2_a = comdat any

$_ZN3c104impl24DeviceGuardImplInterfaceD0Ev = comdat any

$_ZNKSt19_Optional_base_implIN3c106DeviceESt14_Optional_baseIS1_Lb1ELb1EEE13_M_is_engagedEv = comdat any

$_ZNSt19_Optional_base_implIN3c106DeviceESt14_Optional_baseIS1_Lb1ELb1EEE6_M_getEv = comdat any

$_ZSt27__throw_bad_optional_accessv = comdat any

$_ZNSt19bad_optional_accessC2Ev = comdat any

$_ZNSt19bad_optional_accessD2Ev = comdat any

$_ZNSt9exceptionC2Ev = comdat any

$_ZNSt19bad_optional_accessD0Ev = comdat any

$_ZNKSt19bad_optional_access4whatEv = comdat any

$_ZNSt22_Optional_payload_baseIN3c106DeviceEE6_M_getEv = comdat any

$_ZNSt14_Optional_baseIN3c104impl17InlineDeviceGuardINS0_4cuda4impl13CUDAGuardImplEEELb0ELb0EEC2Ev = comdat any

$_ZNSt17_Optional_payloadIN3c104impl17InlineDeviceGuardINS0_4cuda4impl13CUDAGuardImplEEELb0ELb0ELb0EEC2Ev = comdat any

$_ZNSt17_Optional_payloadIN3c104impl17InlineDeviceGuardINS0_4cuda4impl13CUDAGuardImplEEELb1ELb0ELb0EEC2Ev = comdat any

$_ZNSt22_Optional_payload_baseIN3c104impl17InlineDeviceGuardINS0_4cuda4impl13CUDAGuardImplEEEEC2Ev = comdat any

$_ZNSt22_Optional_payload_baseIN3c104impl17InlineDeviceGuardINS0_4cuda4impl13CUDAGuardImplEEEE8_StorageIS6_Lb0EEC2Ev = comdat any

$_ZNK2at10TensorBase7definedEv = comdat any

$_ZNK2at10TensorBase6deviceEv = comdat any

$_ZNSt8optionalIN3c106DeviceEEC2IS1_Lb1EEEOT_ = comdat any

$_ZNSt8optionalIN3c106DeviceEEC2ESt9nullopt_t = comdat any

$_ZNSt14_Optional_baseIN3c106DeviceELb1ELb1EEC2Ev = comdat any

$_ZNSt17_Optional_payloadIN3c106DeviceELb1ELb1ELb1EEC2Ev = comdat any

$_ZNSt22_Optional_payload_baseIN3c106DeviceEEC2Ev = comdat any

$_ZNSt22_Optional_payload_baseIN3c106DeviceEE8_StorageIS1_Lb1EEC2Ev = comdat any

$_ZSt7forwardIN3c106DeviceEEOT_RNSt16remove_referenceIS2_E4typeE = comdat any

$_ZNSt14_Optional_baseIN3c106DeviceELb1ELb1EEC2IJS1_ELb0EEESt10in_place_tDpOT_ = comdat any

$_ZNSt17_Optional_payloadIN3c106DeviceELb1ELb1ELb1EECI2St22_Optional_payload_baseIS1_EIJS1_EEESt10in_place_tDpOT_ = comdat any

$_ZNSt22_Optional_payload_baseIN3c106DeviceEEC2IJS1_EEESt10in_place_tDpOT_ = comdat any

$_ZNSt22_Optional_payload_baseIN3c106DeviceEE8_StorageIS1_Lb1EEC2IJS1_EEESt10in_place_tDpOT_ = comdat any

$_ZNK3c1010TensorImpl6deviceEv = comdat any

$_ZNK3c1010TensorImpl14device_defaultEv = comdat any

$_ZNKRSt8optionalIN3c106DeviceEEdeEv = comdat any

$_ZNKSt19_Optional_base_implIN3c106DeviceESt14_Optional_baseIS1_Lb1ELb1EEE6_M_getEv = comdat any

$_ZNKSt22_Optional_payload_baseIN3c106DeviceEE6_M_getEv = comdat any

$_ZNK3c1013intrusive_ptrINS_10TensorImplENS_19UndefinedTensorImplEEcvbEv = comdat any

$_ZN3c1019UndefinedTensorImpl9singletonEv = comdat any

$_ZNK3c1010TensorImpl4sizeEl = comdat any

$_ZNK3c1010TensorImpl14matches_policyENS0_18SizesStridesPolicyE = comdat any

$_ZNK3c1010TensorImpl3dimEv = comdat any

$_ZN3c1014maybe_wrap_dimEllb = comdat any

$_ZNK3c104impl15SizesAndStrides17size_at_uncheckedEm = comdat any

$_ZNK3c104impl15SizesAndStrides10sizes_dataEv = comdat any

$_ZNK3c104impl15SizesAndStrides8isInlineEv = comdat any

$_ZN3c1015_maybe_wrap_dimIlEET_S1_S1_b = comdat any

$_ZSt4moveIRlEONSt16remove_referenceIT_E4typeEOS2_ = comdat any

$_ZNK3c104impl15SizesAndStrides4sizeEv = comdat any

$_ZNK3c1010TensorImpl5numelEv = comdat any

$_ZNK2at10TensorBase13is_contiguousEN3c1012MemoryFormatE = comdat any

$_ZSt3minIiEUa9enable_ifILb1EERKT_S2_S2_ = comdat any

$_ZNKSt8optionalIN2at6TensorEE9has_valueEv = comdat any

$_ZNKSt8optionalIN2at6TensorEEptEv = comdat any

$_ZNKSt19_Optional_base_implIN2at6TensorESt14_Optional_baseIS1_Lb0ELb0EEE6_M_getEv = comdat any

$_ZSt11__addressofIKN2at6TensorEEPT_RS3_ = comdat any

$_ZNKSt22_Optional_payload_baseIN2at6TensorEE6_M_getEv = comdat any

$_ZNKSt19_Optional_base_implIN2at6TensorESt14_Optional_baseIS1_Lb0ELb0EEE13_M_is_engagedEv = comdat any

$_ZNK3c1010TensorImpl13is_contiguousENS_12MemoryFormatE = comdat any

$_ZNK3c1010TensorImpl21is_contiguous_defaultENS_12MemoryFormatE = comdat any

$_ZNK3c1010TensorImpl19symbolic_shape_metaEv = comdat any

$_ZNK3c1017SymbolicShapeMeta27is_channels_last_contiguousEv = comdat any

$_ZNK3c1017SymbolicShapeMeta30is_channels_last_3d_contiguousEv = comdat any

$_ZNK3c1017SymbolicShapeMeta13is_contiguousEv = comdat any

$_ZNK3c1017SymbolicShapeMeta17has_is_contiguousEv = comdat any

$_ZNK3c1017SymbolicShapeMeta34has_is_channels_last_3d_contiguousEv = comdat any

$_ZNK3c1017SymbolicShapeMeta31has_is_channels_last_contiguousEv = comdat any

$_ZNKSt10unique_ptrIN3c109ExtraMetaESt14default_deleteIS1_EEcvbEv = comdat any

$_ZNKSt10unique_ptrIN3c109ExtraMetaESt14default_deleteIS1_EEptEv = comdat any

$_ZNKSt10unique_ptrIN3c1017SymbolicShapeMetaESt14default_deleteIS1_EEcvbEv = comdat any

$_ZNKSt10unique_ptrIN3c1017SymbolicShapeMetaESt14default_deleteIS1_EEdeEv = comdat any

$_ZNKSt10unique_ptrIN3c1017SymbolicShapeMetaESt14default_deleteIS1_EE3getEv = comdat any

$_ZNKSt15__uniq_ptr_implIN3c1017SymbolicShapeMetaESt14default_deleteIS1_EE6_M_ptrEv = comdat any

$_ZSt3getILm0EJPN3c1017SymbolicShapeMetaESt14default_deleteIS1_EEERKNSt13tuple_elementIXT_ESt5tupleIJDpT0_EEE4typeERKS9_ = comdat any

$_ZSt12__get_helperILm0EPN3c1017SymbolicShapeMetaEJSt14default_deleteIS1_EEERKT0_RKSt11_Tuple_implIXT_EJS5_DpT1_EE = comdat any

$_ZNSt11_Tuple_implILm0EJPN3c1017SymbolicShapeMetaESt14default_deleteIS1_EEE7_M_headERKS5_ = comdat any

$_ZNSt10_Head_baseILm0EPN3c1017SymbolicShapeMetaELb0EE7_M_headERKS3_ = comdat any

$_ZNKSt10unique_ptrIN3c109ExtraMetaESt14default_deleteIS1_EE3getEv = comdat any

$_ZNKSt15__uniq_ptr_implIN3c109ExtraMetaESt14default_deleteIS1_EE6_M_ptrEv = comdat any

$_ZSt3getILm0EJPN3c109ExtraMetaESt14default_deleteIS1_EEERKNSt13tuple_elementIXT_ESt5tupleIJDpT0_EEE4typeERKS9_ = comdat any

$_ZSt12__get_helperILm0EPN3c109ExtraMetaEJSt14default_deleteIS1_EEERKT0_RKSt11_Tuple_implIXT_EJS5_DpT1_EE = comdat any

$_ZNSt11_Tuple_implILm0EJPN3c109ExtraMetaESt14default_deleteIS1_EEE7_M_headERKS5_ = comdat any

$_ZNSt10_Head_baseILm0EPN3c109ExtraMetaELb0EE7_M_headERKS3_ = comdat any

$_ZN4vllm25scaled_fp8_conversion_vecIfLb1EEEvPN3c1013Float8_e4m3fnEPKT_flii = comdat any

$_ZNSt14numeric_limitsIN3c1013Float8_e4m3fnEE3maxEv = comdat any

$_ZN3c10ngERKNS_13Float8_e4m3fnE = comdat any

$_ZNK3c1013Float8_e4m3fncvfEv = comdat any

$_ZN3c1013Float8_e4m3fnC1Ef = comdat any

$_ZN3c1013Float8_e4m3fnC2Ef = comdat any

$_ZN3c106detail25fp8e4m3fn_from_fp32_valueEf = comdat any

$_ZN3c106detail12fp32_to_bitsEf = comdat any

$_ZN3c106detail14fp32_from_bitsEj = comdat any

$_ZN3c106detail23fp8e4m3fn_to_fp32_valueEh = comdat any

$_ZN3c1013Float8_e4m3fn9from_bitsEv = comdat any

$_ZN3c1013Float8_e4m3fnC1EhNS0_11from_bits_tE = comdat any

$_ZN3c1013Float8_e4m3fnC2EhNS0_11from_bits_tE = comdat any

$_ZN4vllm25scaled_fp8_conversion_vecIN3c104HalfELb1EEEvPNS1_13Float8_e4m3fnEPKT_flii = comdat any

$_ZNK3c104HalfcvfEv = comdat any

$_ZN4vllm25scaled_fp8_conversion_vecIN3c108BFloat16ELb1EEEvPNS1_13Float8_e4m3fnEPKT_flii = comdat any

$_ZNK3c108BFloat16cvfEv = comdat any

$_ZNK13__nv_bfloat16cv17__nv_bfloat16_rawEv = comdat any

$_ZN3c10dvEfNS_13Float8_e4m3fnE = comdat any

$_ZN3c104HalfC1Ef = comdat any

$_ZN3c104HalfC2Ef = comdat any

$_ZN3c108BFloat16C1Ef = comdat any

$_ZN3c108BFloat16C2Ef = comdat any

$_ZN3c10mlENS_13Float8_e4m3fnEf = comdat any

$_ZN4vllm14thread_max_vecIfEEfPKT_lii = comdat any

$_ZN4vllm14blockReduceMaxIfLi1024EEET_S1_ = comdat any

$_ZN4vllm25scaled_fp8_conversion_vecIfLb0EEEvPN3c1013Float8_e4m3fnEPKT_flii = comdat any

$_ZN4vllm6detail4_maxIfEET_S2_S2_ = comdat any

$_ZN4vllm11blockReduceIfLi1024EEET_S1_PFS1_S1_S1_E = comdat any

$_ZN4vllm10warpReduceIfLi32EEET_S1_PFS1_S1_S1_E = comdat any

$_Z15__shfl_xor_syncjfii = comdat any

$_ZN4vllm14thread_max_vecIN3c104HalfEEEfPKT_lii = comdat any

$_ZN4vllm25scaled_fp8_conversion_vecIN3c104HalfELb0EEEvPNS1_13Float8_e4m3fnEPKT_flii = comdat any

$_ZN4vllm14thread_max_vecIN3c108BFloat16EEEfPKT_lii = comdat any

$_ZN4vllm25scaled_fp8_conversion_vecIN3c108BFloat16ELb0EEEvPNS1_13Float8_e4m3fnEPKT_flii = comdat any

$_ZTVN3c104cuda4impl13CUDAGuardImplE = comdat any

$_ZTSN3c104cuda4impl13CUDAGuardImplE = comdat any

$_ZTSN3c104impl24DeviceGuardImplInterfaceE = comdat any

$_ZTIN3c104impl24DeviceGuardImplInterfaceE = comdat any

$_ZTIN3c104cuda4impl13CUDAGuardImplE = comdat any

$_ZTVN3c104impl24DeviceGuardImplInterfaceE = comdat any

$_ZTVN3c104impl16VirtualGuardImplE = comdat any

$_ZTSN3c104impl16VirtualGuardImplE = comdat any

$_ZTIN3c104impl16VirtualGuardImplE = comdat any

$_ZZN3c104cuda13warning_stateEvE14warning_state_ = comdat any

$_ZTSSt19bad_optional_access = comdat any

$_ZTISt19bad_optional_access = comdat any

$_ZTVSt19bad_optional_access = comdat any

$_ZZN4vllm23segmented_max_reductionIfEEvPfPKT_lE5cache = comdat any

$_ZZN4vllm23segmented_max_reductionIN3c104HalfEEEvPfPKT_lE5cache = comdat any

$_ZZN4vllm23segmented_max_reductionIN3c108BFloat16EEEvPfPKT_lE5cache = comdat any

$_ZZN4vllm41dynamic_per_token_scaled_fp8_quant_kernelIfEEvPN3c1013Float8_e4m3fnEPfPKT_PKfiE11token_scale = comdat any

$_ZZN4vllm11blockReduceIfLi1024EEET_S1_PFS1_S1_S1_EE6shared = comdat any

$_ZZN4vllm41dynamic_per_token_scaled_fp8_quant_kernelIN3c104HalfEEEvPNS1_13Float8_e4m3fnEPfPKT_PKfiE11token_scale = comdat any

$_ZZN4vllm41dynamic_per_token_scaled_fp8_quant_kernelIN3c108BFloat16EEEvPNS1_13Float8_e4m3fnEPfPKT_PKfiE11token_scale = comdat any

@llvm.global_ctors = appending global [1 x { i32, void ()*, i8* }] [{ i32, void ()*, i8* } { i32 65535, void ()* @_GLOBAL__sub_I_common.cu, i8* null }]
@_ZStL8__ioinit = internal global %"class.std::ios_base::Init" zeroinitializer, align 1
@__dso_handle = external hidden global i8
@__func__._Z34dynamic_per_token_scaled_fp8_quantRN2at6TensorERKS0_S1_RKSt8optionalIS0_E = private unnamed_addr constant [35 x i8] c"dynamic_per_token_scaled_fp8_quant\00", align 1
@.str = private unnamed_addr constant [73 x i8] c"/home/mvh6224/CUDA-BOSolver/coverage-exp/6649/quantization/fp8/common.cu\00", align 1
@.str.1 = private unnamed_addr constant [156 x i8] c"Expected input.is_contiguous() to be true, but got false.  (Could this error message be improved?  If so, please report an enhancement request to PyTorch.)\00", align 1
@.str.2 = private unnamed_addr constant [154 x i8] c"Expected out.is_contiguous() to be true, but got false.  (Could this error message be improved?  If so, please report an enhancement request to PyTorch.)\00", align 1
@_ZN3c1019UndefinedTensorImpl10_singletonE = external dso_local global %"struct.c10::UndefinedTensorImpl", align 8
@__func__._ZNK3c1010TensorImpl14device_defaultEv = private unnamed_addr constant [15 x i8] c"device_default\00", align 1
@.str.3 = private unnamed_addr constant [104 x i8] c"/home/mvh6224/CUDA-BOSolver/.vllm_cuda/lib/python3.10/site-packages/torch/include/c10/core/TensorImpl.h\00", align 1
@.str.4 = private unnamed_addr constant [158 x i8] c"Expected device_opt_.has_value() to be true, but got false.  (Could this error message be improved?  If so, please report an enhancement request to PyTorch.)\00", align 1
@.str.5 = private unnamed_addr constant [30 x i8] c"tensor does not have a device\00", align 1
@__func__._ZNK3c104cuda4impl13CUDAGuardImpl18uncheckedSetDeviceENS_6DeviceE = private unnamed_addr constant [19 x i8] c"uncheckedSetDevice\00", align 1
@.str.6 = private unnamed_addr constant [112 x i8] c"/home/mvh6224/CUDA-BOSolver/.vllm_cuda/lib/python3.10/site-packages/torch/include/c10/cuda/impl/CUDAGuardImpl.h\00", align 1
@.str.7 = private unnamed_addr constant [15 x i8] c"CUDA warning: \00", align 1
@_ZTVN3c104cuda4impl13CUDAGuardImplE = linkonce_odr dso_local unnamed_addr constant { [25 x i8*] } { [25 x i8*] [i8* null, i8* bitcast ({ i8*, i8*, i8* }* @_ZTIN3c104cuda4impl13CUDAGuardImplE to i8*), i8* bitcast (i8 (%"struct.c10::cuda::impl::CUDAGuardImpl"*)* @_ZNK3c104cuda4impl13CUDAGuardImpl4typeEv to i8*), i8* bitcast (i16 (%"struct.c10::cuda::impl::CUDAGuardImpl"*, i16)* @_ZNK3c104cuda4impl13CUDAGuardImpl14exchangeDeviceENS_6DeviceE to i8*), i8* bitcast (i16 (%"struct.c10::cuda::impl::CUDAGuardImpl"*)* @_ZNK3c104cuda4impl13CUDAGuardImpl9getDeviceEv to i8*), i8* bitcast (void (%"struct.c10::cuda::impl::CUDAGuardImpl"*, i16)* @_ZNK3c104cuda4impl13CUDAGuardImpl9setDeviceENS_6DeviceE to i8*), i8* bitcast (void (%"struct.c10::cuda::impl::CUDAGuardImpl"*, i16)* @_ZNK3c104cuda4impl13CUDAGuardImpl18uncheckedSetDeviceENS_6DeviceE to i8*), i8* bitcast ({ i64, i64 } (%"struct.c10::cuda::impl::CUDAGuardImpl"*, i16)* @_ZNK3c104cuda4impl13CUDAGuardImpl9getStreamENS_6DeviceE to i8*), i8* bitcast ({ i64, i64 } (%"struct.c10::cuda::impl::CUDAGuardImpl"*, i16)* @_ZNK3c104cuda4impl13CUDAGuardImpl16getDefaultStreamENS_6DeviceE to i8*), i8* bitcast ({ i64, i64 } (%"struct.c10::cuda::impl::CUDAGuardImpl"*, i16, i1)* @_ZNK3c104cuda4impl13CUDAGuardImpl23getStreamFromGlobalPoolENS_6DeviceEb to i8*), i8* bitcast ({ i64, i64 } (%"struct.c10::cuda::impl::CUDAGuardImpl"*, i16, i32)* @_ZNK3c104cuda4impl13CUDAGuardImpl12getNewStreamENS_6DeviceEi to i8*), i8* bitcast ({ i64, i64 } (%"struct.c10::cuda::impl::CUDAGuardImpl"*, i64, i64)* @_ZNK3c104cuda4impl13CUDAGuardImpl14exchangeStreamENS_6StreamE to i8*), i8* bitcast (void (%"struct.c10::cuda::impl::CUDAGuardImpl"*, i8*, i8)* @_ZNK3c104cuda4impl13CUDAGuardImpl12destroyEventEPva to i8*), i8* bitcast (void (%"struct.c10::cuda::impl::CUDAGuardImpl"*, i8**, %"class.c10::Stream"*, i8, i32)* @_ZNK3c104cuda4impl13CUDAGuardImpl6recordEPPvRKNS_6StreamEaNS_9EventFlagE to i8*), i8* bitcast (void (%"struct.c10::cuda::impl::CUDAGuardImpl"*, i8*, %"class.c10::Stream"*)* @_ZNK3c104cuda4impl13CUDAGuardImpl5blockEPvRKNS_6StreamE to i8*), i8* bitcast (i1 (%"struct.c10::cuda::impl::CUDAGuardImpl"*, i8*)* @_ZNK3c104cuda4impl13CUDAGuardImpl10queryEventEPv to i8*), i8* bitcast (i8 (%"struct.c10::cuda::impl::CUDAGuardImpl"*)* @_ZNK3c104cuda4impl13CUDAGuardImpl11deviceCountEv to i8*), i8* bitcast (i1 (%"struct.c10::cuda::impl::CUDAGuardImpl"*, %"class.c10::Stream"*)* @_ZNK3c104cuda4impl13CUDAGuardImpl11queryStreamERKNS_6StreamE to i8*), i8* bitcast (void (%"struct.c10::cuda::impl::CUDAGuardImpl"*, %"class.c10::Stream"*)* @_ZNK3c104cuda4impl13CUDAGuardImpl17synchronizeStreamERKNS_6StreamE to i8*), i8* bitcast (void (%"struct.c10::cuda::impl::CUDAGuardImpl"*, i8*)* @_ZNK3c104cuda4impl13CUDAGuardImpl16synchronizeEventEPv to i8*), i8* bitcast (void (%"struct.c10::cuda::impl::CUDAGuardImpl"*, i8)* @_ZNK3c104cuda4impl13CUDAGuardImpl17synchronizeDeviceEa to i8*), i8* bitcast (void (%"struct.c10::cuda::impl::CUDAGuardImpl"*, %"class.c10::DataPtr"*, %"class.c10::Stream"*)* @_ZNK3c104cuda4impl13CUDAGuardImpl21recordDataPtrOnStreamERKNS_7DataPtrERKNS_6StreamE to i8*), i8* bitcast (double (%"struct.c10::cuda::impl::CUDAGuardImpl"*, i8*, i8*, i8)* @_ZNK3c104cuda4impl13CUDAGuardImpl11elapsedTimeEPvS3_a to i8*), i8* bitcast (void (%"struct.c10::cuda::impl::CUDAGuardImpl"*)* @_ZN3c104cuda4impl13CUDAGuardImplD2Ev to i8*), i8* bitcast (void (%"struct.c10::cuda::impl::CUDAGuardImpl"*)* @_ZN3c104cuda4impl13CUDAGuardImplD0Ev to i8*)] }, comdat, align 8
@__func__._ZN3c104cuda4impl13CUDAGuardImplC2ENS_10DeviceTypeE = private unnamed_addr constant [14 x i8] c"CUDAGuardImpl\00", align 1
@.str.8 = private unnamed_addr constant [199 x i8] c"t == DeviceType::CUDA INTERNAL ASSERT FAILED at \22/home/mvh6224/CUDA-BOSolver/.vllm_cuda/lib/python3.10/site-packages/torch/include/c10/cuda/impl/CUDAGuardImpl.h\22:28, please report a bug to PyTorch. \00", align 1
@_ZTVN10__cxxabiv120__si_class_type_infoE = external dso_local global i8*
@_ZTSN3c104cuda4impl13CUDAGuardImplE = linkonce_odr dso_local constant [32 x i8] c"N3c104cuda4impl13CUDAGuardImplE\00", comdat, align 1
@_ZTVN10__cxxabiv117__class_type_infoE = external dso_local global i8*
@_ZTSN3c104impl24DeviceGuardImplInterfaceE = linkonce_odr dso_local constant [38 x i8] c"N3c104impl24DeviceGuardImplInterfaceE\00", comdat, align 1
@_ZTIN3c104impl24DeviceGuardImplInterfaceE = linkonce_odr dso_local constant { i8*, i8* } { i8* bitcast (i8** getelementptr inbounds (i8*, i8** @_ZTVN10__cxxabiv117__class_type_infoE, i64 2) to i8*), i8* getelementptr inbounds ([38 x i8], [38 x i8]* @_ZTSN3c104impl24DeviceGuardImplInterfaceE, i32 0, i32 0) }, comdat, align 8
@_ZTIN3c104cuda4impl13CUDAGuardImplE = linkonce_odr dso_local constant { i8*, i8*, i8* } { i8* bitcast (i8** getelementptr inbounds (i8*, i8** @_ZTVN10__cxxabiv120__si_class_type_infoE, i64 2) to i8*), i8* getelementptr inbounds ([32 x i8], [32 x i8]* @_ZTSN3c104cuda4impl13CUDAGuardImplE, i32 0, i32 0), i8* bitcast ({ i8*, i8* }* @_ZTIN3c104impl24DeviceGuardImplInterfaceE to i8*) }, comdat, align 8
@_ZTVN3c104impl24DeviceGuardImplInterfaceE = linkonce_odr dso_local unnamed_addr constant { [25 x i8*] } { [25 x i8*] [i8* null, i8* bitcast ({ i8*, i8* }* @_ZTIN3c104impl24DeviceGuardImplInterfaceE to i8*), i8* bitcast (void ()* @__cxa_pure_virtual to i8*), i8* bitcast (void ()* @__cxa_pure_virtual to i8*), i8* bitcast (void ()* @__cxa_pure_virtual to i8*), i8* bitcast (void ()* @__cxa_pure_virtual to i8*), i8* bitcast (void ()* @__cxa_pure_virtual to i8*), i8* bitcast (void ()* @__cxa_pure_virtual to i8*), i8* bitcast ({ i64, i64 } (%"struct.c10::Allocator"*, i16)* @_ZNK3c104impl24DeviceGuardImplInterface16getDefaultStreamENS_6DeviceE to i8*), i8* bitcast ({ i64, i64 } (%"struct.c10::Allocator"*, i16, i1)* @_ZNK3c104impl24DeviceGuardImplInterface23getStreamFromGlobalPoolENS_6DeviceEb to i8*), i8* bitcast ({ i64, i64 } (%"struct.c10::Allocator"*, i16, i32)* @_ZNK3c104impl24DeviceGuardImplInterface12getNewStreamENS_6DeviceEi to i8*), i8* bitcast (void ()* @__cxa_pure_virtual to i8*), i8* bitcast (void (%"struct.c10::Allocator"*, i8*, i8)* @_ZNK3c104impl24DeviceGuardImplInterface12destroyEventEPva to i8*), i8* bitcast (void (%"struct.c10::Allocator"*, i8**, %"class.c10::Stream"*, i8, i32)* @_ZNK3c104impl24DeviceGuardImplInterface6recordEPPvRKNS_6StreamEaNS_9EventFlagE to i8*), i8* bitcast (void (%"struct.c10::Allocator"*, i8*, %"class.c10::Stream"*)* @_ZNK3c104impl24DeviceGuardImplInterface5blockEPvRKNS_6StreamE to i8*), i8* bitcast (i1 (%"struct.c10::Allocator"*, i8*)* @_ZNK3c104impl24DeviceGuardImplInterface10queryEventEPv to i8*), i8* bitcast (void ()* @__cxa_pure_virtual to i8*), i8* bitcast (i1 (%"struct.c10::Allocator"*, %"class.c10::Stream"*)* @_ZNK3c104impl24DeviceGuardImplInterface11queryStreamERKNS_6StreamE to i8*), i8* bitcast (void (%"struct.c10::Allocator"*, %"class.c10::Stream"*)* @_ZNK3c104impl24DeviceGuardImplInterface17synchronizeStreamERKNS_6StreamE to i8*), i8* bitcast (void (%"struct.c10::Allocator"*, i8*)* @_ZNK3c104impl24DeviceGuardImplInterface16synchronizeEventEPv to i8*), i8* bitcast (void (%"struct.c10::Allocator"*, i8)* @_ZNK3c104impl24DeviceGuardImplInterface17synchronizeDeviceEa to i8*), i8* bitcast (void (%"struct.c10::Allocator"*, %"class.c10::DataPtr"*, %"class.c10::Stream"*)* @_ZNK3c104impl24DeviceGuardImplInterface21recordDataPtrOnStreamERKNS_7DataPtrERKNS_6StreamE to i8*), i8* bitcast (double (%"struct.c10::Allocator"*, i8*, i8*, i8)* @_ZNK3c104impl24DeviceGuardImplInterface11elapsedTimeEPvS2_a to i8*), i8* bitcast (void (%"struct.c10::Allocator"*)* @_ZN3c104impl24DeviceGuardImplInterfaceD2Ev to i8*), i8* bitcast (void (%"struct.c10::Allocator"*)* @_ZN3c104impl24DeviceGuardImplInterfaceD0Ev to i8*)] }, comdat, align 8
@__func__._ZNK3c104impl24DeviceGuardImplInterface16getDefaultStreamENS_6DeviceE = private unnamed_addr constant [17 x i8] c"getDefaultStream\00", align 1
@.str.9 = private unnamed_addr constant [123 x i8] c"/home/mvh6224/CUDA-BOSolver/.vllm_cuda/lib/python3.10/site-packages/torch/include/c10/core/impl/DeviceGuardImplInterface.h\00", align 1
@.str.10 = private unnamed_addr constant [140 x i8] c"Expected false to be true, but got false.  (Could this error message be improved?  If so, please report an enhancement request to PyTorch.)\00", align 1
@.str.11 = private unnamed_addr constant [52 x i8] c"Backend doesn't support acquiring a default stream.\00", align 1
@__func__._ZNK3c104impl24DeviceGuardImplInterface23getStreamFromGlobalPoolENS_6DeviceEb = private unnamed_addr constant [24 x i8] c"getStreamFromGlobalPool\00", align 1
@.str.12 = private unnamed_addr constant [54 x i8] c"Backend doesn't support acquiring a stream from pool.\00", align 1
@__func__._ZNK3c104impl24DeviceGuardImplInterface12getNewStreamENS_6DeviceEi = private unnamed_addr constant [13 x i8] c"getNewStream\00", align 1
@.str.13 = private unnamed_addr constant [45 x i8] c"Backend doesn't support create a new Stream.\00", align 1
@__func__._ZNK3c104impl24DeviceGuardImplInterface6recordEPPvRKNS_6StreamEaNS_9EventFlagE = private unnamed_addr constant [7 x i8] c"record\00", align 1
@.str.14 = private unnamed_addr constant [32 x i8] c"Backend doesn't support events.\00", align 1
@__func__._ZNK3c104impl24DeviceGuardImplInterface5blockEPvRKNS_6StreamE = private unnamed_addr constant [6 x i8] c"block\00", align 1
@__func__._ZNK3c104impl24DeviceGuardImplInterface10queryEventEPv = private unnamed_addr constant [11 x i8] c"queryEvent\00", align 1
@__func__._ZNK3c104impl24DeviceGuardImplInterface11queryStreamERKNS_6StreamE = private unnamed_addr constant [12 x i8] c"queryStream\00", align 1
@.str.15 = private unnamed_addr constant [42 x i8] c"Backend doesn't support querying streams.\00", align 1
@__func__._ZNK3c104impl24DeviceGuardImplInterface17synchronizeStreamERKNS_6StreamE = private unnamed_addr constant [18 x i8] c"synchronizeStream\00", align 1
@.str.16 = private unnamed_addr constant [47 x i8] c"Backend doesn't support synchronizing streams.\00", align 1
@__func__._ZNK3c104impl24DeviceGuardImplInterface16synchronizeEventEPv = private unnamed_addr constant [17 x i8] c"synchronizeEvent\00", align 1
@.str.17 = private unnamed_addr constant [46 x i8] c"Backend doesn't support synchronizing events.\00", align 1
@__func__._ZNK3c104impl24DeviceGuardImplInterface17synchronizeDeviceEa = private unnamed_addr constant [18 x i8] c"synchronizeDevice\00", align 1
@.str.18 = private unnamed_addr constant [61 x i8] c"Backend doesn't support synchronizing all streams on device.\00", align 1
@__func__._ZNK3c104impl24DeviceGuardImplInterface11elapsedTimeEPvS2_a = private unnamed_addr constant [12 x i8] c"elapsedTime\00", align 1
@.str.19 = private unnamed_addr constant [37 x i8] c"Backend doesn't support elapsedTime.\00", align 1
@__func__._ZNK3c104cuda4impl13CUDAGuardImpl9setDeviceENS_6DeviceE = private unnamed_addr constant [10 x i8] c"setDevice\00", align 1
@.str.20 = private unnamed_addr constant [189 x i8] c"d.is_cuda() INTERNAL ASSERT FAILED at \22/home/mvh6224/CUDA-BOSolver/.vllm_cuda/lib/python3.10/site-packages/torch/include/c10/cuda/impl/CUDAGuardImpl.h\22:53, please report a bug to PyTorch. \00", align 1
@__func__._ZN3c104cuda10CUDAStreamC2ENS_6StreamE = private unnamed_addr constant [11 x i8] c"CUDAStream\00", align 1
@.str.21 = private unnamed_addr constant [104 x i8] c"/home/mvh6224/CUDA-BOSolver/.vllm_cuda/lib/python3.10/site-packages/torch/include/c10/cuda/CUDAStream.h\00", align 1
@.str.22 = private unnamed_addr constant [176 x i8] c"Expected stream_.device_type() == DeviceType::CUDA to be true, but got false.  (Could this error message be improved?  If so, please report an enhancement request to PyTorch.)\00", align 1
@__func__._ZNK3c104cuda4impl13CUDAGuardImpl12destroyEventEPva = private unnamed_addr constant [13 x i8] c"destroyEvent\00", align 1
@_ZN3c104impl8GPUTrace9haveStateE = external dso_local global i8, align 1
@_ZN3c104impl8GPUTrace13gpuTraceStateE = external dso_local global %"struct.std::atomic.3", align 8
@.str.23 = private unnamed_addr constant [194 x i8] c"Expected device_index == -1 || device_index == stream.device_index() to be true, but got false.  (Could this error message be improved?  If so, please report an enhancement request to PyTorch.)\00", align 1
@.str.24 = private unnamed_addr constant [20 x i8] c"Event device index \00", align 1
@.str.25 = private unnamed_addr constant [49 x i8] c" does not match recording stream's device index \00", align 1
@.str.26 = private unnamed_addr constant [2 x i8] c".\00", align 1
@__func__._ZNK3c104cuda4impl13CUDAGuardImpl11createEventEPP10CUevent_stNS_9EventFlagE = private unnamed_addr constant [12 x i8] c"createEvent\00", align 1
@.str.27 = private unnamed_addr constant [33 x i8] c"CUDA event received unknown flag\00", align 1
@__func__._ZNK3c104cuda10CUDAStream5queryEv = private unnamed_addr constant [6 x i8] c"query\00", align 1
@_ZTVN3c104impl16VirtualGuardImplE = linkonce_odr dso_local unnamed_addr constant { [25 x i8*] } { [25 x i8*] [i8* null, i8* bitcast ({ i8*, i8*, i8* }* @_ZTIN3c104impl16VirtualGuardImplE to i8*), i8* bitcast (i8 (%"class.c10::impl::VirtualGuardImpl"*)* @_ZNK3c104impl16VirtualGuardImpl4typeEv to i8*), i8* bitcast (i16 (%"class.c10::impl::VirtualGuardImpl"*, i16)* @_ZNK3c104impl16VirtualGuardImpl14exchangeDeviceENS_6DeviceE to i8*), i8* bitcast (i16 (%"class.c10::impl::VirtualGuardImpl"*)* @_ZNK3c104impl16VirtualGuardImpl9getDeviceEv to i8*), i8* bitcast (void (%"class.c10::impl::VirtualGuardImpl"*, i16)* @_ZNK3c104impl16VirtualGuardImpl9setDeviceENS_6DeviceE to i8*), i8* bitcast (void (%"class.c10::impl::VirtualGuardImpl"*, i16)* @_ZNK3c104impl16VirtualGuardImpl18uncheckedSetDeviceENS_6DeviceE to i8*), i8* bitcast ({ i64, i64 } (%"class.c10::impl::VirtualGuardImpl"*, i16)* @_ZNK3c104impl16VirtualGuardImpl9getStreamENS_6DeviceE to i8*), i8* bitcast ({ i64, i64 } (%"class.c10::impl::VirtualGuardImpl"*, i16)* @_ZNK3c104impl16VirtualGuardImpl16getDefaultStreamENS_6DeviceE to i8*), i8* bitcast ({ i64, i64 } (%"class.c10::impl::VirtualGuardImpl"*, i16, i1)* @_ZNK3c104impl16VirtualGuardImpl23getStreamFromGlobalPoolENS_6DeviceEb to i8*), i8* bitcast ({ i64, i64 } (%"class.c10::impl::VirtualGuardImpl"*, i16, i32)* @_ZNK3c104impl16VirtualGuardImpl12getNewStreamENS_6DeviceEi to i8*), i8* bitcast ({ i64, i64 } (%"class.c10::impl::VirtualGuardImpl"*, i64, i64)* @_ZNK3c104impl16VirtualGuardImpl14exchangeStreamENS_6StreamE to i8*), i8* bitcast (void (%"class.c10::impl::VirtualGuardImpl"*, i8*, i8)* @_ZNK3c104impl16VirtualGuardImpl12destroyEventEPva to i8*), i8* bitcast (void (%"class.c10::impl::VirtualGuardImpl"*, i8**, %"class.c10::Stream"*, i8, i32)* @_ZNK3c104impl16VirtualGuardImpl6recordEPPvRKNS_6StreamEaNS_9EventFlagE to i8*), i8* bitcast (void (%"class.c10::impl::VirtualGuardImpl"*, i8*, %"class.c10::Stream"*)* @_ZNK3c104impl16VirtualGuardImpl5blockEPvRKNS_6StreamE to i8*), i8* bitcast (i1 (%"class.c10::impl::VirtualGuardImpl"*, i8*)* @_ZNK3c104impl16VirtualGuardImpl10queryEventEPv to i8*), i8* bitcast (i8 (%"class.c10::impl::VirtualGuardImpl"*)* @_ZNK3c104impl16VirtualGuardImpl11deviceCountEv to i8*), i8* bitcast (i1 (%"class.c10::impl::VirtualGuardImpl"*, %"class.c10::Stream"*)* @_ZNK3c104impl16VirtualGuardImpl11queryStreamERKNS_6StreamE to i8*), i8* bitcast (void (%"class.c10::impl::VirtualGuardImpl"*, %"class.c10::Stream"*)* @_ZNK3c104impl16VirtualGuardImpl17synchronizeStreamERKNS_6StreamE to i8*), i8* bitcast (void (%"class.c10::impl::VirtualGuardImpl"*, i8*)* @_ZNK3c104impl16VirtualGuardImpl16synchronizeEventEPv to i8*), i8* bitcast (void (%"class.c10::impl::VirtualGuardImpl"*, i8)* @_ZNK3c104impl16VirtualGuardImpl17synchronizeDeviceEa to i8*), i8* bitcast (void (%"class.c10::impl::VirtualGuardImpl"*, %"class.c10::DataPtr"*, %"class.c10::Stream"*)* @_ZNK3c104impl16VirtualGuardImpl21recordDataPtrOnStreamERKNS_7DataPtrERKNS_6StreamE to i8*), i8* bitcast (double (%"class.c10::impl::VirtualGuardImpl"*, i8*, i8*, i8)* @_ZNK3c104impl16VirtualGuardImpl11elapsedTimeEPvS2_a to i8*), i8* bitcast (void (%"class.c10::impl::VirtualGuardImpl"*)* @_ZN3c104impl16VirtualGuardImplD2Ev to i8*), i8* bitcast (void (%"class.c10::impl::VirtualGuardImpl"*)* @_ZN3c104impl16VirtualGuardImplD0Ev to i8*)] }, comdat, align 8
@_ZTSN3c104impl16VirtualGuardImplE = linkonce_odr dso_local constant [30 x i8] c"N3c104impl16VirtualGuardImplE\00", comdat, align 1
@_ZTIN3c104impl16VirtualGuardImplE = linkonce_odr dso_local constant { i8*, i8*, i8* } { i8* bitcast (i8** getelementptr inbounds (i8*, i8** @_ZTVN10__cxxabiv120__si_class_type_infoE, i64 2) to i8*), i8* getelementptr inbounds ([30 x i8], [30 x i8]* @_ZTSN3c104impl16VirtualGuardImplE, i32 0, i32 0), i8* bitcast ({ i8*, i8* }* @_ZTIN3c104impl24DeviceGuardImplInterfaceE to i8*) }, comdat, align 8
@_ZN3c104impl26device_guard_impl_registryE = external dso_local global %"struct.std::array", align 8
@__func__._ZN3c104impl18getDeviceGuardImplENS_10DeviceTypeE = private unnamed_addr constant [19 x i8] c"getDeviceGuardImpl\00", align 1
@.str.28 = private unnamed_addr constant [136 x i8] c"Expected p to be true, but got false.  (Could this error message be improved?  If so, please report an enhancement request to PyTorch.)\00", align 1
@.str.29 = private unnamed_addr constant [40 x i8] c"PyTorch is not linked with support for \00", align 1
@.str.30 = private unnamed_addr constant [9 x i8] c" devices\00", align 1
@.str.31 = private unnamed_addr constant [107 x i8] c"/home/mvh6224/CUDA-BOSolver/.vllm_cuda/lib/python3.10/site-packages/torch/include/c10/cuda/CUDAFunctions.h\00", align 1
@__func__._ZN3c104cuda18stream_synchronizeEP11CUstream_st = private unnamed_addr constant [19 x i8] c"stream_synchronize\00", align 1
@_ZZN3c104cuda13warning_stateEvE14warning_state_ = linkonce_odr dso_local global %"struct.std::__atomic_base" zeroinitializer, comdat, align 4
@_ZN3c104cuda20CUDACachingAllocator9allocatorE = external dso_local global %"struct.std::atomic.91", align 8
@.str.32 = private unnamed_addr constant [151 x i8] c"Expected event1 && event2 to be true, but got false.  (Could this error message be improved?  If so, please report an enhancement request to PyTorch.)\00", align 1
@.str.33 = private unnamed_addr constant [62 x i8] c"Both events must be recorded before calculating elapsed time.\00", align 1
@__func__._ZNK3c104cuda4impl13CUDAGuardImpl9getDeviceEv = private unnamed_addr constant [10 x i8] c"getDevice\00", align 1
@__func__._ZN3c106Device8validateEv = private unnamed_addr constant [9 x i8] c"validate\00", align 1
@.str.34 = private unnamed_addr constant [100 x i8] c"/home/mvh6224/CUDA-BOSolver/.vllm_cuda/lib/python3.10/site-packages/torch/include/c10/core/Device.h\00", align 1
@.str.35 = private unnamed_addr constant [179 x i8] c"index_ >= -1 INTERNAL ASSERT FAILED at \22/home/mvh6224/CUDA-BOSolver/.vllm_cuda/lib/python3.10/site-packages/torch/include/c10/core/Device.h\22:180, please report a bug to PyTorch. \00", align 1
@.str.36 = private unnamed_addr constant [46 x i8] c"Device index must be -1 or non-negative, got \00", align 1
@.str.37 = private unnamed_addr constant [191 x i8] c"!is_cpu() || index_ <= 0 INTERNAL ASSERT FAILED at \22/home/mvh6224/CUDA-BOSolver/.vllm_cuda/lib/python3.10/site-packages/torch/include/c10/core/Device.h\22:184, please report a bug to PyTorch. \00", align 1
@.str.38 = private unnamed_addr constant [42 x i8] c"CPU device index must be -1 or zero, got \00", align 1
@__func__._ZNK3c104cuda4impl13CUDAGuardImpl14exchangeDeviceENS_6DeviceE = private unnamed_addr constant [15 x i8] c"exchangeDevice\00", align 1
@.str.39 = private unnamed_addr constant [189 x i8] c"d.is_cuda() INTERNAL ASSERT FAILED at \22/home/mvh6224/CUDA-BOSolver/.vllm_cuda/lib/python3.10/site-packages/torch/include/c10/cuda/impl/CUDAGuardImpl.h\22:34, please report a bug to PyTorch. \00", align 1
@_ZTSSt19bad_optional_access = linkonce_odr dso_local constant [24 x i8] c"St19bad_optional_access\00", comdat, align 1
@_ZTISt9exception = external dso_local constant i8*
@_ZTISt19bad_optional_access = linkonce_odr dso_local constant { i8*, i8*, i8* } { i8* bitcast (i8** getelementptr inbounds (i8*, i8** @_ZTVN10__cxxabiv120__si_class_type_infoE, i64 2) to i8*), i8* getelementptr inbounds ([24 x i8], [24 x i8]* @_ZTSSt19bad_optional_access, i32 0, i32 0), i8* bitcast (i8** @_ZTISt9exception to i8*) }, comdat, align 8
@_ZTVSt19bad_optional_access = linkonce_odr dso_local unnamed_addr constant { [5 x i8*] } { [5 x i8*] [i8* null, i8* bitcast ({ i8*, i8*, i8* }* @_ZTISt19bad_optional_access to i8*), i8* bitcast (void (%"struct.c10::cuda::impl::CUDAGuardImpl"*)* @_ZNSt19bad_optional_accessD2Ev to i8*), i8* bitcast (void (%"struct.c10::cuda::impl::CUDAGuardImpl"*)* @_ZNSt19bad_optional_accessD0Ev to i8*), i8* bitcast (i8* (%"struct.c10::cuda::impl::CUDAGuardImpl"*)* @_ZNKSt19bad_optional_access4whatEv to i8*)] }, comdat, align 8
@_ZTVSt9exception = external dso_local unnamed_addr constant { [5 x i8*] }, align 8
@.str.40 = private unnamed_addr constant [20 x i8] c"bad optional access\00", align 1
@.str.41 = private unnamed_addr constant [24 x i8] c"scaled_fp8_quant_kernel\00", align 1
@__func__._ZZ23static_scaled_fp8_quantRN2at6TensorERKS0_S3_ENKUlvE_clEv = private unnamed_addr constant [11 x i8] c"operator()\00", align 1
@.str.42 = private unnamed_addr constant [24 x i8] c"\22 not implemented for '\00", align 1
@.str.43 = private unnamed_addr constant [2 x i8] c"'\00", align 1
@.str.44 = private unnamed_addr constant [5 x i8] c"Byte\00", align 1
@.str.45 = private unnamed_addr constant [5 x i8] c"Char\00", align 1
@.str.46 = private unnamed_addr constant [6 x i8] c"Short\00", align 1
@.str.47 = private unnamed_addr constant [4 x i8] c"Int\00", align 1
@.str.48 = private unnamed_addr constant [5 x i8] c"Long\00", align 1
@.str.49 = private unnamed_addr constant [5 x i8] c"Half\00", align 1
@.str.50 = private unnamed_addr constant [6 x i8] c"Float\00", align 1
@.str.51 = private unnamed_addr constant [7 x i8] c"Double\00", align 1
@.str.52 = private unnamed_addr constant [12 x i8] c"ComplexHalf\00", align 1
@.str.53 = private unnamed_addr constant [13 x i8] c"ComplexFloat\00", align 1
@.str.54 = private unnamed_addr constant [14 x i8] c"ComplexDouble\00", align 1
@.str.55 = private unnamed_addr constant [5 x i8] c"Bool\00", align 1
@.str.56 = private unnamed_addr constant [6 x i8] c"QInt8\00", align 1
@.str.57 = private unnamed_addr constant [7 x i8] c"QUInt8\00", align 1
@.str.58 = private unnamed_addr constant [7 x i8] c"QInt32\00", align 1
@.str.59 = private unnamed_addr constant [9 x i8] c"BFloat16\00", align 1
@.str.60 = private unnamed_addr constant [9 x i8] c"QUInt4x2\00", align 1
@.str.61 = private unnamed_addr constant [9 x i8] c"QUInt2x4\00", align 1
@.str.62 = private unnamed_addr constant [8 x i8] c"Bits1x8\00", align 1
@.str.63 = private unnamed_addr constant [8 x i8] c"Bits2x4\00", align 1
@.str.64 = private unnamed_addr constant [8 x i8] c"Bits4x2\00", align 1
@.str.65 = private unnamed_addr constant [6 x i8] c"Bits8\00", align 1
@.str.66 = private unnamed_addr constant [7 x i8] c"Bits16\00", align 1
@.str.67 = private unnamed_addr constant [12 x i8] c"Float8_e5m2\00", align 1
@.str.68 = private unnamed_addr constant [14 x i8] c"Float8_e4m3fn\00", align 1
@.str.69 = private unnamed_addr constant [16 x i8] c"Float8_e5m2fnuz\00", align 1
@.str.70 = private unnamed_addr constant [16 x i8] c"Float8_e4m3fnuz\00", align 1
@.str.71 = private unnamed_addr constant [7 x i8] c"UInt16\00", align 1
@.str.72 = private unnamed_addr constant [7 x i8] c"UInt32\00", align 1
@.str.73 = private unnamed_addr constant [7 x i8] c"UInt64\00", align 1
@.str.74 = private unnamed_addr constant [6 x i8] c"UInt1\00", align 1
@.str.75 = private unnamed_addr constant [6 x i8] c"UInt2\00", align 1
@.str.76 = private unnamed_addr constant [6 x i8] c"UInt3\00", align 1
@.str.77 = private unnamed_addr constant [6 x i8] c"UInt4\00", align 1
@.str.78 = private unnamed_addr constant [6 x i8] c"UInt5\00", align 1
@.str.79 = private unnamed_addr constant [6 x i8] c"UInt6\00", align 1
@.str.80 = private unnamed_addr constant [6 x i8] c"UInt7\00", align 1
@.str.81 = private unnamed_addr constant [5 x i8] c"Int1\00", align 1
@.str.82 = private unnamed_addr constant [5 x i8] c"Int2\00", align 1
@.str.83 = private unnamed_addr constant [5 x i8] c"Int3\00", align 1
@.str.84 = private unnamed_addr constant [5 x i8] c"Int4\00", align 1
@.str.85 = private unnamed_addr constant [5 x i8] c"Int5\00", align 1
@.str.86 = private unnamed_addr constant [5 x i8] c"Int6\00", align 1
@.str.87 = private unnamed_addr constant [5 x i8] c"Int7\00", align 1
@.str.88 = private unnamed_addr constant [15 x i8] c"Float8_e8m0fnu\00", align 1
@.str.89 = private unnamed_addr constant [15 x i8] c"UNKNOWN_SCALAR\00", align 1
@__func__._ZNK3c1010TensorImpl19symbolic_shape_metaEv = private unnamed_addr constant [20 x i8] c"symbolic_shape_meta\00", align 1
@.str.90 = private unnamed_addr constant [220 x i8] c"extra_meta_ && extra_meta_->symbolic_shape_meta_ INTERNAL ASSERT FAILED at \22/home/mvh6224/CUDA-BOSolver/.vllm_cuda/lib/python3.10/site-packages/torch/include/c10/core/TensorImpl.h\22:1733, please report a bug to PyTorch. \00", align 1
@.str.91 = private unnamed_addr constant [42 x i8] c"dynamic_per_token_scaled_fp8_quant_kernel\00", align 1
@_ZZN4vllm23segmented_max_reductionIfEEvPfPKT_lE5cache = linkonce_odr dso_local addrspace(3) global [1024 x float] undef, comdat, align 4
@_ZZN4vllm23segmented_max_reductionIN3c104HalfEEEvPfPKT_lE5cache = linkonce_odr dso_local addrspace(3) global [1024 x float] undef, comdat, align 4
@_ZZN4vllm23segmented_max_reductionIN3c108BFloat16EEEvPfPKT_lE5cache = linkonce_odr dso_local addrspace(3) global [1024 x float] undef, comdat, align 4
@_ZZN4vllm41dynamic_per_token_scaled_fp8_quant_kernelIfEEvPN3c1013Float8_e4m3fnEPfPKT_PKfiE11token_scale = linkonce_odr dso_local addrspace(3) global float undef, comdat, align 4
@_ZZN4vllm11blockReduceIfLi1024EEET_S1_PFS1_S1_S1_EE6shared = linkonce_odr dso_local addrspace(3) global [32 x float] undef, comdat, align 4
@_ZZN4vllm41dynamic_per_token_scaled_fp8_quant_kernelIN3c104HalfEEEvPNS1_13Float8_e4m3fnEPfPKT_PKfiE11token_scale = linkonce_odr dso_local addrspace(3) global float undef, comdat, align 4
@_ZZN4vllm41dynamic_per_token_scaled_fp8_quant_kernelIN3c108BFloat16EEEvPNS1_13Float8_e4m3fnEPfPKT_PKfiE11token_scale = linkonce_odr dso_local addrspace(3) global float undef, comdat, align 4

; Function Attrs: noinline uwtable
define internal void @_GLOBAL__sub_I_common.cu() #0 section ".text.startup" {
  call void @__cxx_global_var_init()
  ret void
}

; Function Attrs: noinline uwtable
define internal void @__cxx_global_var_init() #0 section ".text.startup" {
  call void @_ZNSt8ios_base4InitC1Ev(%"class.std::ios_base::Init"* nonnull align 1 dereferenceable(1) @_ZStL8__ioinit)
  %1 = call i32 @__cxa_atexit(void (i8*)* bitcast (void (%"class.std::ios_base::Init"*)* @_ZNSt8ios_base4InitD1Ev to void (i8*)*), i8* getelementptr inbounds (%"class.std::ios_base::Init", %"class.std::ios_base::Init"* @_ZStL8__ioinit, i32 0, i32 0), i8* @__dso_handle) #3
  ret void
}

declare dso_local void @_ZNSt8ios_base4InitC1Ev(%"class.std::ios_base::Init"* nonnull align 1 dereferenceable(1)) unnamed_addr #1

; Function Attrs: nounwind
declare dso_local void @_ZNSt8ios_base4InitD1Ev(%"class.std::ios_base::Init"* nonnull align 1 dereferenceable(1)) unnamed_addr #2

; Function Attrs: nounwind
declare dso_local i32 @__cxa_atexit(void (i8*)*, i8*, i8*) #3

; Function Attrs: mustprogress noinline optnone uwtable
define dso_local void @_Z23static_scaled_fp8_quantRN2at6TensorERKS0_S3_(%"class.at::Tensor"* nonnull align 8 dereferenceable(8) %0, %"class.at::Tensor"* nonnull align 8 dereferenceable(8) %1, %"class.at::Tensor"* nonnull align 8 dereferenceable(8) %2) #4 personality i8* bitcast (i32 (...)* @__gxx_personality_v0 to i8*) {
  %4 = alloca %"class.at::Tensor"*, align 8
  %5 = alloca %"class.at::Tensor"*, align 8
  %6 = alloca %"class.at::Tensor"*, align 8
  %7 = alloca i64, align 8
  %8 = alloca i64, align 8
  %9 = alloca %struct.dim3, align 4
  %10 = alloca %struct.dim3, align 4
  %11 = alloca %"struct.c10::cuda::OptionalCUDAGuard", align 8
  %12 = alloca %"class.std::optional.53", align 1
  %13 = alloca i24, align 4
  %14 = alloca i24, align 4
  %15 = alloca %struct.CUstream_st*, align 8
  %16 = alloca %"class.c10::cuda::CUDAStream", align 8
  %17 = alloca i8*, align 8
  %18 = alloca i32, align 4
  %19 = alloca %class.anon, align 8
  store %"class.at::Tensor"* %0, %"class.at::Tensor"** %4, align 8
  store %"class.at::Tensor"* %1, %"class.at::Tensor"** %5, align 8
  store %"class.at::Tensor"* %2, %"class.at::Tensor"** %6, align 8
  %20 = load %"class.at::Tensor"*, %"class.at::Tensor"** %5, align 8
  %21 = bitcast %"class.at::Tensor"* %20 to %"class.at::TensorBase"*
  %22 = call i64 @_ZNK2at10TensorBase5numelEv(%"class.at::TensorBase"* nonnull align 8 dereferenceable(8) %21)
  %23 = load %"class.at::Tensor"*, %"class.at::Tensor"** %5, align 8
  %24 = bitcast %"class.at::Tensor"* %23 to %"class.at::TensorBase"*
  %25 = call i64 @_ZNK2at10TensorBase4sizeEl(%"class.at::TensorBase"* nonnull align 8 dereferenceable(8) %24, i64 -1)
  %26 = sdiv i64 %22, %25
  store i64 %26, i64* %7, align 8
  %27 = load %"class.at::Tensor"*, %"class.at::Tensor"** %5, align 8
  %28 = bitcast %"class.at::Tensor"* %27 to %"class.at::TensorBase"*
  %29 = call i64 @_ZNK2at10TensorBase5numelEv(%"class.at::TensorBase"* nonnull align 8 dereferenceable(8) %28)
  store i64 %29, i64* %8, align 8
  %30 = load i64, i64* %7, align 8
  %31 = trunc i64 %30 to i32
  call void @_ZN4dim3C2Ejjj(%struct.dim3* nonnull align 4 dereferenceable(12) %9, i32 %31, i32 1, i32 1)
  call void @_ZN4dim3C2Ejjj(%struct.dim3* nonnull align 4 dereferenceable(12) %10, i32 1024, i32 1, i32 1)
  %32 = load %"class.at::Tensor"*, %"class.at::Tensor"** %5, align 8
  %33 = call i24 @_ZN2at9device_ofERKNS_6TensorE(%"class.at::Tensor"* nonnull align 8 dereferenceable(8) %32)
  %34 = getelementptr inbounds %"class.std::optional.53", %"class.std::optional.53"* %12, i32 0, i32 0
  %35 = getelementptr inbounds %"struct.std::_Optional_base.54", %"struct.std::_Optional_base.54"* %34, i32 0, i32 0
  %36 = getelementptr inbounds %"struct.std::_Optional_payload.56", %"struct.std::_Optional_payload.56"* %35, i32 0, i32 0
  store i24 %33, i24* %13, align 4
  %37 = bitcast %"struct.std::_Optional_payload_base.57"* %36 to i8*
  %38 = bitcast i24* %13 to i8*
  call void @llvm.memcpy.p0i8.p0i8.i64(i8* align 1 %37, i8* align 4 %38, i64 3, i1 false)
  %39 = getelementptr inbounds %"class.std::optional.53", %"class.std::optional.53"* %12, i32 0, i32 0
  %40 = getelementptr inbounds %"struct.std::_Optional_base.54", %"struct.std::_Optional_base.54"* %39, i32 0, i32 0
  %41 = getelementptr inbounds %"struct.std::_Optional_payload.56", %"struct.std::_Optional_payload.56"* %40, i32 0, i32 0
  %42 = bitcast i24* %14 to i8*
  %43 = bitcast %"struct.std::_Optional_payload_base.57"* %41 to i8*
  call void @llvm.memcpy.p0i8.p0i8.i64(i8* align 4 %42, i8* align 1 %43, i64 3, i1 false)
  %44 = load i24, i24* %14, align 4
  call void @_ZN3c104cuda17OptionalCUDAGuardC2ESt8optionalINS_6DeviceEE(%"struct.c10::cuda::OptionalCUDAGuard"* nonnull align 8 dereferenceable(24) %11, i24 %44)
  %45 = invoke { i64, i64 } @_ZN3c104cuda20getCurrentCUDAStreamEa(i8 signext -1)
          to label %46 unwind label %66

46:                                               ; preds = %3
  %47 = getelementptr inbounds %"class.c10::cuda::CUDAStream", %"class.c10::cuda::CUDAStream"* %16, i32 0, i32 0
  %48 = bitcast %"class.c10::Stream"* %47 to { i64, i64 }*
  %49 = getelementptr inbounds { i64, i64 }, { i64, i64 }* %48, i32 0, i32 0
  %50 = extractvalue { i64, i64 } %45, 0
  store i64 %50, i64* %49, align 8
  %51 = getelementptr inbounds { i64, i64 }, { i64, i64 }* %48, i32 0, i32 1
  %52 = extractvalue { i64, i64 } %45, 1
  store i64 %52, i64* %51, align 8
  %53 = invoke %struct.CUstream_st* @_ZNK3c104cuda10CUDAStreamcvP11CUstream_stEv(%"class.c10::cuda::CUDAStream"* nonnull align 8 dereferenceable(16) %16)
          to label %54 unwind label %66

54:                                               ; preds = %46
  store %struct.CUstream_st* %53, %struct.CUstream_st** %15, align 8
  %55 = getelementptr inbounds %class.anon, %class.anon* %19, i32 0, i32 0
  %56 = load %"class.at::Tensor"*, %"class.at::Tensor"** %5, align 8
  store %"class.at::Tensor"* %56, %"class.at::Tensor"** %55, align 8
  %57 = getelementptr inbounds %class.anon, %class.anon* %19, i32 0, i32 1
  store %struct.dim3* %9, %struct.dim3** %57, align 8
  %58 = getelementptr inbounds %class.anon, %class.anon* %19, i32 0, i32 2
  store %struct.dim3* %10, %struct.dim3** %58, align 8
  %59 = getelementptr inbounds %class.anon, %class.anon* %19, i32 0, i32 3
  store %struct.CUstream_st** %15, %struct.CUstream_st*** %59, align 8
  %60 = getelementptr inbounds %class.anon, %class.anon* %19, i32 0, i32 4
  %61 = load %"class.at::Tensor"*, %"class.at::Tensor"** %4, align 8
  store %"class.at::Tensor"* %61, %"class.at::Tensor"** %60, align 8
  %62 = getelementptr inbounds %class.anon, %class.anon* %19, i32 0, i32 5
  %63 = load %"class.at::Tensor"*, %"class.at::Tensor"** %6, align 8
  store %"class.at::Tensor"* %63, %"class.at::Tensor"** %62, align 8
  %64 = getelementptr inbounds %class.anon, %class.anon* %19, i32 0, i32 6
  store i64* %8, i64** %64, align 8
  invoke void @_ZZ23static_scaled_fp8_quantRN2at6TensorERKS0_S3_ENKUlvE_clEv(%class.anon* nonnull align 8 dereferenceable(56) %19)
          to label %65 unwind label %66

65:                                               ; preds = %54
  call void @_ZN3c104cuda17OptionalCUDAGuardD2Ev(%"struct.c10::cuda::OptionalCUDAGuard"* nonnull align 8 dereferenceable(24) %11) #3
  ret void

66:                                               ; preds = %54, %46, %3
  %67 = landingpad { i8*, i32 }
          cleanup
  %68 = extractvalue { i8*, i32 } %67, 0
  store i8* %68, i8** %17, align 8
  %69 = extractvalue { i8*, i32 } %67, 1
  store i32 %69, i32* %18, align 4
  call void @_ZN3c104cuda17OptionalCUDAGuardD2Ev(%"struct.c10::cuda::OptionalCUDAGuard"* nonnull align 8 dereferenceable(24) %11) #3
  br label %70

70:                                               ; preds = %66
  %71 = load i8*, i8** %17, align 8
  %72 = load i32, i32* %18, align 4
  %73 = insertvalue { i8*, i32 } undef, i8* %71, 0
  %74 = insertvalue { i8*, i32 } %73, i32 %72, 1
  resume { i8*, i32 } %74
}

declare dso_local i32 @__gxx_personality_v0(...)

; Function Attrs: mustprogress noinline optnone uwtable
define linkonce_odr dso_local i64 @_ZNK2at10TensorBase5numelEv(%"class.at::TensorBase"* nonnull align 8 dereferenceable(8) %0) #4 comdat align 2 {
  %2 = alloca %"class.at::TensorBase"*, align 8
  store %"class.at::TensorBase"* %0, %"class.at::TensorBase"** %2, align 8
  %3 = load %"class.at::TensorBase"*, %"class.at::TensorBase"** %2, align 8
  %4 = getelementptr inbounds %"class.at::TensorBase", %"class.at::TensorBase"* %3, i32 0, i32 0
  %5 = call %"struct.c10::TensorImpl"* @_ZNK3c1013intrusive_ptrINS_10TensorImplENS_19UndefinedTensorImplEEptEv(%"class.c10::intrusive_ptr"* nonnull align 8 dereferenceable(8) %4) #3
  %6 = call i64 @_ZNK3c1010TensorImpl5numelEv(%"struct.c10::TensorImpl"* nonnull align 8 dereferenceable(184) %5)
  ret i64 %6
}

; Function Attrs: mustprogress noinline optnone uwtable
define linkonce_odr dso_local i64 @_ZNK2at10TensorBase4sizeEl(%"class.at::TensorBase"* nonnull align 8 dereferenceable(8) %0, i64 %1) #4 comdat align 2 {
  %3 = alloca %"class.at::TensorBase"*, align 8
  %4 = alloca i64, align 8
  store %"class.at::TensorBase"* %0, %"class.at::TensorBase"** %3, align 8
  store i64 %1, i64* %4, align 8
  %5 = load %"class.at::TensorBase"*, %"class.at::TensorBase"** %3, align 8
  %6 = getelementptr inbounds %"class.at::TensorBase", %"class.at::TensorBase"* %5, i32 0, i32 0
  %7 = call %"struct.c10::TensorImpl"* @_ZNK3c1013intrusive_ptrINS_10TensorImplENS_19UndefinedTensorImplEEptEv(%"class.c10::intrusive_ptr"* nonnull align 8 dereferenceable(8) %6) #3
  %8 = load i64, i64* %4, align 8
  %9 = call i64 @_ZNK3c1010TensorImpl4sizeEl(%"struct.c10::TensorImpl"* nonnull align 8 dereferenceable(184) %7, i64 %8)
  ret i64 %9
}

; Function Attrs: noinline nounwind optnone uwtable
define linkonce_odr dso_local void @_ZN4dim3C2Ejjj(%struct.dim3* nonnull align 4 dereferenceable(12) %0, i32 %1, i32 %2, i32 %3) unnamed_addr #5 comdat align 2 {
  %5 = alloca %struct.dim3*, align 8
  %6 = alloca i32, align 4
  %7 = alloca i32, align 4
  %8 = alloca i32, align 4
  store %struct.dim3* %0, %struct.dim3** %5, align 8
  store i32 %1, i32* %6, align 4
  store i32 %2, i32* %7, align 4
  store i32 %3, i32* %8, align 4
  %9 = load %struct.dim3*, %struct.dim3** %5, align 8
  %10 = getelementptr inbounds %struct.dim3, %struct.dim3* %9, i32 0, i32 0
  %11 = load i32, i32* %6, align 4
  store i32 %11, i32* %10, align 4
  %12 = getelementptr inbounds %struct.dim3, %struct.dim3* %9, i32 0, i32 1
  %13 = load i32, i32* %7, align 4
  store i32 %13, i32* %12, align 4
  %14 = getelementptr inbounds %struct.dim3, %struct.dim3* %9, i32 0, i32 2
  %15 = load i32, i32* %8, align 4
  store i32 %15, i32* %14, align 4
  ret void
}

; Function Attrs: mustprogress noinline optnone uwtable
define linkonce_odr dso_local i24 @_ZN2at9device_ofERKNS_6TensorE(%"class.at::Tensor"* nonnull align 8 dereferenceable(8) %0) #4 comdat {
  %2 = alloca %"class.std::optional.53", align 1
  %3 = alloca %"class.at::Tensor"*, align 8
  %4 = alloca %"struct.c10::Device", align 1
  %5 = alloca %"class.std::ios_base::Init", align 1
  %6 = alloca i24, align 4
  store %"class.at::Tensor"* %0, %"class.at::Tensor"** %3, align 8
  %7 = load %"class.at::Tensor"*, %"class.at::Tensor"** %3, align 8
  %8 = bitcast %"class.at::Tensor"* %7 to %"class.at::TensorBase"*
  %9 = call zeroext i1 @_ZNK2at10TensorBase7definedEv(%"class.at::TensorBase"* nonnull align 8 dereferenceable(8) %8)
  br i1 %9, label %10, label %15

10:                                               ; preds = %1
  %11 = load %"class.at::Tensor"*, %"class.at::Tensor"** %3, align 8
  %12 = bitcast %"class.at::Tensor"* %11 to %"class.at::TensorBase"*
  %13 = call i16 @_ZNK2at10TensorBase6deviceEv(%"class.at::TensorBase"* nonnull align 8 dereferenceable(8) %12)
  %14 = bitcast %"struct.c10::Device"* %4 to i16*
  store i16 %13, i16* %14, align 1
  call void @_ZNSt8optionalIN3c106DeviceEEC2IS1_Lb1EEEOT_(%"class.std::optional.53"* nonnull align 1 dereferenceable(3) %2, %"struct.c10::Device"* nonnull align 1 dereferenceable(2) %4) #3
  br label %16

15:                                               ; preds = %1
  call void @_ZNSt8optionalIN3c106DeviceEEC2ESt9nullopt_t(%"class.std::optional.53"* nonnull align 1 dereferenceable(3) %2) #3
  br label %16

16:                                               ; preds = %15, %10
  %17 = getelementptr inbounds %"class.std::optional.53", %"class.std::optional.53"* %2, i32 0, i32 0
  %18 = getelementptr inbounds %"struct.std::_Optional_base.54", %"struct.std::_Optional_base.54"* %17, i32 0, i32 0
  %19 = getelementptr inbounds %"struct.std::_Optional_payload.56", %"struct.std::_Optional_payload.56"* %18, i32 0, i32 0
  %20 = bitcast i24* %6 to i8*
  %21 = bitcast %"struct.std::_Optional_payload_base.57"* %19 to i8*
  call void @llvm.memcpy.p0i8.p0i8.i64(i8* align 4 %20, i8* align 1 %21, i64 3, i1 false)
  %22 = load i24, i24* %6, align 4
  ret i24 %22
}

; Function Attrs: argmemonly nofree nounwind willreturn
declare void @llvm.memcpy.p0i8.p0i8.i64(i8* noalias nocapture writeonly, i8* noalias nocapture readonly, i64, i1 immarg) #6

; Function Attrs: noinline optnone uwtable
define linkonce_odr dso_local void @_ZN3c104cuda17OptionalCUDAGuardC2ESt8optionalINS_6DeviceEE(%"struct.c10::cuda::OptionalCUDAGuard"* nonnull align 8 dereferenceable(24) %0, i24 %1) unnamed_addr #7 comdat align 2 {
  %3 = alloca %"class.std::optional.53", align 1
  %4 = alloca i24, align 4
  %5 = alloca %"struct.c10::cuda::OptionalCUDAGuard"*, align 8
  %6 = alloca %"class.std::optional.53", align 1
  %7 = alloca i24, align 4
  %8 = getelementptr inbounds %"class.std::optional.53", %"class.std::optional.53"* %3, i32 0, i32 0
  %9 = getelementptr inbounds %"struct.std::_Optional_base.54", %"struct.std::_Optional_base.54"* %8, i32 0, i32 0
  %10 = getelementptr inbounds %"struct.std::_Optional_payload.56", %"struct.std::_Optional_payload.56"* %9, i32 0, i32 0
  store i24 %1, i24* %4, align 4
  %11 = bitcast %"struct.std::_Optional_payload_base.57"* %10 to i8*
  %12 = bitcast i24* %4 to i8*
  call void @llvm.memcpy.p0i8.p0i8.i64(i8* align 1 %11, i8* align 4 %12, i64 3, i1 false)
  store %"struct.c10::cuda::OptionalCUDAGuard"* %0, %"struct.c10::cuda::OptionalCUDAGuard"** %5, align 8
  %13 = load %"struct.c10::cuda::OptionalCUDAGuard"*, %"struct.c10::cuda::OptionalCUDAGuard"** %5, align 8
  %14 = getelementptr inbounds %"struct.c10::cuda::OptionalCUDAGuard", %"struct.c10::cuda::OptionalCUDAGuard"* %13, i32 0, i32 0
  %15 = bitcast %"class.std::optional.53"* %6 to i8*
  %16 = bitcast %"class.std::optional.53"* %3 to i8*
  call void @llvm.memcpy.p0i8.p0i8.i64(i8* align 1 %15, i8* align 1 %16, i64 3, i1 false)
  %17 = getelementptr inbounds %"class.std::optional.53", %"class.std::optional.53"* %6, i32 0, i32 0
  %18 = getelementptr inbounds %"struct.std::_Optional_base.54", %"struct.std::_Optional_base.54"* %17, i32 0, i32 0
  %19 = getelementptr inbounds %"struct.std::_Optional_payload.56", %"struct.std::_Optional_payload.56"* %18, i32 0, i32 0
  %20 = bitcast i24* %7 to i8*
  %21 = bitcast %"struct.std::_Optional_payload_base.57"* %19 to i8*
  call void @llvm.memcpy.p0i8.p0i8.i64(i8* align 4 %20, i8* align 1 %21, i64 3, i1 false)
  %22 = load i24, i24* %7, align 4
  call void @_ZN3c104impl25InlineOptionalDeviceGuardINS_4cuda4impl13CUDAGuardImplEEC2ESt8optionalINS_6DeviceEE(%"class.c10::impl::InlineOptionalDeviceGuard"* nonnull align 8 dereferenceable(24) %14, i24 %22)
  ret void
}

declare dso_local { i64, i64 } @_ZN3c104cuda20getCurrentCUDAStreamEa(i8 signext) #1

; Function Attrs: mustprogress noinline optnone uwtable
define linkonce_odr dso_local %struct.CUstream_st* @_ZNK3c104cuda10CUDAStreamcvP11CUstream_stEv(%"class.c10::cuda::CUDAStream"* nonnull align 8 dereferenceable(16) %0) #4 comdat align 2 {
  %2 = alloca %"class.c10::cuda::CUDAStream"*, align 8
  store %"class.c10::cuda::CUDAStream"* %0, %"class.c10::cuda::CUDAStream"** %2, align 8
  %3 = load %"class.c10::cuda::CUDAStream"*, %"class.c10::cuda::CUDAStream"** %2, align 8
  %4 = call %struct.CUstream_st* @_ZNK3c104cuda10CUDAStream6streamEv(%"class.c10::cuda::CUDAStream"* nonnull align 8 dereferenceable(16) %3)
  ret %struct.CUstream_st* %4
}

; Function Attrs: mustprogress noinline optnone uwtable
define internal void @_ZZ23static_scaled_fp8_quantRN2at6TensorERKS0_S3_ENKUlvE_clEv(%class.anon* nonnull align 8 dereferenceable(56) %0) #4 align 2 personality i8* bitcast (i32 (...)* @__gxx_personality_v0 to i8*) {
  %2 = alloca %class.anon*, align 8
  %3 = alloca i8*, align 8
  %4 = alloca i8, align 1
  %5 = alloca i8*, align 8
  %6 = alloca i8, align 1
  %7 = alloca %class.anon.93, align 8
  %8 = alloca %class.anon.93, align 8
  %9 = alloca %class.anon.93, align 8
  %10 = alloca %"class.std::__cxx11::basic_string", align 8
  %11 = alloca i8, align 1
  %12 = alloca i8*, align 8
  %13 = alloca i8*, align 8
  %14 = alloca i32, align 4
  store %class.anon* %0, %class.anon** %2, align 8
  %15 = load %class.anon*, %class.anon** %2, align 8
  %16 = getelementptr inbounds %class.anon, %class.anon* %15, i32 0, i32 0
  %17 = load %"class.at::Tensor"*, %"class.at::Tensor"** %16, align 8
  %18 = bitcast %"class.at::Tensor"* %17 to %"class.at::TensorBase"*
  %19 = call signext i8 @_ZNK2at10TensorBase11scalar_typeEv(%"class.at::TensorBase"* nonnull align 8 dereferenceable(8) %18)
  store i8 %19, i8* %4, align 1
  store i8* %4, i8** %3, align 8
  store i8* getelementptr inbounds ([24 x i8], [24 x i8]* @.str.41, i32 0, i32 0), i8** %5, align 8
  %20 = load i8*, i8** %3, align 8
  %21 = load i8, i8* %20, align 1
  %22 = call signext i8 @_ZN6detail11scalar_typeEN3c1010ScalarTypeE(i8 signext %21)
  store i8 %22, i8* %6, align 1
  %23 = load i8, i8* %6, align 1
  switch i8 %23, label %96 [
    i8 6, label %24
    i8 5, label %48
    i8 15, label %72
  ]

24:                                               ; preds = %1
  br label %25

25:                                               ; preds = %24
  br label %26

26:                                               ; preds = %25
  %27 = getelementptr inbounds %class.anon.93, %class.anon.93* %7, i32 0, i32 0
  %28 = getelementptr inbounds %class.anon, %class.anon* %15, i32 0, i32 1
  %29 = load %struct.dim3*, %struct.dim3** %28, align 8
  store %struct.dim3* %29, %struct.dim3** %27, align 8
  %30 = getelementptr inbounds %class.anon.93, %class.anon.93* %7, i32 0, i32 1
  %31 = getelementptr inbounds %class.anon, %class.anon* %15, i32 0, i32 2
  %32 = load %struct.dim3*, %struct.dim3** %31, align 8
  store %struct.dim3* %32, %struct.dim3** %30, align 8
  %33 = getelementptr inbounds %class.anon.93, %class.anon.93* %7, i32 0, i32 2
  %34 = getelementptr inbounds %class.anon, %class.anon* %15, i32 0, i32 3
  %35 = load %struct.CUstream_st**, %struct.CUstream_st*** %34, align 8
  store %struct.CUstream_st** %35, %struct.CUstream_st*** %33, align 8
  %36 = getelementptr inbounds %class.anon.93, %class.anon.93* %7, i32 0, i32 3
  %37 = getelementptr inbounds %class.anon, %class.anon* %15, i32 0, i32 4
  %38 = load %"class.at::Tensor"*, %"class.at::Tensor"** %37, align 8
  store %"class.at::Tensor"* %38, %"class.at::Tensor"** %36, align 8
  %39 = getelementptr inbounds %class.anon.93, %class.anon.93* %7, i32 0, i32 4
  %40 = getelementptr inbounds %class.anon, %class.anon* %15, i32 0, i32 0
  %41 = load %"class.at::Tensor"*, %"class.at::Tensor"** %40, align 8
  store %"class.at::Tensor"* %41, %"class.at::Tensor"** %39, align 8
  %42 = getelementptr inbounds %class.anon.93, %class.anon.93* %7, i32 0, i32 5
  %43 = getelementptr inbounds %class.anon, %class.anon* %15, i32 0, i32 5
  %44 = load %"class.at::Tensor"*, %"class.at::Tensor"** %43, align 8
  store %"class.at::Tensor"* %44, %"class.at::Tensor"** %42, align 8
  %45 = getelementptr inbounds %class.anon.93, %class.anon.93* %7, i32 0, i32 6
  %46 = getelementptr inbounds %class.anon, %class.anon* %15, i32 0, i32 6
  %47 = load i64*, i64** %46, align 8
  store i64* %47, i64** %45, align 8
  call void @_ZZZ23static_scaled_fp8_quantRN2at6TensorERKS0_S3_ENKUlvE_clEvENKUlvE_clEv(%class.anon.93* nonnull align 8 dereferenceable(56) %7)
  br label %104

48:                                               ; preds = %1
  br label %49

49:                                               ; preds = %48
  br label %50

50:                                               ; preds = %49
  %51 = getelementptr inbounds %class.anon.93, %class.anon.93* %8, i32 0, i32 0
  %52 = getelementptr inbounds %class.anon, %class.anon* %15, i32 0, i32 1
  %53 = load %struct.dim3*, %struct.dim3** %52, align 8
  store %struct.dim3* %53, %struct.dim3** %51, align 8
  %54 = getelementptr inbounds %class.anon.93, %class.anon.93* %8, i32 0, i32 1
  %55 = getelementptr inbounds %class.anon, %class.anon* %15, i32 0, i32 2
  %56 = load %struct.dim3*, %struct.dim3** %55, align 8
  store %struct.dim3* %56, %struct.dim3** %54, align 8
  %57 = getelementptr inbounds %class.anon.93, %class.anon.93* %8, i32 0, i32 2
  %58 = getelementptr inbounds %class.anon, %class.anon* %15, i32 0, i32 3
  %59 = load %struct.CUstream_st**, %struct.CUstream_st*** %58, align 8
  store %struct.CUstream_st** %59, %struct.CUstream_st*** %57, align 8
  %60 = getelementptr inbounds %class.anon.93, %class.anon.93* %8, i32 0, i32 3
  %61 = getelementptr inbounds %class.anon, %class.anon* %15, i32 0, i32 4
  %62 = load %"class.at::Tensor"*, %"class.at::Tensor"** %61, align 8
  store %"class.at::Tensor"* %62, %"class.at::Tensor"** %60, align 8
  %63 = getelementptr inbounds %class.anon.93, %class.anon.93* %8, i32 0, i32 4
  %64 = getelementptr inbounds %class.anon, %class.anon* %15, i32 0, i32 0
  %65 = load %"class.at::Tensor"*, %"class.at::Tensor"** %64, align 8
  store %"class.at::Tensor"* %65, %"class.at::Tensor"** %63, align 8
  %66 = getelementptr inbounds %class.anon.93, %class.anon.93* %8, i32 0, i32 5
  %67 = getelementptr inbounds %class.anon, %class.anon* %15, i32 0, i32 5
  %68 = load %"class.at::Tensor"*, %"class.at::Tensor"** %67, align 8
  store %"class.at::Tensor"* %68, %"class.at::Tensor"** %66, align 8
  %69 = getelementptr inbounds %class.anon.93, %class.anon.93* %8, i32 0, i32 6
  %70 = getelementptr inbounds %class.anon, %class.anon* %15, i32 0, i32 6
  %71 = load i64*, i64** %70, align 8
  store i64* %71, i64** %69, align 8
  call void @_ZZZ23static_scaled_fp8_quantRN2at6TensorERKS0_S3_ENKUlvE_clEvENKUlvE0_clEv(%class.anon.93* nonnull align 8 dereferenceable(56) %8)
  br label %104

72:                                               ; preds = %1
  br label %73

73:                                               ; preds = %72
  br label %74

74:                                               ; preds = %73
  %75 = getelementptr inbounds %class.anon.93, %class.anon.93* %9, i32 0, i32 0
  %76 = getelementptr inbounds %class.anon, %class.anon* %15, i32 0, i32 1
  %77 = load %struct.dim3*, %struct.dim3** %76, align 8
  store %struct.dim3* %77, %struct.dim3** %75, align 8
  %78 = getelementptr inbounds %class.anon.93, %class.anon.93* %9, i32 0, i32 1
  %79 = getelementptr inbounds %class.anon, %class.anon* %15, i32 0, i32 2
  %80 = load %struct.dim3*, %struct.dim3** %79, align 8
  store %struct.dim3* %80, %struct.dim3** %78, align 8
  %81 = getelementptr inbounds %class.anon.93, %class.anon.93* %9, i32 0, i32 2
  %82 = getelementptr inbounds %class.anon, %class.anon* %15, i32 0, i32 3
  %83 = load %struct.CUstream_st**, %struct.CUstream_st*** %82, align 8
  store %struct.CUstream_st** %83, %struct.CUstream_st*** %81, align 8
  %84 = getelementptr inbounds %class.anon.93, %class.anon.93* %9, i32 0, i32 3
  %85 = getelementptr inbounds %class.anon, %class.anon* %15, i32 0, i32 4
  %86 = load %"class.at::Tensor"*, %"class.at::Tensor"** %85, align 8
  store %"class.at::Tensor"* %86, %"class.at::Tensor"** %84, align 8
  %87 = getelementptr inbounds %class.anon.93, %class.anon.93* %9, i32 0, i32 4
  %88 = getelementptr inbounds %class.anon, %class.anon* %15, i32 0, i32 0
  %89 = load %"class.at::Tensor"*, %"class.at::Tensor"** %88, align 8
  store %"class.at::Tensor"* %89, %"class.at::Tensor"** %87, align 8
  %90 = getelementptr inbounds %class.anon.93, %class.anon.93* %9, i32 0, i32 5
  %91 = getelementptr inbounds %class.anon, %class.anon* %15, i32 0, i32 5
  %92 = load %"class.at::Tensor"*, %"class.at::Tensor"** %91, align 8
  store %"class.at::Tensor"* %92, %"class.at::Tensor"** %90, align 8
  %93 = getelementptr inbounds %class.anon.93, %class.anon.93* %9, i32 0, i32 6
  %94 = getelementptr inbounds %class.anon, %class.anon* %15, i32 0, i32 6
  %95 = load i64*, i64** %94, align 8
  store i64* %95, i64** %93, align 8
  call void @_ZZZ23static_scaled_fp8_quantRN2at6TensorERKS0_S3_ENKUlvE_clEvENKUlvE1_clEv(%class.anon.93* nonnull align 8 dereferenceable(56) %9)
  br label %104

96:                                               ; preds = %1
  store i8 34, i8* %11, align 1
  %97 = load i8, i8* %6, align 1
  %98 = call i8* @_ZN3c108toStringENS_10ScalarTypeE(i8 signext %97)
  store i8* %98, i8** %12, align 8
  call void @_ZN3c106detail17torchCheckMsgImplIJcPKcA24_cS3_A2_cEEEDcS3_DpRKT_(%"class.std::__cxx11::basic_string"* sret(%"class.std::__cxx11::basic_string") align 8 %10, i8* getelementptr inbounds ([140 x i8], [140 x i8]* @.str.10, i64 0, i64 0), i8* nonnull align 1 dereferenceable(1) %11, i8** nonnull align 8 dereferenceable(8) %5, [24 x i8]* nonnull align 1 dereferenceable(24) @.str.42, i8** nonnull align 8 dereferenceable(8) %12, [2 x i8]* nonnull align 1 dereferenceable(2) @.str.43)
  invoke void @_ZN3c106detail14torchCheckFailEPKcS2_jRKNSt7__cxx1112basic_stringIcSt11char_traitsIcESaIcEEE(i8* getelementptr inbounds ([11 x i8], [11 x i8]* @__func__._ZZ23static_scaled_fp8_quantRN2at6TensorERKS0_S3_ENKUlvE_clEv, i64 0, i64 0), i8* getelementptr inbounds ([73 x i8], [73 x i8]* @.str, i64 0, i64 0), i32 246, %"class.std::__cxx11::basic_string"* nonnull align 8 dereferenceable(32) %10) #25
          to label %99 unwind label %100

99:                                               ; preds = %96
  unreachable

100:                                              ; preds = %96
  %101 = landingpad { i8*, i32 }
          cleanup
  %102 = extractvalue { i8*, i32 } %101, 0
  store i8* %102, i8** %13, align 8
  %103 = extractvalue { i8*, i32 } %101, 1
  store i32 %103, i32* %14, align 4
  call void @_ZNSt7__cxx1112basic_stringIcSt11char_traitsIcESaIcEED1Ev(%"class.std::__cxx11::basic_string"* nonnull align 8 dereferenceable(32) %10) #3
  br label %105

104:                                              ; preds = %74, %50, %26
  ret void

105:                                              ; preds = %100
  %106 = load i8*, i8** %13, align 8
  %107 = load i32, i32* %14, align 4
  %108 = insertvalue { i8*, i32 } undef, i8* %106, 0
  %109 = insertvalue { i8*, i32 } %108, i32 %107, 1
  resume { i8*, i32 } %109
}

; Function Attrs: noinline nounwind optnone uwtable
define linkonce_odr dso_local void @_ZN3c104cuda17OptionalCUDAGuardD2Ev(%"struct.c10::cuda::OptionalCUDAGuard"* nonnull align 8 dereferenceable(24) %0) unnamed_addr #5 comdat align 2 {
  %2 = alloca %"struct.c10::cuda::OptionalCUDAGuard"*, align 8
  store %"struct.c10::cuda::OptionalCUDAGuard"* %0, %"struct.c10::cuda::OptionalCUDAGuard"** %2, align 8
  %3 = load %"struct.c10::cuda::OptionalCUDAGuard"*, %"struct.c10::cuda::OptionalCUDAGuard"** %2, align 8
  %4 = getelementptr inbounds %"struct.c10::cuda::OptionalCUDAGuard", %"struct.c10::cuda::OptionalCUDAGuard"* %3, i32 0, i32 0
  call void @_ZN3c104impl25InlineOptionalDeviceGuardINS_4cuda4impl13CUDAGuardImplEED2Ev(%"class.c10::impl::InlineOptionalDeviceGuard"* nonnull align 8 dereferenceable(24) %4) #3
  ret void
}

; Function Attrs: noinline nounwind optnone uwtable
define linkonce_odr dso_local void @_ZN3c104impl25InlineOptionalDeviceGuardINS_4cuda4impl13CUDAGuardImplEED2Ev(%"class.c10::impl::InlineOptionalDeviceGuard"* nonnull align 8 dereferenceable(24) %0) unnamed_addr #5 comdat align 2 {
  %2 = alloca %"class.c10::impl::InlineOptionalDeviceGuard"*, align 8
  store %"class.c10::impl::InlineOptionalDeviceGuard"* %0, %"class.c10::impl::InlineOptionalDeviceGuard"** %2, align 8
  %3 = load %"class.c10::impl::InlineOptionalDeviceGuard"*, %"class.c10::impl::InlineOptionalDeviceGuard"** %2, align 8
  %4 = getelementptr inbounds %"class.c10::impl::InlineOptionalDeviceGuard", %"class.c10::impl::InlineOptionalDeviceGuard"* %3, i32 0, i32 0
  call void @_ZNSt8optionalIN3c104impl17InlineDeviceGuardINS0_4cuda4impl13CUDAGuardImplEEEED2Ev(%"class.std::optional.59"* nonnull align 8 dereferenceable(24) %4) #3
  ret void
}

; Function Attrs: noinline nounwind optnone uwtable
define linkonce_odr dso_local void @_ZNSt8optionalIN3c104impl17InlineDeviceGuardINS0_4cuda4impl13CUDAGuardImplEEEED2Ev(%"class.std::optional.59"* nonnull align 8 dereferenceable(24) %0) unnamed_addr #5 comdat align 2 {
  %2 = alloca %"class.std::optional.59"*, align 8
  store %"class.std::optional.59"* %0, %"class.std::optional.59"** %2, align 8
  %3 = load %"class.std::optional.59"*, %"class.std::optional.59"** %2, align 8
  %4 = bitcast %"class.std::optional.59"* %3 to %"struct.std::_Optional_base.60"*
  call void @_ZNSt14_Optional_baseIN3c104impl17InlineDeviceGuardINS0_4cuda4impl13CUDAGuardImplEEELb0ELb0EED2Ev(%"struct.std::_Optional_base.60"* nonnull align 8 dereferenceable(24) %4) #3
  ret void
}

; Function Attrs: noinline nounwind optnone uwtable
define linkonce_odr dso_local void @_ZNSt14_Optional_baseIN3c104impl17InlineDeviceGuardINS0_4cuda4impl13CUDAGuardImplEEELb0ELb0EED2Ev(%"struct.std::_Optional_base.60"* nonnull align 8 dereferenceable(24) %0) unnamed_addr #5 comdat align 2 {
  %2 = alloca %"struct.std::_Optional_base.60"*, align 8
  store %"struct.std::_Optional_base.60"* %0, %"struct.std::_Optional_base.60"** %2, align 8
  %3 = load %"struct.std::_Optional_base.60"*, %"struct.std::_Optional_base.60"** %2, align 8
  %4 = getelementptr inbounds %"struct.std::_Optional_base.60", %"struct.std::_Optional_base.60"* %3, i32 0, i32 0
  call void @_ZNSt17_Optional_payloadIN3c104impl17InlineDeviceGuardINS0_4cuda4impl13CUDAGuardImplEEELb0ELb0ELb0EED2Ev(%"struct.std::_Optional_payload.62"* nonnull align 8 dereferenceable(17) %4) #3
  ret void
}

; Function Attrs: noinline nounwind optnone uwtable
define linkonce_odr dso_local void @_ZNSt17_Optional_payloadIN3c104impl17InlineDeviceGuardINS0_4cuda4impl13CUDAGuardImplEEELb0ELb0ELb0EED2Ev(%"struct.std::_Optional_payload.62"* nonnull align 8 dereferenceable(17) %0) unnamed_addr #5 comdat align 2 {
  %2 = alloca %"struct.std::_Optional_payload.62"*, align 8
  store %"struct.std::_Optional_payload.62"* %0, %"struct.std::_Optional_payload.62"** %2, align 8
  %3 = load %"struct.std::_Optional_payload.62"*, %"struct.std::_Optional_payload.62"** %2, align 8
  %4 = bitcast %"struct.std::_Optional_payload.62"* %3 to %"struct.std::_Optional_payload_base.64"*
  call void @_ZNSt22_Optional_payload_baseIN3c104impl17InlineDeviceGuardINS0_4cuda4impl13CUDAGuardImplEEEE8_M_resetEv(%"struct.std::_Optional_payload_base.64"* nonnull align 8 dereferenceable(17) %4) #3
  %5 = bitcast %"struct.std::_Optional_payload.62"* %3 to %"struct.std::_Optional_payload.63"*
  call void @_ZNSt17_Optional_payloadIN3c104impl17InlineDeviceGuardINS0_4cuda4impl13CUDAGuardImplEEELb1ELb0ELb0EED2Ev(%"struct.std::_Optional_payload.63"* nonnull align 8 dereferenceable(17) %5) #3
  ret void
}

; Function Attrs: mustprogress noinline nounwind optnone uwtable
define linkonce_odr dso_local void @_ZNSt22_Optional_payload_baseIN3c104impl17InlineDeviceGuardINS0_4cuda4impl13CUDAGuardImplEEEE8_M_resetEv(%"struct.std::_Optional_payload_base.64"* nonnull align 8 dereferenceable(17) %0) #8 comdat align 2 {
  %2 = alloca %"struct.std::_Optional_payload_base.64"*, align 8
  store %"struct.std::_Optional_payload_base.64"* %0, %"struct.std::_Optional_payload_base.64"** %2, align 8
  %3 = load %"struct.std::_Optional_payload_base.64"*, %"struct.std::_Optional_payload_base.64"** %2, align 8
  %4 = getelementptr inbounds %"struct.std::_Optional_payload_base.64", %"struct.std::_Optional_payload_base.64"* %3, i32 0, i32 1
  %5 = load i8, i8* %4, align 8
  %6 = trunc i8 %5 to i1
  br i1 %6, label %7, label %8

7:                                                ; preds = %1
  call void @_ZNSt22_Optional_payload_baseIN3c104impl17InlineDeviceGuardINS0_4cuda4impl13CUDAGuardImplEEEE10_M_destroyEv(%"struct.std::_Optional_payload_base.64"* nonnull align 8 dereferenceable(17) %3) #3
  br label %8

8:                                                ; preds = %7, %1
  ret void
}

; Function Attrs: noinline nounwind optnone uwtable
define linkonce_odr dso_local void @_ZNSt17_Optional_payloadIN3c104impl17InlineDeviceGuardINS0_4cuda4impl13CUDAGuardImplEEELb1ELb0ELb0EED2Ev(%"struct.std::_Optional_payload.63"* nonnull align 8 dereferenceable(17) %0) unnamed_addr #5 comdat align 2 {
  %2 = alloca %"struct.std::_Optional_payload.63"*, align 8
  store %"struct.std::_Optional_payload.63"* %0, %"struct.std::_Optional_payload.63"** %2, align 8
  %3 = load %"struct.std::_Optional_payload.63"*, %"struct.std::_Optional_payload.63"** %2, align 8
  %4 = bitcast %"struct.std::_Optional_payload.63"* %3 to %"struct.std::_Optional_payload_base.64"*
  call void @_ZNSt22_Optional_payload_baseIN3c104impl17InlineDeviceGuardINS0_4cuda4impl13CUDAGuardImplEEEED2Ev(%"struct.std::_Optional_payload_base.64"* nonnull align 8 dereferenceable(17) %4) #3
  ret void
}

; Function Attrs: noinline nounwind optnone uwtable
define linkonce_odr dso_local void @_ZNSt22_Optional_payload_baseIN3c104impl17InlineDeviceGuardINS0_4cuda4impl13CUDAGuardImplEEEED2Ev(%"struct.std::_Optional_payload_base.64"* nonnull align 8 dereferenceable(17) %0) unnamed_addr #5 comdat align 2 {
  %2 = alloca %"struct.std::_Optional_payload_base.64"*, align 8
  store %"struct.std::_Optional_payload_base.64"* %0, %"struct.std::_Optional_payload_base.64"** %2, align 8
  %3 = load %"struct.std::_Optional_payload_base.64"*, %"struct.std::_Optional_payload_base.64"** %2, align 8
  %4 = getelementptr inbounds %"struct.std::_Optional_payload_base.64", %"struct.std::_Optional_payload_base.64"* %3, i32 0, i32 0
  call void @_ZNSt22_Optional_payload_baseIN3c104impl17InlineDeviceGuardINS0_4cuda4impl13CUDAGuardImplEEEE8_StorageIS6_Lb0EED2Ev(%"union.std::_Optional_payload_base<c10::impl::InlineDeviceGuard<c10::cuda::impl::CUDAGuardImpl>>::_Storage"* nonnull align 8 dereferenceable(16) %4) #3
  ret void
}

; Function Attrs: noinline nounwind optnone uwtable
define linkonce_odr dso_local void @_ZNSt22_Optional_payload_baseIN3c104impl17InlineDeviceGuardINS0_4cuda4impl13CUDAGuardImplEEEE8_StorageIS6_Lb0EED2Ev(%"union.std::_Optional_payload_base<c10::impl::InlineDeviceGuard<c10::cuda::impl::CUDAGuardImpl>>::_Storage"* nonnull align 8 dereferenceable(16) %0) unnamed_addr #5 comdat align 2 {
  %2 = alloca %"union.std::_Optional_payload_base<c10::impl::InlineDeviceGuard<c10::cuda::impl::CUDAGuardImpl>>::_Storage"*, align 8
  store %"union.std::_Optional_payload_base<c10::impl::InlineDeviceGuard<c10::cuda::impl::CUDAGuardImpl>>::_Storage"* %0, %"union.std::_Optional_payload_base<c10::impl::InlineDeviceGuard<c10::cuda::impl::CUDAGuardImpl>>::_Storage"** %2, align 8
  %3 = load %"union.std::_Optional_payload_base<c10::impl::InlineDeviceGuard<c10::cuda::impl::CUDAGuardImpl>>::_Storage"*, %"union.std::_Optional_payload_base<c10::impl::InlineDeviceGuard<c10::cuda::impl::CUDAGuardImpl>>::_Storage"** %2, align 8
  ret void
}

; Function Attrs: mustprogress noinline nounwind optnone uwtable
define linkonce_odr dso_local void @_ZNSt22_Optional_payload_baseIN3c104impl17InlineDeviceGuardINS0_4cuda4impl13CUDAGuardImplEEEE10_M_destroyEv(%"struct.std::_Optional_payload_base.64"* nonnull align 8 dereferenceable(17) %0) #8 comdat align 2 {
  %2 = alloca %"struct.std::_Optional_payload_base.64"*, align 8
  store %"struct.std::_Optional_payload_base.64"* %0, %"struct.std::_Optional_payload_base.64"** %2, align 8
  %3 = load %"struct.std::_Optional_payload_base.64"*, %"struct.std::_Optional_payload_base.64"** %2, align 8
  %4 = getelementptr inbounds %"struct.std::_Optional_payload_base.64", %"struct.std::_Optional_payload_base.64"* %3, i32 0, i32 1
  store i8 0, i8* %4, align 8
  %5 = getelementptr inbounds %"struct.std::_Optional_payload_base.64", %"struct.std::_Optional_payload_base.64"* %3, i32 0, i32 0
  %6 = bitcast %"union.std::_Optional_payload_base<c10::impl::InlineDeviceGuard<c10::cuda::impl::CUDAGuardImpl>>::_Storage"* %5 to %"class.c10::impl::InlineDeviceGuard"*
  call void @_ZN3c104impl17InlineDeviceGuardINS_4cuda4impl13CUDAGuardImplEED2Ev(%"class.c10::impl::InlineDeviceGuard"* nonnull align 8 dereferenceable(12) %6) #3
  ret void
}

; Function Attrs: noinline nounwind optnone uwtable
define linkonce_odr dso_local void @_ZN3c104impl17InlineDeviceGuardINS_4cuda4impl13CUDAGuardImplEED2Ev(%"class.c10::impl::InlineDeviceGuard"* nonnull align 8 dereferenceable(12) %0) unnamed_addr #5 comdat align 2 {
  %2 = alloca %"class.c10::impl::InlineDeviceGuard"*, align 8
  %3 = alloca %"struct.c10::Device", align 1
  store %"class.c10::impl::InlineDeviceGuard"* %0, %"class.c10::impl::InlineDeviceGuard"** %2, align 8
  %4 = load %"class.c10::impl::InlineDeviceGuard"*, %"class.c10::impl::InlineDeviceGuard"** %2, align 8
  %5 = getelementptr inbounds %"class.c10::impl::InlineDeviceGuard", %"class.c10::impl::InlineDeviceGuard"* %4, i32 0, i32 0
  %6 = getelementptr inbounds %"class.c10::impl::InlineDeviceGuard", %"class.c10::impl::InlineDeviceGuard"* %4, i32 0, i32 1
  %7 = bitcast %"struct.c10::Device"* %3 to i8*
  %8 = bitcast %"struct.c10::Device"* %6 to i8*
  call void @llvm.memcpy.p0i8.p0i8.i64(i8* align 1 %7, i8* align 8 %8, i64 2, i1 false)
  %9 = bitcast %"struct.c10::Device"* %3 to i16*
  %10 = load i16, i16* %9, align 1
  call void @_ZNK3c104cuda4impl13CUDAGuardImpl18uncheckedSetDeviceENS_6DeviceE(%"struct.c10::cuda::impl::CUDAGuardImpl"* nonnull align 8 dereferenceable(8) %5, i16 %10) #3
  %11 = getelementptr inbounds %"class.c10::impl::InlineDeviceGuard", %"class.c10::impl::InlineDeviceGuard"* %4, i32 0, i32 0
  call void @_ZN3c104cuda4impl13CUDAGuardImplD2Ev(%"struct.c10::cuda::impl::CUDAGuardImpl"* nonnull align 8 dereferenceable(8) %11) #3
  ret void
}

; Function Attrs: mustprogress noinline nounwind optnone uwtable
define linkonce_odr dso_local void @_ZNK3c104cuda4impl13CUDAGuardImpl18uncheckedSetDeviceENS_6DeviceE(%"struct.c10::cuda::impl::CUDAGuardImpl"* nonnull align 8 dereferenceable(8) %0, i16 %1) unnamed_addr #8 comdat align 2 personality i8* bitcast (i32 (...)* @__gxx_personality_v0 to i8*) {
  %3 = alloca %"struct.c10::Device", align 1
  %4 = alloca %"struct.c10::cuda::impl::CUDAGuardImpl"*, align 8
  %5 = alloca i32, align 4
  %6 = alloca i32, align 4
  %7 = alloca %"class.c10::Warning", align 8
  %8 = alloca %"class.std::variant", align 1
  %9 = alloca %"class.std::ios_base::Init", align 1
  %10 = alloca %"struct.c10::SourceLocation", align 8
  %11 = alloca %"class.std::__cxx11::basic_string", align 8
  %12 = alloca i8*, align 8
  %13 = alloca i8*, align 8
  %14 = alloca i32, align 4
  %15 = bitcast %"struct.c10::Device"* %3 to i16*
  store i16 %1, i16* %15, align 1
  store %"struct.c10::cuda::impl::CUDAGuardImpl"* %0, %"struct.c10::cuda::impl::CUDAGuardImpl"** %4, align 8
  %16 = load %"struct.c10::cuda::impl::CUDAGuardImpl"*, %"struct.c10::cuda::impl::CUDAGuardImpl"** %4, align 8
  br label %17

17:                                               ; preds = %2
  %18 = call signext i8 @_ZNK3c106Device5indexEv(%"struct.c10::Device"* nonnull align 1 dereferenceable(2) %3) #3
  %19 = invoke i32 @_ZN3c104cuda14MaybeSetDeviceEa(i8 signext %18)
          to label %20 unwind label %55

20:                                               ; preds = %17
  store i32 %19, i32* %5, align 4
  %21 = load i32, i32* %5, align 4
  %22 = icmp ne i32 %21, 0
  br i1 %22, label %23, label %52

23:                                               ; preds = %20
  %24 = invoke i32 @cudaGetLastError()
          to label %25 unwind label %55

25:                                               ; preds = %23
  store i32 %24, i32* %6, align 4
  call void @_ZNSt7variantIJN3c107Warning11UserWarningENS1_18DeprecationWarningEEEC2IS2_vvS2_vEEOT_(%"class.std::variant"* nonnull align 1 dereferenceable(2) %8, %"class.std::ios_base::Init"* nonnull align 1 dereferenceable(1) %9) #3
  %26 = getelementptr inbounds %"struct.c10::SourceLocation", %"struct.c10::SourceLocation"* %10, i32 0, i32 0
  store i8* getelementptr inbounds ([19 x i8], [19 x i8]* @__func__._ZNK3c104cuda4impl13CUDAGuardImpl18uncheckedSetDeviceENS_6DeviceE, i64 0, i64 0), i8** %26, align 8
  %27 = getelementptr inbounds %"struct.c10::SourceLocation", %"struct.c10::SourceLocation"* %10, i32 0, i32 1
  store i8* getelementptr inbounds ([112 x i8], [112 x i8]* @.str.6, i64 0, i64 0), i8** %27, align 8
  %28 = getelementptr inbounds %"struct.c10::SourceLocation", %"struct.c10::SourceLocation"* %10, i32 0, i32 2
  store i32 57, i32* %28, align 8
  %29 = load i32, i32* %5, align 4
  %30 = invoke i8* @cudaGetErrorString(i32 %29)
          to label %31 unwind label %55

31:                                               ; preds = %25
  store i8* %30, i8** %12, align 8
  invoke void @_ZN3c103strIJA15_cPKcEEEDcDpRKT_(%"class.std::__cxx11::basic_string"* sret(%"class.std::__cxx11::basic_string") align 8 %11, [15 x i8]* nonnull align 1 dereferenceable(15) @.str.7, i8** nonnull align 8 dereferenceable(8) %12)
          to label %32 unwind label %55

32:                                               ; preds = %31
  %33 = getelementptr inbounds %"class.std::variant", %"class.std::variant"* %8, i32 0, i32 0
  %34 = getelementptr inbounds %"struct.std::__detail::__variant::_Variant_base", %"struct.std::__detail::__variant::_Variant_base"* %33, i32 0, i32 0
  %35 = getelementptr inbounds %"struct.std::__detail::__variant::_Move_assign_base", %"struct.std::__detail::__variant::_Move_assign_base"* %34, i32 0, i32 0
  %36 = getelementptr inbounds %"struct.std::__detail::__variant::_Copy_assign_base", %"struct.std::__detail::__variant::_Copy_assign_base"* %35, i32 0, i32 0
  %37 = getelementptr inbounds %"struct.std::__detail::__variant::_Move_ctor_base", %"struct.std::__detail::__variant::_Move_ctor_base"* %36, i32 0, i32 0
  %38 = getelementptr inbounds %"struct.std::__detail::__variant::_Copy_ctor_base", %"struct.std::__detail::__variant::_Copy_ctor_base"* %37, i32 0, i32 0
  %39 = bitcast %"struct.std::__detail::__variant::_Variant_storage"* %38 to i16*
  %40 = load i16, i16* %39, align 1
  invoke void @_ZN3c107WarningC1ESt7variantIJNS0_11UserWarningENS0_18DeprecationWarningEEERKNS_14SourceLocationENSt7__cxx1112basic_stringIcSt11char_traitsIcESaIcEEEb(%"class.c10::Warning"* nonnull align 8 dereferenceable(65) %7, i16 %40, %"struct.c10::SourceLocation"* nonnull align 8 dereferenceable(24) %10, %"class.std::__cxx11::basic_string"* %11, i1 zeroext false)
          to label %41 unwind label %43

41:                                               ; preds = %32
  invoke void @_ZN3c104warnERKNS_7WarningE(%"class.c10::Warning"* nonnull align 8 dereferenceable(65) %7)
          to label %42 unwind label %47

42:                                               ; preds = %41
  call void @_ZN3c107WarningD2Ev(%"class.c10::Warning"* nonnull align 8 dereferenceable(65) %7) #3
  call void @_ZNSt7__cxx1112basic_stringIcSt11char_traitsIcESaIcEED1Ev(%"class.std::__cxx11::basic_string"* nonnull align 8 dereferenceable(32) %11) #3
  br label %52

43:                                               ; preds = %32
  %44 = landingpad { i8*, i32 }
          catch i8* null
  %45 = extractvalue { i8*, i32 } %44, 0
  store i8* %45, i8** %13, align 8
  %46 = extractvalue { i8*, i32 } %44, 1
  store i32 %46, i32* %14, align 4
  br label %51

47:                                               ; preds = %41
  %48 = landingpad { i8*, i32 }
          catch i8* null
  %49 = extractvalue { i8*, i32 } %48, 0
  store i8* %49, i8** %13, align 8
  %50 = extractvalue { i8*, i32 } %48, 1
  store i32 %50, i32* %14, align 4
  call void @_ZN3c107WarningD2Ev(%"class.c10::Warning"* nonnull align 8 dereferenceable(65) %7) #3
  br label %51

51:                                               ; preds = %47, %43
  call void @_ZNSt7__cxx1112basic_stringIcSt11char_traitsIcESaIcEED1Ev(%"class.std::__cxx11::basic_string"* nonnull align 8 dereferenceable(32) %11) #3
  br label %58

52:                                               ; preds = %42, %20
  br label %53

53:                                               ; preds = %52
  br label %54

54:                                               ; preds = %53
  ret void

55:                                               ; preds = %31, %25, %23, %17
  %56 = landingpad { i8*, i32 }
          catch i8* null
  %57 = extractvalue { i8*, i32 } %56, 0
  call void @__clang_call_terminate(i8* %57) #26
  unreachable

58:                                               ; preds = %51
  %59 = load i8*, i8** %13, align 8
  call void @__clang_call_terminate(i8* %59) #26
  unreachable
}

; Function Attrs: noinline nounwind optnone uwtable
define linkonce_odr dso_local void @_ZN3c104cuda4impl13CUDAGuardImplD2Ev(%"struct.c10::cuda::impl::CUDAGuardImpl"* nonnull align 8 dereferenceable(8) %0) unnamed_addr #5 comdat align 2 {
  %2 = alloca %"struct.c10::cuda::impl::CUDAGuardImpl"*, align 8
  store %"struct.c10::cuda::impl::CUDAGuardImpl"* %0, %"struct.c10::cuda::impl::CUDAGuardImpl"** %2, align 8
  %3 = load %"struct.c10::cuda::impl::CUDAGuardImpl"*, %"struct.c10::cuda::impl::CUDAGuardImpl"** %2, align 8
  %4 = bitcast %"struct.c10::cuda::impl::CUDAGuardImpl"* %3 to %"struct.c10::Allocator"*
  call void @_ZN3c104impl24DeviceGuardImplInterfaceD2Ev(%"struct.c10::Allocator"* nonnull align 8 dereferenceable(8) %4) #3
  ret void
}

; Function Attrs: noinline nounwind optnone uwtable
define linkonce_odr dso_local void @_ZN3c104impl24DeviceGuardImplInterfaceD2Ev(%"struct.c10::Allocator"* nonnull align 8 dereferenceable(8) %0) unnamed_addr #5 comdat align 2 {
  %2 = alloca %"struct.c10::Allocator"*, align 8
  store %"struct.c10::Allocator"* %0, %"struct.c10::Allocator"** %2, align 8
  %3 = load %"struct.c10::Allocator"*, %"struct.c10::Allocator"** %2, align 8
  ret void
}

; Function Attrs: mustprogress noinline nounwind optnone uwtable
define linkonce_odr dso_local signext i8 @_ZNK3c106Device5indexEv(%"struct.c10::Device"* nonnull align 1 dereferenceable(2) %0) #8 comdat align 2 {
  %2 = alloca %"struct.c10::Device"*, align 8
  store %"struct.c10::Device"* %0, %"struct.c10::Device"** %2, align 8
  %3 = load %"struct.c10::Device"*, %"struct.c10::Device"** %2, align 8
  %4 = getelementptr inbounds %"struct.c10::Device", %"struct.c10::Device"* %3, i32 0, i32 1
  %5 = load i8, i8* %4, align 1
  ret i8 %5
}

declare dso_local i32 @_ZN3c104cuda14MaybeSetDeviceEa(i8 signext) #1

declare dso_local i32 @cudaGetLastError() #1

; Function Attrs: noinline nounwind optnone uwtable
define linkonce_odr dso_local void @_ZNSt7variantIJN3c107Warning11UserWarningENS1_18DeprecationWarningEEEC2IS2_vvS2_vEEOT_(%"class.std::variant"* nonnull align 1 dereferenceable(2) %0, %"class.std::ios_base::Init"* nonnull align 1 dereferenceable(1) %1) unnamed_addr #5 comdat align 2 personality i8* bitcast (i32 (...)* @__gxx_personality_v0 to i8*) {
  %3 = alloca %"class.std::variant"*, align 8
  %4 = alloca %"class.std::ios_base::Init"*, align 8
  %5 = alloca %"class.std::ios_base::Init", align 1
  store %"class.std::variant"* %0, %"class.std::variant"** %3, align 8
  store %"class.std::ios_base::Init"* %1, %"class.std::ios_base::Init"** %4, align 8
  %6 = load %"class.std::variant"*, %"class.std::variant"** %3, align 8
  %7 = load %"class.std::ios_base::Init"*, %"class.std::ios_base::Init"** %4, align 8
  %8 = call nonnull align 1 dereferenceable(1) %"class.std::ios_base::Init"* @_ZSt7forwardIN3c107Warning11UserWarningEEOT_RNSt16remove_referenceIS3_E4typeE(%"class.std::ios_base::Init"* nonnull align 1 dereferenceable(1) %7) #3
  invoke void @_ZNSt7variantIJN3c107Warning11UserWarningENS1_18DeprecationWarningEEEC2ILm0EJS2_ES2_vEESt16in_place_index_tIXT_EEDpOT0_(%"class.std::variant"* nonnull align 1 dereferenceable(2) %6, %"class.std::ios_base::Init"* nonnull align 1 dereferenceable(1) %8)
          to label %9 unwind label %10

9:                                                ; preds = %2
  ret void

10:                                               ; preds = %2
  %11 = landingpad { i8*, i32 }
          catch i8* null
  %12 = extractvalue { i8*, i32 } %11, 0
  call void @__clang_call_terminate(i8* %12) #26
  unreachable
}

declare dso_local i8* @cudaGetErrorString(i32) #1

; Function Attrs: mustprogress noinline optnone uwtable
define linkonce_odr dso_local void @_ZN3c103strIJA15_cPKcEEEDcDpRKT_(%"class.std::__cxx11::basic_string"* noalias sret(%"class.std::__cxx11::basic_string") align 8 %0, [15 x i8]* nonnull align 1 dereferenceable(15) %1, i8** nonnull align 8 dereferenceable(8) %2) #4 comdat {
  %4 = alloca i8*, align 8
  %5 = alloca [15 x i8]*, align 8
  %6 = alloca i8**, align 8
  %7 = alloca i8*, align 8
  %8 = bitcast %"class.std::__cxx11::basic_string"* %0 to i8*
  store i8* %8, i8** %4, align 8
  store [15 x i8]* %1, [15 x i8]** %5, align 8
  store i8** %2, i8*** %6, align 8
  %9 = load [15 x i8]*, [15 x i8]** %5, align 8
  %10 = getelementptr inbounds [15 x i8], [15 x i8]* %9, i64 0, i64 0
  store i8* %10, i8** %7, align 8
  %11 = load i8**, i8*** %6, align 8
  call void @_ZN3c106detail12_str_wrapperIJPKcRKS3_EE4callB5cxx11ES5_S5_(%"class.std::__cxx11::basic_string"* sret(%"class.std::__cxx11::basic_string") align 8 %0, i8** nonnull align 8 dereferenceable(8) %7, i8** nonnull align 8 dereferenceable(8) %11)
  ret void
}

declare dso_local void @_ZN3c107WarningC1ESt7variantIJNS0_11UserWarningENS0_18DeprecationWarningEEERKNS_14SourceLocationENSt7__cxx1112basic_stringIcSt11char_traitsIcESaIcEEEb(%"class.c10::Warning"* nonnull align 8 dereferenceable(65), i16, %"struct.c10::SourceLocation"* nonnull align 8 dereferenceable(24), %"class.std::__cxx11::basic_string"*, i1 zeroext) unnamed_addr #1

declare dso_local void @_ZN3c104warnERKNS_7WarningE(%"class.c10::Warning"* nonnull align 8 dereferenceable(65)) #1

; Function Attrs: noinline nounwind optnone uwtable
define linkonce_odr dso_local void @_ZN3c107WarningD2Ev(%"class.c10::Warning"* nonnull align 8 dereferenceable(65) %0) unnamed_addr #5 comdat align 2 {
  %2 = alloca %"class.c10::Warning"*, align 8
  store %"class.c10::Warning"* %0, %"class.c10::Warning"** %2, align 8
  %3 = load %"class.c10::Warning"*, %"class.c10::Warning"** %2, align 8
  %4 = getelementptr inbounds %"class.c10::Warning", %"class.c10::Warning"* %3, i32 0, i32 3
  call void @_ZNSt7__cxx1112basic_stringIcSt11char_traitsIcESaIcEED1Ev(%"class.std::__cxx11::basic_string"* nonnull align 8 dereferenceable(32) %4) #3
  ret void
}

; Function Attrs: nounwind
declare dso_local void @_ZNSt7__cxx1112basic_stringIcSt11char_traitsIcESaIcEED1Ev(%"class.std::__cxx11::basic_string"* nonnull align 8 dereferenceable(32)) unnamed_addr #2

; Function Attrs: noinline noreturn nounwind
define linkonce_odr hidden void @__clang_call_terminate(i8* %0) #9 comdat {
  %2 = call i8* @__cxa_begin_catch(i8* %0) #3
  call void @_ZSt9terminatev() #26
  unreachable
}

declare dso_local i8* @__cxa_begin_catch(i8*)

declare dso_local void @_ZSt9terminatev()

; Function Attrs: mustprogress noinline optnone uwtable
define linkonce_odr dso_local void @_ZN3c106detail12_str_wrapperIJPKcRKS3_EE4callB5cxx11ES5_S5_(%"class.std::__cxx11::basic_string"* noalias sret(%"class.std::__cxx11::basic_string") align 8 %0, i8** nonnull align 8 dereferenceable(8) %1, i8** nonnull align 8 dereferenceable(8) %2) #4 comdat align 2 personality i8* bitcast (i32 (...)* @__gxx_personality_v0 to i8*) {
  %4 = alloca i8*, align 8
  %5 = alloca i8**, align 8
  %6 = alloca i8**, align 8
  %7 = alloca %"class.std::__cxx11::basic_ostringstream", align 8
  %8 = alloca i8*, align 8
  %9 = alloca i32, align 4
  %10 = bitcast %"class.std::__cxx11::basic_string"* %0 to i8*
  store i8* %10, i8** %4, align 8
  store i8** %1, i8*** %5, align 8
  store i8** %2, i8*** %6, align 8
  call void @_ZNSt7__cxx1119basic_ostringstreamIcSt11char_traitsIcESaIcEEC1Ev(%"class.std::__cxx11::basic_ostringstream"* nonnull align 8 dereferenceable(112) %7)
  %11 = bitcast %"class.std::__cxx11::basic_ostringstream"* %7 to %"class.std::basic_ostream"*
  %12 = load i8**, i8*** %5, align 8
  %13 = load i8**, i8*** %6, align 8
  %14 = invoke nonnull align 8 dereferenceable(8) %"class.std::basic_ostream"* @_ZN3c106detail4_strIPKcJS3_EEERSoS4_RKT_DpRKT0_(%"class.std::basic_ostream"* nonnull align 8 dereferenceable(8) %11, i8** nonnull align 8 dereferenceable(8) %12, i8** nonnull align 8 dereferenceable(8) %13)
          to label %15 unwind label %17

15:                                               ; preds = %3
  invoke void @_ZNKSt7__cxx1119basic_ostringstreamIcSt11char_traitsIcESaIcEE3strEv(%"class.std::__cxx11::basic_string"* sret(%"class.std::__cxx11::basic_string") align 8 %0, %"class.std::__cxx11::basic_ostringstream"* nonnull align 8 dereferenceable(112) %7)
          to label %16 unwind label %17

16:                                               ; preds = %15
  call void @_ZNSt7__cxx1119basic_ostringstreamIcSt11char_traitsIcESaIcEED1Ev(%"class.std::__cxx11::basic_ostringstream"* nonnull align 8 dereferenceable(112) %7) #3
  ret void

17:                                               ; preds = %15, %3
  %18 = landingpad { i8*, i32 }
          cleanup
  %19 = extractvalue { i8*, i32 } %18, 0
  store i8* %19, i8** %8, align 8
  %20 = extractvalue { i8*, i32 } %18, 1
  store i32 %20, i32* %9, align 4
  call void @_ZNSt7__cxx1119basic_ostringstreamIcSt11char_traitsIcESaIcEED1Ev(%"class.std::__cxx11::basic_ostringstream"* nonnull align 8 dereferenceable(112) %7) #3
  br label %21

21:                                               ; preds = %17
  %22 = load i8*, i8** %8, align 8
  %23 = load i32, i32* %9, align 4
  %24 = insertvalue { i8*, i32 } undef, i8* %22, 0
  %25 = insertvalue { i8*, i32 } %24, i32 %23, 1
  resume { i8*, i32 } %25
}

declare dso_local void @_ZNSt7__cxx1119basic_ostringstreamIcSt11char_traitsIcESaIcEEC1Ev(%"class.std::__cxx11::basic_ostringstream"* nonnull align 8 dereferenceable(112)) unnamed_addr #1

; Function Attrs: mustprogress noinline optnone uwtable
define linkonce_odr dso_local nonnull align 8 dereferenceable(8) %"class.std::basic_ostream"* @_ZN3c106detail4_strIPKcJS3_EEERSoS4_RKT_DpRKT0_(%"class.std::basic_ostream"* nonnull align 8 dereferenceable(8) %0, i8** nonnull align 8 dereferenceable(8) %1, i8** nonnull align 8 dereferenceable(8) %2) #4 comdat {
  %4 = alloca %"class.std::basic_ostream"*, align 8
  %5 = alloca i8**, align 8
  %6 = alloca i8**, align 8
  store %"class.std::basic_ostream"* %0, %"class.std::basic_ostream"** %4, align 8
  store i8** %1, i8*** %5, align 8
  store i8** %2, i8*** %6, align 8
  %7 = load %"class.std::basic_ostream"*, %"class.std::basic_ostream"** %4, align 8
  %8 = load i8**, i8*** %5, align 8
  %9 = call nonnull align 8 dereferenceable(8) %"class.std::basic_ostream"* @_ZN3c106detail4_strIPKcEERSoS4_RKT_(%"class.std::basic_ostream"* nonnull align 8 dereferenceable(8) %7, i8** nonnull align 8 dereferenceable(8) %8)
  %10 = load i8**, i8*** %6, align 8
  %11 = call nonnull align 8 dereferenceable(8) %"class.std::basic_ostream"* @_ZN3c106detail4_strIPKcEERSoS4_RKT_(%"class.std::basic_ostream"* nonnull align 8 dereferenceable(8) %9, i8** nonnull align 8 dereferenceable(8) %10)
  ret %"class.std::basic_ostream"* %11
}

declare dso_local void @_ZNKSt7__cxx1119basic_ostringstreamIcSt11char_traitsIcESaIcEE3strEv(%"class.std::__cxx11::basic_string"* sret(%"class.std::__cxx11::basic_string") align 8, %"class.std::__cxx11::basic_ostringstream"* nonnull align 8 dereferenceable(112)) #1

; Function Attrs: nounwind
declare dso_local void @_ZNSt7__cxx1119basic_ostringstreamIcSt11char_traitsIcESaIcEED1Ev(%"class.std::__cxx11::basic_ostringstream"* nonnull align 8 dereferenceable(112)) unnamed_addr #2

; Function Attrs: mustprogress noinline optnone uwtable
define linkonce_odr dso_local nonnull align 8 dereferenceable(8) %"class.std::basic_ostream"* @_ZN3c106detail4_strIPKcEERSoS4_RKT_(%"class.std::basic_ostream"* nonnull align 8 dereferenceable(8) %0, i8** nonnull align 8 dereferenceable(8) %1) #4 comdat {
  %3 = alloca %"class.std::basic_ostream"*, align 8
  %4 = alloca i8**, align 8
  store %"class.std::basic_ostream"* %0, %"class.std::basic_ostream"** %3, align 8
  store i8** %1, i8*** %4, align 8
  %5 = load %"class.std::basic_ostream"*, %"class.std::basic_ostream"** %3, align 8
  %6 = load i8**, i8*** %4, align 8
  %7 = load i8*, i8** %6, align 8
  %8 = call nonnull align 8 dereferenceable(8) %"class.std::basic_ostream"* @_ZStlsISt11char_traitsIcEERSt13basic_ostreamIcT_ES5_PKc(%"class.std::basic_ostream"* nonnull align 8 dereferenceable(8) %5, i8* %7)
  %9 = load %"class.std::basic_ostream"*, %"class.std::basic_ostream"** %3, align 8
  ret %"class.std::basic_ostream"* %9
}

declare dso_local nonnull align 8 dereferenceable(8) %"class.std::basic_ostream"* @_ZStlsISt11char_traitsIcEERSt13basic_ostreamIcT_ES5_PKc(%"class.std::basic_ostream"* nonnull align 8 dereferenceable(8), i8*) #1

; Function Attrs: mustprogress noinline nounwind optnone uwtable
define linkonce_odr dso_local nonnull align 1 dereferenceable(1) %"class.std::ios_base::Init"* @_ZSt7forwardIN3c107Warning11UserWarningEEOT_RNSt16remove_referenceIS3_E4typeE(%"class.std::ios_base::Init"* nonnull align 1 dereferenceable(1) %0) #8 comdat {
  %2 = alloca %"class.std::ios_base::Init"*, align 8
  store %"class.std::ios_base::Init"* %0, %"class.std::ios_base::Init"** %2, align 8
  %3 = load %"class.std::ios_base::Init"*, %"class.std::ios_base::Init"** %2, align 8
  ret %"class.std::ios_base::Init"* %3
}

; Function Attrs: noinline optnone uwtable
define linkonce_odr dso_local void @_ZNSt7variantIJN3c107Warning11UserWarningENS1_18DeprecationWarningEEEC2ILm0EJS2_ES2_vEESt16in_place_index_tIXT_EEDpOT0_(%"class.std::variant"* nonnull align 1 dereferenceable(2) %0, %"class.std::ios_base::Init"* nonnull align 1 dereferenceable(1) %1) unnamed_addr #7 comdat align 2 {
  %3 = alloca %"class.std::ios_base::Init", align 1
  %4 = alloca %"class.std::variant"*, align 8
  %5 = alloca %"class.std::ios_base::Init"*, align 8
  %6 = alloca %"class.std::ios_base::Init", align 1
  %7 = alloca %"class.std::ios_base::Init", align 1
  store %"class.std::variant"* %0, %"class.std::variant"** %4, align 8
  store %"class.std::ios_base::Init"* %1, %"class.std::ios_base::Init"** %5, align 8
  %8 = load %"class.std::variant"*, %"class.std::variant"** %4, align 8
  %9 = bitcast %"class.std::variant"* %8 to %"struct.std::__detail::__variant::_Variant_base"*
  %10 = load %"class.std::ios_base::Init"*, %"class.std::ios_base::Init"** %5, align 8
  %11 = call nonnull align 1 dereferenceable(1) %"class.std::ios_base::Init"* @_ZSt7forwardIN3c107Warning11UserWarningEEOT_RNSt16remove_referenceIS3_E4typeE(%"class.std::ios_base::Init"* nonnull align 1 dereferenceable(1) %10) #3
  call void @_ZNSt8__detail9__variant13_Variant_baseIJN3c107Warning11UserWarningENS3_18DeprecationWarningEEEC2ILm0EJS4_EEESt16in_place_index_tIXT_EEDpOT0_(%"struct.std::__detail::__variant::_Variant_base"* nonnull align 1 dereferenceable(2) %9, %"class.std::ios_base::Init"* nonnull align 1 dereferenceable(1) %11)
  %12 = bitcast %"class.std::variant"* %8 to %"class.std::ios_base::Init"*
  call void @_ZNSt27_Enable_default_constructorILb1ESt7variantIJN3c107Warning11UserWarningENS2_18DeprecationWarningEEEEC2ESt31_Enable_default_constructor_tag(%"class.std::ios_base::Init"* nonnull align 1 dereferenceable(1) %12)
  %13 = bitcast %"class.std::variant"* %8 to %"class.std::ios_base::Init"*
  ret void
}

; Function Attrs: noinline optnone uwtable
define linkonce_odr dso_local void @_ZNSt8__detail9__variant13_Variant_baseIJN3c107Warning11UserWarningENS3_18DeprecationWarningEEEC2ILm0EJS4_EEESt16in_place_index_tIXT_EEDpOT0_(%"struct.std::__detail::__variant::_Variant_base"* nonnull align 1 dereferenceable(2) %0, %"class.std::ios_base::Init"* nonnull align 1 dereferenceable(1) %1) unnamed_addr #7 comdat align 2 {
  %3 = alloca %"class.std::ios_base::Init", align 1
  %4 = alloca %"struct.std::__detail::__variant::_Variant_base"*, align 8
  %5 = alloca %"class.std::ios_base::Init"*, align 8
  %6 = alloca %"class.std::ios_base::Init", align 1
  store %"struct.std::__detail::__variant::_Variant_base"* %0, %"struct.std::__detail::__variant::_Variant_base"** %4, align 8
  store %"class.std::ios_base::Init"* %1, %"class.std::ios_base::Init"** %5, align 8
  %7 = load %"struct.std::__detail::__variant::_Variant_base"*, %"struct.std::__detail::__variant::_Variant_base"** %4, align 8
  %8 = bitcast %"struct.std::__detail::__variant::_Variant_base"* %7 to %"struct.std::__detail::__variant::_Move_assign_base"*
  %9 = load %"class.std::ios_base::Init"*, %"class.std::ios_base::Init"** %5, align 8
  %10 = call nonnull align 1 dereferenceable(1) %"class.std::ios_base::Init"* @_ZSt7forwardIN3c107Warning11UserWarningEEOT_RNSt16remove_referenceIS3_E4typeE(%"class.std::ios_base::Init"* nonnull align 1 dereferenceable(1) %9) #3
  call void @_ZNSt8__detail9__variant17_Move_assign_baseILb1EJN3c107Warning11UserWarningENS3_18DeprecationWarningEEECI2NS0_16_Variant_storageILb1EJS4_S5_EEEILm0EJS4_EEESt16in_place_index_tIXT_EEDpOT0_(%"struct.std::__detail::__variant::_Move_assign_base"* nonnull align 1 dereferenceable(2) %8, %"class.std::ios_base::Init"* nonnull align 1 dereferenceable(1) %10)
  ret void
}

; Function Attrs: noinline nounwind optnone uwtable
define linkonce_odr dso_local void @_ZNSt27_Enable_default_constructorILb1ESt7variantIJN3c107Warning11UserWarningENS2_18DeprecationWarningEEEEC2ESt31_Enable_default_constructor_tag(%"class.std::ios_base::Init"* nonnull align 1 dereferenceable(1) %0) unnamed_addr #5 comdat align 2 {
  %2 = alloca %"class.std::ios_base::Init", align 1
  %3 = alloca %"class.std::ios_base::Init"*, align 8
  store %"class.std::ios_base::Init"* %0, %"class.std::ios_base::Init"** %3, align 8
  %4 = load %"class.std::ios_base::Init"*, %"class.std::ios_base::Init"** %3, align 8
  ret void
}

; Function Attrs: noinline optnone uwtable
define linkonce_odr dso_local void @_ZNSt8__detail9__variant17_Move_assign_baseILb1EJN3c107Warning11UserWarningENS3_18DeprecationWarningEEECI2NS0_16_Variant_storageILb1EJS4_S5_EEEILm0EJS4_EEESt16in_place_index_tIXT_EEDpOT0_(%"struct.std::__detail::__variant::_Move_assign_base"* nonnull align 1 dereferenceable(2) %0, %"class.std::ios_base::Init"* nonnull align 1 dereferenceable(1) %1) unnamed_addr #7 comdat align 2 {
  %3 = alloca %"class.std::ios_base::Init", align 1
  %4 = alloca %"struct.std::__detail::__variant::_Move_assign_base"*, align 8
  %5 = alloca %"class.std::ios_base::Init"*, align 8
  store %"struct.std::__detail::__variant::_Move_assign_base"* %0, %"struct.std::__detail::__variant::_Move_assign_base"** %4, align 8
  store %"class.std::ios_base::Init"* %1, %"class.std::ios_base::Init"** %5, align 8
  %6 = load %"struct.std::__detail::__variant::_Move_assign_base"*, %"struct.std::__detail::__variant::_Move_assign_base"** %4, align 8
  %7 = bitcast %"struct.std::__detail::__variant::_Move_assign_base"* %6 to %"struct.std::__detail::__variant::_Copy_assign_base"*
  %8 = load %"class.std::ios_base::Init"*, %"class.std::ios_base::Init"** %5, align 8
  call void @_ZNSt8__detail9__variant17_Copy_assign_baseILb1EJN3c107Warning11UserWarningENS3_18DeprecationWarningEEECI2NS0_16_Variant_storageILb1EJS4_S5_EEEILm0EJS4_EEESt16in_place_index_tIXT_EEDpOT0_(%"struct.std::__detail::__variant::_Copy_assign_base"* nonnull align 1 dereferenceable(2) %7, %"class.std::ios_base::Init"* nonnull align 1 dereferenceable(1) %8)
  ret void
}

; Function Attrs: noinline optnone uwtable
define linkonce_odr dso_local void @_ZNSt8__detail9__variant17_Copy_assign_baseILb1EJN3c107Warning11UserWarningENS3_18DeprecationWarningEEECI2NS0_16_Variant_storageILb1EJS4_S5_EEEILm0EJS4_EEESt16in_place_index_tIXT_EEDpOT0_(%"struct.std::__detail::__variant::_Copy_assign_base"* nonnull align 1 dereferenceable(2) %0, %"class.std::ios_base::Init"* nonnull align 1 dereferenceable(1) %1) unnamed_addr #7 comdat align 2 {
  %3 = alloca %"class.std::ios_base::Init", align 1
  %4 = alloca %"struct.std::__detail::__variant::_Copy_assign_base"*, align 8
  %5 = alloca %"class.std::ios_base::Init"*, align 8
  store %"struct.std::__detail::__variant::_Copy_assign_base"* %0, %"struct.std::__detail::__variant::_Copy_assign_base"** %4, align 8
  store %"class.std::ios_base::Init"* %1, %"class.std::ios_base::Init"** %5, align 8
  %6 = load %"struct.std::__detail::__variant::_Copy_assign_base"*, %"struct.std::__detail::__variant::_Copy_assign_base"** %4, align 8
  %7 = bitcast %"struct.std::__detail::__variant::_Copy_assign_base"* %6 to %"struct.std::__detail::__variant::_Move_ctor_base"*
  %8 = load %"class.std::ios_base::Init"*, %"class.std::ios_base::Init"** %5, align 8
  call void @_ZNSt8__detail9__variant15_Move_ctor_baseILb1EJN3c107Warning11UserWarningENS3_18DeprecationWarningEEECI2NS0_16_Variant_storageILb1EJS4_S5_EEEILm0EJS4_EEESt16in_place_index_tIXT_EEDpOT0_(%"struct.std::__detail::__variant::_Move_ctor_base"* nonnull align 1 dereferenceable(2) %7, %"class.std::ios_base::Init"* nonnull align 1 dereferenceable(1) %8)
  ret void
}

; Function Attrs: noinline optnone uwtable
define linkonce_odr dso_local void @_ZNSt8__detail9__variant15_Move_ctor_baseILb1EJN3c107Warning11UserWarningENS3_18DeprecationWarningEEECI2NS0_16_Variant_storageILb1EJS4_S5_EEEILm0EJS4_EEESt16in_place_index_tIXT_EEDpOT0_(%"struct.std::__detail::__variant::_Move_ctor_base"* nonnull align 1 dereferenceable(2) %0, %"class.std::ios_base::Init"* nonnull align 1 dereferenceable(1) %1) unnamed_addr #7 comdat align 2 {
  %3 = alloca %"class.std::ios_base::Init", align 1
  %4 = alloca %"struct.std::__detail::__variant::_Move_ctor_base"*, align 8
  %5 = alloca %"class.std::ios_base::Init"*, align 8
  store %"struct.std::__detail::__variant::_Move_ctor_base"* %0, %"struct.std::__detail::__variant::_Move_ctor_base"** %4, align 8
  store %"class.std::ios_base::Init"* %1, %"class.std::ios_base::Init"** %5, align 8
  %6 = load %"struct.std::__detail::__variant::_Move_ctor_base"*, %"struct.std::__detail::__variant::_Move_ctor_base"** %4, align 8
  %7 = bitcast %"struct.std::__detail::__variant::_Move_ctor_base"* %6 to %"struct.std::__detail::__variant::_Copy_ctor_base"*
  %8 = load %"class.std::ios_base::Init"*, %"class.std::ios_base::Init"** %5, align 8
  call void @_ZNSt8__detail9__variant15_Copy_ctor_baseILb1EJN3c107Warning11UserWarningENS3_18DeprecationWarningEEECI2NS0_16_Variant_storageILb1EJS4_S5_EEEILm0EJS4_EEESt16in_place_index_tIXT_EEDpOT0_(%"struct.std::__detail::__variant::_Copy_ctor_base"* nonnull align 1 dereferenceable(2) %7, %"class.std::ios_base::Init"* nonnull align 1 dereferenceable(1) %8)
  ret void
}

; Function Attrs: noinline optnone uwtable
define linkonce_odr dso_local void @_ZNSt8__detail9__variant15_Copy_ctor_baseILb1EJN3c107Warning11UserWarningENS3_18DeprecationWarningEEECI2NS0_16_Variant_storageILb1EJS4_S5_EEEILm0EJS4_EEESt16in_place_index_tIXT_EEDpOT0_(%"struct.std::__detail::__variant::_Copy_ctor_base"* nonnull align 1 dereferenceable(2) %0, %"class.std::ios_base::Init"* nonnull align 1 dereferenceable(1) %1) unnamed_addr #7 comdat align 2 {
  %3 = alloca %"class.std::ios_base::Init", align 1
  %4 = alloca %"struct.std::__detail::__variant::_Copy_ctor_base"*, align 8
  %5 = alloca %"class.std::ios_base::Init"*, align 8
  store %"struct.std::__detail::__variant::_Copy_ctor_base"* %0, %"struct.std::__detail::__variant::_Copy_ctor_base"** %4, align 8
  store %"class.std::ios_base::Init"* %1, %"class.std::ios_base::Init"** %5, align 8
  %6 = load %"struct.std::__detail::__variant::_Copy_ctor_base"*, %"struct.std::__detail::__variant::_Copy_ctor_base"** %4, align 8
  %7 = bitcast %"struct.std::__detail::__variant::_Copy_ctor_base"* %6 to %"struct.std::__detail::__variant::_Variant_storage"*
  %8 = load %"class.std::ios_base::Init"*, %"class.std::ios_base::Init"** %5, align 8
  call void @_ZNSt8__detail9__variant16_Variant_storageILb1EJN3c107Warning11UserWarningENS3_18DeprecationWarningEEEC2ILm0EJS4_EEESt16in_place_index_tIXT_EEDpOT0_(%"struct.std::__detail::__variant::_Variant_storage"* nonnull align 1 dereferenceable(2) %7, %"class.std::ios_base::Init"* nonnull align 1 dereferenceable(1) %8)
  ret void
}

; Function Attrs: noinline optnone uwtable
define linkonce_odr dso_local void @_ZNSt8__detail9__variant16_Variant_storageILb1EJN3c107Warning11UserWarningENS3_18DeprecationWarningEEEC2ILm0EJS4_EEESt16in_place_index_tIXT_EEDpOT0_(%"struct.std::__detail::__variant::_Variant_storage"* nonnull align 1 dereferenceable(2) %0, %"class.std::ios_base::Init"* nonnull align 1 dereferenceable(1) %1) unnamed_addr #7 comdat align 2 {
  %3 = alloca %"class.std::ios_base::Init", align 1
  %4 = alloca %"struct.std::__detail::__variant::_Variant_storage"*, align 8
  %5 = alloca %"class.std::ios_base::Init"*, align 8
  %6 = alloca %"class.std::ios_base::Init", align 1
  store %"struct.std::__detail::__variant::_Variant_storage"* %0, %"struct.std::__detail::__variant::_Variant_storage"** %4, align 8
  store %"class.std::ios_base::Init"* %1, %"class.std::ios_base::Init"** %5, align 8
  %7 = load %"struct.std::__detail::__variant::_Variant_storage"*, %"struct.std::__detail::__variant::_Variant_storage"** %4, align 8
  %8 = getelementptr inbounds %"struct.std::__detail::__variant::_Variant_storage", %"struct.std::__detail::__variant::_Variant_storage"* %7, i32 0, i32 0
  %9 = load %"class.std::ios_base::Init"*, %"class.std::ios_base::Init"** %5, align 8
  %10 = call nonnull align 1 dereferenceable(1) %"class.std::ios_base::Init"* @_ZSt7forwardIN3c107Warning11UserWarningEEOT_RNSt16remove_referenceIS3_E4typeE(%"class.std::ios_base::Init"* nonnull align 1 dereferenceable(1) %9) #3
  call void @_ZNSt8__detail9__variant15_Variadic_unionIJN3c107Warning11UserWarningENS3_18DeprecationWarningEEEC2IJS4_EEESt16in_place_index_tILm0EEDpOT_(%"union.std::__detail::__variant::_Variadic_union"* nonnull align 1 dereferenceable(1) %8, %"class.std::ios_base::Init"* nonnull align 1 dereferenceable(1) %10)
  %11 = getelementptr inbounds %"struct.std::__detail::__variant::_Variant_storage", %"struct.std::__detail::__variant::_Variant_storage"* %7, i32 0, i32 1
  store i8 0, i8* %11, align 1
  ret void
}

; Function Attrs: noinline optnone uwtable
define linkonce_odr dso_local void @_ZNSt8__detail9__variant15_Variadic_unionIJN3c107Warning11UserWarningENS3_18DeprecationWarningEEEC2IJS4_EEESt16in_place_index_tILm0EEDpOT_(%"union.std::__detail::__variant::_Variadic_union"* nonnull align 1 dereferenceable(1) %0, %"class.std::ios_base::Init"* nonnull align 1 dereferenceable(1) %1) unnamed_addr #7 comdat align 2 {
  %3 = alloca %"class.std::ios_base::Init", align 1
  %4 = alloca %"union.std::__detail::__variant::_Variadic_union"*, align 8
  %5 = alloca %"class.std::ios_base::Init"*, align 8
  %6 = alloca %"class.std::ios_base::Init", align 1
  store %"union.std::__detail::__variant::_Variadic_union"* %0, %"union.std::__detail::__variant::_Variadic_union"** %4, align 8
  store %"class.std::ios_base::Init"* %1, %"class.std::ios_base::Init"** %5, align 8
  %7 = load %"union.std::__detail::__variant::_Variadic_union"*, %"union.std::__detail::__variant::_Variadic_union"** %4, align 8
  %8 = bitcast %"union.std::__detail::__variant::_Variadic_union"* %7 to %"struct.std::__detail::__variant::_Uninitialized"*
  %9 = load %"class.std::ios_base::Init"*, %"class.std::ios_base::Init"** %5, align 8
  %10 = call nonnull align 1 dereferenceable(1) %"class.std::ios_base::Init"* @_ZSt7forwardIN3c107Warning11UserWarningEEOT_RNSt16remove_referenceIS3_E4typeE(%"class.std::ios_base::Init"* nonnull align 1 dereferenceable(1) %9) #3
  call void @_ZNSt8__detail9__variant14_UninitializedIN3c107Warning11UserWarningELb1EEC2IJS4_EEESt16in_place_index_tILm0EEDpOT_(%"struct.std::__detail::__variant::_Uninitialized"* nonnull align 1 dereferenceable(1) %8, %"class.std::ios_base::Init"* nonnull align 1 dereferenceable(1) %10)
  ret void
}

; Function Attrs: noinline nounwind optnone uwtable
define linkonce_odr dso_local void @_ZNSt8__detail9__variant14_UninitializedIN3c107Warning11UserWarningELb1EEC2IJS4_EEESt16in_place_index_tILm0EEDpOT_(%"struct.std::__detail::__variant::_Uninitialized"* nonnull align 1 dereferenceable(1) %0, %"class.std::ios_base::Init"* nonnull align 1 dereferenceable(1) %1) unnamed_addr #5 comdat align 2 {
  %3 = alloca %"class.std::ios_base::Init", align 1
  %4 = alloca %"struct.std::__detail::__variant::_Uninitialized"*, align 8
  %5 = alloca %"class.std::ios_base::Init"*, align 8
  store %"struct.std::__detail::__variant::_Uninitialized"* %0, %"struct.std::__detail::__variant::_Uninitialized"** %4, align 8
  store %"class.std::ios_base::Init"* %1, %"class.std::ios_base::Init"** %5, align 8
  %6 = load %"struct.std::__detail::__variant::_Uninitialized"*, %"struct.std::__detail::__variant::_Uninitialized"** %4, align 8
  %7 = getelementptr inbounds %"struct.std::__detail::__variant::_Uninitialized", %"struct.std::__detail::__variant::_Uninitialized"* %6, i32 0, i32 0
  %8 = load %"class.std::ios_base::Init"*, %"class.std::ios_base::Init"** %5, align 8
  %9 = call nonnull align 1 dereferenceable(1) %"class.std::ios_base::Init"* @_ZSt7forwardIN3c107Warning11UserWarningEEOT_RNSt16remove_referenceIS3_E4typeE(%"class.std::ios_base::Init"* nonnull align 1 dereferenceable(1) %8) #3
  ret void
}

; Function Attrs: mustprogress noinline optnone uwtable
define linkonce_odr dso_local signext i8 @_ZNK2at10TensorBase11scalar_typeEv(%"class.at::TensorBase"* nonnull align 8 dereferenceable(8) %0) #4 comdat align 2 {
  %2 = alloca %"class.at::TensorBase"*, align 8
  %3 = alloca %"class.caffe2::TypeMeta", align 2
  store %"class.at::TensorBase"* %0, %"class.at::TensorBase"** %2, align 8
  %4 = load %"class.at::TensorBase"*, %"class.at::TensorBase"** %2, align 8
  %5 = getelementptr inbounds %"class.at::TensorBase", %"class.at::TensorBase"* %4, i32 0, i32 0
  %6 = call %"struct.c10::TensorImpl"* @_ZNK3c1013intrusive_ptrINS_10TensorImplENS_19UndefinedTensorImplEEptEv(%"class.c10::intrusive_ptr"* nonnull align 8 dereferenceable(8) %5) #3
  %7 = call i16 @_ZNK3c1010TensorImpl5dtypeEv(%"struct.c10::TensorImpl"* nonnull align 8 dereferenceable(184) %6)
  %8 = getelementptr inbounds %"class.caffe2::TypeMeta", %"class.caffe2::TypeMeta"* %3, i32 0, i32 0
  store i16 %7, i16* %8, align 2
  %9 = getelementptr inbounds %"class.caffe2::TypeMeta", %"class.caffe2::TypeMeta"* %3, i32 0, i32 0
  %10 = load i16, i16* %9, align 2
  %11 = call signext i8 @_ZN3c1020typeMetaToScalarTypeEN6caffe28TypeMetaE(i16 %10)
  ret i8 %11
}

; Function Attrs: mustprogress noinline nounwind optnone uwtable
define linkonce_odr dso_local signext i8 @_ZN6detail11scalar_typeEN3c1010ScalarTypeE(i8 signext %0) #8 comdat {
  %2 = alloca i8, align 1
  store i8 %0, i8* %2, align 1
  %3 = load i8, i8* %2, align 1
  ret i8 %3
}

; Function Attrs: mustprogress noinline optnone uwtable
define internal void @_ZZZ23static_scaled_fp8_quantRN2at6TensorERKS0_S3_ENKUlvE_clEvENKUlvE_clEv(%class.anon.93* nonnull align 8 dereferenceable(56) %0) #4 align 2 {
  %2 = alloca %class.anon.93*, align 8
  %3 = alloca %struct.dim3, align 4
  %4 = alloca %struct.dim3, align 4
  %5 = alloca { i64, i32 }, align 4
  %6 = alloca { i64, i32 }, align 4
  store %class.anon.93* %0, %class.anon.93** %2, align 8
  %7 = load %class.anon.93*, %class.anon.93** %2, align 8
  %8 = getelementptr inbounds %class.anon.93, %class.anon.93* %7, i32 0, i32 0
  %9 = load %struct.dim3*, %struct.dim3** %8, align 8
  %10 = bitcast %struct.dim3* %3 to i8*
  %11 = bitcast %struct.dim3* %9 to i8*
  call void @llvm.memcpy.p0i8.p0i8.i64(i8* align 4 %10, i8* align 4 %11, i64 12, i1 false)
  %12 = getelementptr inbounds %class.anon.93, %class.anon.93* %7, i32 0, i32 1
  %13 = load %struct.dim3*, %struct.dim3** %12, align 8
  %14 = bitcast %struct.dim3* %4 to i8*
  %15 = bitcast %struct.dim3* %13 to i8*
  call void @llvm.memcpy.p0i8.p0i8.i64(i8* align 4 %14, i8* align 4 %15, i64 12, i1 false)
  %16 = getelementptr inbounds %class.anon.93, %class.anon.93* %7, i32 0, i32 2
  %17 = load %struct.CUstream_st**, %struct.CUstream_st*** %16, align 8
  %18 = load %struct.CUstream_st*, %struct.CUstream_st** %17, align 8
  %19 = bitcast %struct.CUstream_st* %18 to i8*
  %20 = bitcast { i64, i32 }* %5 to i8*
  %21 = bitcast %struct.dim3* %3 to i8*
  call void @llvm.memcpy.p0i8.p0i8.i64(i8* align 4 %20, i8* align 4 %21, i64 12, i1 false)
  %22 = getelementptr inbounds { i64, i32 }, { i64, i32 }* %5, i32 0, i32 0
  %23 = load i64, i64* %22, align 4
  %24 = getelementptr inbounds { i64, i32 }, { i64, i32 }* %5, i32 0, i32 1
  %25 = load i32, i32* %24, align 4
  %26 = bitcast { i64, i32 }* %6 to i8*
  %27 = bitcast %struct.dim3* %4 to i8*
  call void @llvm.memcpy.p0i8.p0i8.i64(i8* align 4 %26, i8* align 4 %27, i64 12, i1 false)
  %28 = getelementptr inbounds { i64, i32 }, { i64, i32 }* %6, i32 0, i32 0
  %29 = load i64, i64* %28, align 4
  %30 = getelementptr inbounds { i64, i32 }, { i64, i32 }* %6, i32 0, i32 1
  %31 = load i32, i32* %30, align 4
  %32 = call i32 @__cudaPushCallConfiguration(i64 %23, i32 %25, i64 %29, i32 %31, i64 0, i8* %19)
  %33 = icmp ne i32 %32, 0
  br i1 %33, label %50, label %34

34:                                               ; preds = %1
  %35 = getelementptr inbounds %class.anon.93, %class.anon.93* %7, i32 0, i32 3
  %36 = load %"class.at::Tensor"*, %"class.at::Tensor"** %35, align 8
  %37 = bitcast %"class.at::Tensor"* %36 to %"class.at::TensorBase"*
  %38 = call %"class.std::ios_base::Init"* @_ZNK2at10TensorBase8data_ptrIN3c1013Float8_e4m3fnEEEPT_v(%"class.at::TensorBase"* nonnull align 8 dereferenceable(8) %37)
  %39 = getelementptr inbounds %class.anon.93, %class.anon.93* %7, i32 0, i32 4
  %40 = load %"class.at::Tensor"*, %"class.at::Tensor"** %39, align 8
  %41 = bitcast %"class.at::Tensor"* %40 to %"class.at::TensorBase"*
  %42 = call float* @_ZNK2at10TensorBase8data_ptrIfEEPT_v(%"class.at::TensorBase"* nonnull align 8 dereferenceable(8) %41)
  %43 = getelementptr inbounds %class.anon.93, %class.anon.93* %7, i32 0, i32 5
  %44 = load %"class.at::Tensor"*, %"class.at::Tensor"** %43, align 8
  %45 = bitcast %"class.at::Tensor"* %44 to %"class.at::TensorBase"*
  %46 = call float* @_ZNK2at10TensorBase8data_ptrIfEEPT_v(%"class.at::TensorBase"* nonnull align 8 dereferenceable(8) %45)
  %47 = getelementptr inbounds %class.anon.93, %class.anon.93* %7, i32 0, i32 6
  %48 = load i64*, i64** %47, align 8
  %49 = load i64, i64* %48, align 8
  call void @_ZN4vllm38__device_stub__scaled_fp8_quant_kernelIfEEvPN3c1013Float8_e4m3fnEPKT_PKfl(%"class.std::ios_base::Init"* %38, float* %42, float* %46, i64 %49)
  br label %50

50:                                               ; preds = %34, %1
  ret void
}

; Function Attrs: mustprogress noinline optnone uwtable
define internal void @_ZZZ23static_scaled_fp8_quantRN2at6TensorERKS0_S3_ENKUlvE_clEvENKUlvE0_clEv(%class.anon.93* nonnull align 8 dereferenceable(56) %0) #4 align 2 {
  %2 = alloca %class.anon.93*, align 8
  %3 = alloca %struct.dim3, align 4
  %4 = alloca %struct.dim3, align 4
  %5 = alloca { i64, i32 }, align 4
  %6 = alloca { i64, i32 }, align 4
  store %class.anon.93* %0, %class.anon.93** %2, align 8
  %7 = load %class.anon.93*, %class.anon.93** %2, align 8
  %8 = getelementptr inbounds %class.anon.93, %class.anon.93* %7, i32 0, i32 0
  %9 = load %struct.dim3*, %struct.dim3** %8, align 8
  %10 = bitcast %struct.dim3* %3 to i8*
  %11 = bitcast %struct.dim3* %9 to i8*
  call void @llvm.memcpy.p0i8.p0i8.i64(i8* align 4 %10, i8* align 4 %11, i64 12, i1 false)
  %12 = getelementptr inbounds %class.anon.93, %class.anon.93* %7, i32 0, i32 1
  %13 = load %struct.dim3*, %struct.dim3** %12, align 8
  %14 = bitcast %struct.dim3* %4 to i8*
  %15 = bitcast %struct.dim3* %13 to i8*
  call void @llvm.memcpy.p0i8.p0i8.i64(i8* align 4 %14, i8* align 4 %15, i64 12, i1 false)
  %16 = getelementptr inbounds %class.anon.93, %class.anon.93* %7, i32 0, i32 2
  %17 = load %struct.CUstream_st**, %struct.CUstream_st*** %16, align 8
  %18 = load %struct.CUstream_st*, %struct.CUstream_st** %17, align 8
  %19 = bitcast %struct.CUstream_st* %18 to i8*
  %20 = bitcast { i64, i32 }* %5 to i8*
  %21 = bitcast %struct.dim3* %3 to i8*
  call void @llvm.memcpy.p0i8.p0i8.i64(i8* align 4 %20, i8* align 4 %21, i64 12, i1 false)
  %22 = getelementptr inbounds { i64, i32 }, { i64, i32 }* %5, i32 0, i32 0
  %23 = load i64, i64* %22, align 4
  %24 = getelementptr inbounds { i64, i32 }, { i64, i32 }* %5, i32 0, i32 1
  %25 = load i32, i32* %24, align 4
  %26 = bitcast { i64, i32 }* %6 to i8*
  %27 = bitcast %struct.dim3* %4 to i8*
  call void @llvm.memcpy.p0i8.p0i8.i64(i8* align 4 %26, i8* align 4 %27, i64 12, i1 false)
  %28 = getelementptr inbounds { i64, i32 }, { i64, i32 }* %6, i32 0, i32 0
  %29 = load i64, i64* %28, align 4
  %30 = getelementptr inbounds { i64, i32 }, { i64, i32 }* %6, i32 0, i32 1
  %31 = load i32, i32* %30, align 4
  %32 = call i32 @__cudaPushCallConfiguration(i64 %23, i32 %25, i64 %29, i32 %31, i64 0, i8* %19)
  %33 = icmp ne i32 %32, 0
  br i1 %33, label %50, label %34

34:                                               ; preds = %1
  %35 = getelementptr inbounds %class.anon.93, %class.anon.93* %7, i32 0, i32 3
  %36 = load %"class.at::Tensor"*, %"class.at::Tensor"** %35, align 8
  %37 = bitcast %"class.at::Tensor"* %36 to %"class.at::TensorBase"*
  %38 = call %"class.std::ios_base::Init"* @_ZNK2at10TensorBase8data_ptrIN3c1013Float8_e4m3fnEEEPT_v(%"class.at::TensorBase"* nonnull align 8 dereferenceable(8) %37)
  %39 = getelementptr inbounds %class.anon.93, %class.anon.93* %7, i32 0, i32 4
  %40 = load %"class.at::Tensor"*, %"class.at::Tensor"** %39, align 8
  %41 = bitcast %"class.at::Tensor"* %40 to %"class.at::TensorBase"*
  %42 = call %"class.caffe2::TypeMeta"* @_ZNK2at10TensorBase8data_ptrIN3c104HalfEEEPT_v(%"class.at::TensorBase"* nonnull align 8 dereferenceable(8) %41)
  %43 = getelementptr inbounds %class.anon.93, %class.anon.93* %7, i32 0, i32 5
  %44 = load %"class.at::Tensor"*, %"class.at::Tensor"** %43, align 8
  %45 = bitcast %"class.at::Tensor"* %44 to %"class.at::TensorBase"*
  %46 = call float* @_ZNK2at10TensorBase8data_ptrIfEEPT_v(%"class.at::TensorBase"* nonnull align 8 dereferenceable(8) %45)
  %47 = getelementptr inbounds %class.anon.93, %class.anon.93* %7, i32 0, i32 6
  %48 = load i64*, i64** %47, align 8
  %49 = load i64, i64* %48, align 8
  call void @_ZN4vllm38__device_stub__scaled_fp8_quant_kernelIN3c104HalfEEEvPNS1_13Float8_e4m3fnEPKT_PKfl(%"class.std::ios_base::Init"* %38, %"class.caffe2::TypeMeta"* %42, float* %46, i64 %49)
  br label %50

50:                                               ; preds = %34, %1
  ret void
}

; Function Attrs: mustprogress noinline optnone uwtable
define internal void @_ZZZ23static_scaled_fp8_quantRN2at6TensorERKS0_S3_ENKUlvE_clEvENKUlvE1_clEv(%class.anon.93* nonnull align 8 dereferenceable(56) %0) #4 align 2 {
  %2 = alloca %class.anon.93*, align 8
  %3 = alloca %struct.dim3, align 4
  %4 = alloca %struct.dim3, align 4
  %5 = alloca { i64, i32 }, align 4
  %6 = alloca { i64, i32 }, align 4
  store %class.anon.93* %0, %class.anon.93** %2, align 8
  %7 = load %class.anon.93*, %class.anon.93** %2, align 8
  %8 = getelementptr inbounds %class.anon.93, %class.anon.93* %7, i32 0, i32 0
  %9 = load %struct.dim3*, %struct.dim3** %8, align 8
  %10 = bitcast %struct.dim3* %3 to i8*
  %11 = bitcast %struct.dim3* %9 to i8*
  call void @llvm.memcpy.p0i8.p0i8.i64(i8* align 4 %10, i8* align 4 %11, i64 12, i1 false)
  %12 = getelementptr inbounds %class.anon.93, %class.anon.93* %7, i32 0, i32 1
  %13 = load %struct.dim3*, %struct.dim3** %12, align 8
  %14 = bitcast %struct.dim3* %4 to i8*
  %15 = bitcast %struct.dim3* %13 to i8*
  call void @llvm.memcpy.p0i8.p0i8.i64(i8* align 4 %14, i8* align 4 %15, i64 12, i1 false)
  %16 = getelementptr inbounds %class.anon.93, %class.anon.93* %7, i32 0, i32 2
  %17 = load %struct.CUstream_st**, %struct.CUstream_st*** %16, align 8
  %18 = load %struct.CUstream_st*, %struct.CUstream_st** %17, align 8
  %19 = bitcast %struct.CUstream_st* %18 to i8*
  %20 = bitcast { i64, i32 }* %5 to i8*
  %21 = bitcast %struct.dim3* %3 to i8*
  call void @llvm.memcpy.p0i8.p0i8.i64(i8* align 4 %20, i8* align 4 %21, i64 12, i1 false)
  %22 = getelementptr inbounds { i64, i32 }, { i64, i32 }* %5, i32 0, i32 0
  %23 = load i64, i64* %22, align 4
  %24 = getelementptr inbounds { i64, i32 }, { i64, i32 }* %5, i32 0, i32 1
  %25 = load i32, i32* %24, align 4
  %26 = bitcast { i64, i32 }* %6 to i8*
  %27 = bitcast %struct.dim3* %4 to i8*
  call void @llvm.memcpy.p0i8.p0i8.i64(i8* align 4 %26, i8* align 4 %27, i64 12, i1 false)
  %28 = getelementptr inbounds { i64, i32 }, { i64, i32 }* %6, i32 0, i32 0
  %29 = load i64, i64* %28, align 4
  %30 = getelementptr inbounds { i64, i32 }, { i64, i32 }* %6, i32 0, i32 1
  %31 = load i32, i32* %30, align 4
  %32 = call i32 @__cudaPushCallConfiguration(i64 %23, i32 %25, i64 %29, i32 %31, i64 0, i8* %19)
  %33 = icmp ne i32 %32, 0
  br i1 %33, label %50, label %34

34:                                               ; preds = %1
  %35 = getelementptr inbounds %class.anon.93, %class.anon.93* %7, i32 0, i32 3
  %36 = load %"class.at::Tensor"*, %"class.at::Tensor"** %35, align 8
  %37 = bitcast %"class.at::Tensor"* %36 to %"class.at::TensorBase"*
  %38 = call %"class.std::ios_base::Init"* @_ZNK2at10TensorBase8data_ptrIN3c1013Float8_e4m3fnEEEPT_v(%"class.at::TensorBase"* nonnull align 8 dereferenceable(8) %37)
  %39 = getelementptr inbounds %class.anon.93, %class.anon.93* %7, i32 0, i32 4
  %40 = load %"class.at::Tensor"*, %"class.at::Tensor"** %39, align 8
  %41 = bitcast %"class.at::Tensor"* %40 to %"class.at::TensorBase"*
  %42 = call %"class.caffe2::TypeMeta"* @_ZNK2at10TensorBase8data_ptrIN3c108BFloat16EEEPT_v(%"class.at::TensorBase"* nonnull align 8 dereferenceable(8) %41)
  %43 = getelementptr inbounds %class.anon.93, %class.anon.93* %7, i32 0, i32 5
  %44 = load %"class.at::Tensor"*, %"class.at::Tensor"** %43, align 8
  %45 = bitcast %"class.at::Tensor"* %44 to %"class.at::TensorBase"*
  %46 = call float* @_ZNK2at10TensorBase8data_ptrIfEEPT_v(%"class.at::TensorBase"* nonnull align 8 dereferenceable(8) %45)
  %47 = getelementptr inbounds %class.anon.93, %class.anon.93* %7, i32 0, i32 6
  %48 = load i64*, i64** %47, align 8
  %49 = load i64, i64* %48, align 8
  call void @_ZN4vllm38__device_stub__scaled_fp8_quant_kernelIN3c108BFloat16EEEvPNS1_13Float8_e4m3fnEPKT_PKfl(%"class.std::ios_base::Init"* %38, %"class.caffe2::TypeMeta"* %42, float* %46, i64 %49)
  br label %50

50:                                               ; preds = %34, %1
  ret void
}

; Function Attrs: mustprogress noinline nounwind optnone uwtable
define linkonce_odr dso_local i8* @_ZN3c108toStringENS_10ScalarTypeE(i8 signext %0) #8 comdat {
  %2 = alloca i8*, align 8
  %3 = alloca i8, align 1
  store i8 %0, i8* %3, align 1
  %4 = load i8, i8* %3, align 1
  switch i8 %4, label %50 [
    i8 0, label %5
    i8 1, label %6
    i8 2, label %7
    i8 3, label %8
    i8 4, label %9
    i8 5, label %10
    i8 6, label %11
    i8 7, label %12
    i8 8, label %13
    i8 9, label %14
    i8 10, label %15
    i8 11, label %16
    i8 12, label %17
    i8 13, label %18
    i8 14, label %19
    i8 15, label %20
    i8 16, label %21
    i8 17, label %22
    i8 18, label %23
    i8 19, label %24
    i8 20, label %25
    i8 21, label %26
    i8 22, label %27
    i8 23, label %28
    i8 24, label %29
    i8 25, label %30
    i8 26, label %31
    i8 27, label %32
    i8 28, label %33
    i8 29, label %34
    i8 30, label %35
    i8 31, label %36
    i8 32, label %37
    i8 33, label %38
    i8 34, label %39
    i8 35, label %40
    i8 36, label %41
    i8 37, label %42
    i8 38, label %43
    i8 39, label %44
    i8 40, label %45
    i8 41, label %46
    i8 42, label %47
    i8 43, label %48
    i8 44, label %49
  ]

5:                                                ; preds = %1
  store i8* getelementptr inbounds ([5 x i8], [5 x i8]* @.str.44, i64 0, i64 0), i8** %2, align 8
  br label %51

6:                                                ; preds = %1
  store i8* getelementptr inbounds ([5 x i8], [5 x i8]* @.str.45, i64 0, i64 0), i8** %2, align 8
  br label %51

7:                                                ; preds = %1
  store i8* getelementptr inbounds ([6 x i8], [6 x i8]* @.str.46, i64 0, i64 0), i8** %2, align 8
  br label %51

8:                                                ; preds = %1
  store i8* getelementptr inbounds ([4 x i8], [4 x i8]* @.str.47, i64 0, i64 0), i8** %2, align 8
  br label %51

9:                                                ; preds = %1
  store i8* getelementptr inbounds ([5 x i8], [5 x i8]* @.str.48, i64 0, i64 0), i8** %2, align 8
  br label %51

10:                                               ; preds = %1
  store i8* getelementptr inbounds ([5 x i8], [5 x i8]* @.str.49, i64 0, i64 0), i8** %2, align 8
  br label %51

11:                                               ; preds = %1
  store i8* getelementptr inbounds ([6 x i8], [6 x i8]* @.str.50, i64 0, i64 0), i8** %2, align 8
  br label %51

12:                                               ; preds = %1
  store i8* getelementptr inbounds ([7 x i8], [7 x i8]* @.str.51, i64 0, i64 0), i8** %2, align 8
  br label %51

13:                                               ; preds = %1
  store i8* getelementptr inbounds ([12 x i8], [12 x i8]* @.str.52, i64 0, i64 0), i8** %2, align 8
  br label %51

14:                                               ; preds = %1
  store i8* getelementptr inbounds ([13 x i8], [13 x i8]* @.str.53, i64 0, i64 0), i8** %2, align 8
  br label %51

15:                                               ; preds = %1
  store i8* getelementptr inbounds ([14 x i8], [14 x i8]* @.str.54, i64 0, i64 0), i8** %2, align 8
  br label %51

16:                                               ; preds = %1
  store i8* getelementptr inbounds ([5 x i8], [5 x i8]* @.str.55, i64 0, i64 0), i8** %2, align 8
  br label %51

17:                                               ; preds = %1
  store i8* getelementptr inbounds ([6 x i8], [6 x i8]* @.str.56, i64 0, i64 0), i8** %2, align 8
  br label %51

18:                                               ; preds = %1
  store i8* getelementptr inbounds ([7 x i8], [7 x i8]* @.str.57, i64 0, i64 0), i8** %2, align 8
  br label %51

19:                                               ; preds = %1
  store i8* getelementptr inbounds ([7 x i8], [7 x i8]* @.str.58, i64 0, i64 0), i8** %2, align 8
  br label %51

20:                                               ; preds = %1
  store i8* getelementptr inbounds ([9 x i8], [9 x i8]* @.str.59, i64 0, i64 0), i8** %2, align 8
  br label %51

21:                                               ; preds = %1
  store i8* getelementptr inbounds ([9 x i8], [9 x i8]* @.str.60, i64 0, i64 0), i8** %2, align 8
  br label %51

22:                                               ; preds = %1
  store i8* getelementptr inbounds ([9 x i8], [9 x i8]* @.str.61, i64 0, i64 0), i8** %2, align 8
  br label %51

23:                                               ; preds = %1
  store i8* getelementptr inbounds ([8 x i8], [8 x i8]* @.str.62, i64 0, i64 0), i8** %2, align 8
  br label %51

24:                                               ; preds = %1
  store i8* getelementptr inbounds ([8 x i8], [8 x i8]* @.str.63, i64 0, i64 0), i8** %2, align 8
  br label %51

25:                                               ; preds = %1
  store i8* getelementptr inbounds ([8 x i8], [8 x i8]* @.str.64, i64 0, i64 0), i8** %2, align 8
  br label %51

26:                                               ; preds = %1
  store i8* getelementptr inbounds ([6 x i8], [6 x i8]* @.str.65, i64 0, i64 0), i8** %2, align 8
  br label %51

27:                                               ; preds = %1
  store i8* getelementptr inbounds ([7 x i8], [7 x i8]* @.str.66, i64 0, i64 0), i8** %2, align 8
  br label %51

28:                                               ; preds = %1
  store i8* getelementptr inbounds ([12 x i8], [12 x i8]* @.str.67, i64 0, i64 0), i8** %2, align 8
  br label %51

29:                                               ; preds = %1
  store i8* getelementptr inbounds ([14 x i8], [14 x i8]* @.str.68, i64 0, i64 0), i8** %2, align 8
  br label %51

30:                                               ; preds = %1
  store i8* getelementptr inbounds ([16 x i8], [16 x i8]* @.str.69, i64 0, i64 0), i8** %2, align 8
  br label %51

31:                                               ; preds = %1
  store i8* getelementptr inbounds ([16 x i8], [16 x i8]* @.str.70, i64 0, i64 0), i8** %2, align 8
  br label %51

32:                                               ; preds = %1
  store i8* getelementptr inbounds ([7 x i8], [7 x i8]* @.str.71, i64 0, i64 0), i8** %2, align 8
  br label %51

33:                                               ; preds = %1
  store i8* getelementptr inbounds ([7 x i8], [7 x i8]* @.str.72, i64 0, i64 0), i8** %2, align 8
  br label %51

34:                                               ; preds = %1
  store i8* getelementptr inbounds ([7 x i8], [7 x i8]* @.str.73, i64 0, i64 0), i8** %2, align 8
  br label %51

35:                                               ; preds = %1
  store i8* getelementptr inbounds ([6 x i8], [6 x i8]* @.str.74, i64 0, i64 0), i8** %2, align 8
  br label %51

36:                                               ; preds = %1
  store i8* getelementptr inbounds ([6 x i8], [6 x i8]* @.str.75, i64 0, i64 0), i8** %2, align 8
  br label %51

37:                                               ; preds = %1
  store i8* getelementptr inbounds ([6 x i8], [6 x i8]* @.str.76, i64 0, i64 0), i8** %2, align 8
  br label %51

38:                                               ; preds = %1
  store i8* getelementptr inbounds ([6 x i8], [6 x i8]* @.str.77, i64 0, i64 0), i8** %2, align 8
  br label %51

39:                                               ; preds = %1
  store i8* getelementptr inbounds ([6 x i8], [6 x i8]* @.str.78, i64 0, i64 0), i8** %2, align 8
  br label %51

40:                                               ; preds = %1
  store i8* getelementptr inbounds ([6 x i8], [6 x i8]* @.str.79, i64 0, i64 0), i8** %2, align 8
  br label %51

41:                                               ; preds = %1
  store i8* getelementptr inbounds ([6 x i8], [6 x i8]* @.str.80, i64 0, i64 0), i8** %2, align 8
  br label %51

42:                                               ; preds = %1
  store i8* getelementptr inbounds ([5 x i8], [5 x i8]* @.str.81, i64 0, i64 0), i8** %2, align 8
  br label %51

43:                                               ; preds = %1
  store i8* getelementptr inbounds ([5 x i8], [5 x i8]* @.str.82, i64 0, i64 0), i8** %2, align 8
  br label %51

44:                                               ; preds = %1
  store i8* getelementptr inbounds ([5 x i8], [5 x i8]* @.str.83, i64 0, i64 0), i8** %2, align 8
  br label %51

45:                                               ; preds = %1
  store i8* getelementptr inbounds ([5 x i8], [5 x i8]* @.str.84, i64 0, i64 0), i8** %2, align 8
  br label %51

46:                                               ; preds = %1
  store i8* getelementptr inbounds ([5 x i8], [5 x i8]* @.str.85, i64 0, i64 0), i8** %2, align 8
  br label %51

47:                                               ; preds = %1
  store i8* getelementptr inbounds ([5 x i8], [5 x i8]* @.str.86, i64 0, i64 0), i8** %2, align 8
  br label %51

48:                                               ; preds = %1
  store i8* getelementptr inbounds ([5 x i8], [5 x i8]* @.str.87, i64 0, i64 0), i8** %2, align 8
  br label %51

49:                                               ; preds = %1
  store i8* getelementptr inbounds ([15 x i8], [15 x i8]* @.str.88, i64 0, i64 0), i8** %2, align 8
  br label %51

50:                                               ; preds = %1
  store i8* getelementptr inbounds ([15 x i8], [15 x i8]* @.str.89, i64 0, i64 0), i8** %2, align 8
  br label %51

51:                                               ; preds = %50, %49, %48, %47, %46, %45, %44, %43, %42, %41, %40, %39, %38, %37, %36, %35, %34, %33, %32, %31, %30, %29, %28, %27, %26, %25, %24, %23, %22, %21, %20, %19, %18, %17, %16, %15, %14, %13, %12, %11, %10, %9, %8, %7, %6, %5
  %52 = load i8*, i8** %2, align 8
  ret i8* %52
}

; Function Attrs: mustprogress noinline optnone uwtable
define linkonce_odr dso_local void @_ZN3c106detail17torchCheckMsgImplIJcPKcA24_cS3_A2_cEEEDcS3_DpRKT_(%"class.std::__cxx11::basic_string"* noalias sret(%"class.std::__cxx11::basic_string") align 8 %0, i8* %1, i8* nonnull align 1 dereferenceable(1) %2, i8** nonnull align 8 dereferenceable(8) %3, [24 x i8]* nonnull align 1 dereferenceable(24) %4, i8** nonnull align 8 dereferenceable(8) %5, [2 x i8]* nonnull align 1 dereferenceable(2) %6) #4 comdat {
  %8 = alloca i8*, align 8
  %9 = alloca i8*, align 8
  %10 = alloca i8*, align 8
  %11 = alloca i8**, align 8
  %12 = alloca [24 x i8]*, align 8
  %13 = alloca i8**, align 8
  %14 = alloca [2 x i8]*, align 8
  %15 = bitcast %"class.std::__cxx11::basic_string"* %0 to i8*
  store i8* %15, i8** %8, align 8
  store i8* %1, i8** %9, align 8
  store i8* %2, i8** %10, align 8
  store i8** %3, i8*** %11, align 8
  store [24 x i8]* %4, [24 x i8]** %12, align 8
  store i8** %5, i8*** %13, align 8
  store [2 x i8]* %6, [2 x i8]** %14, align 8
  %16 = load i8*, i8** %10, align 8
  %17 = load i8**, i8*** %11, align 8
  %18 = load [24 x i8]*, [24 x i8]** %12, align 8
  %19 = load i8**, i8*** %13, align 8
  %20 = load [2 x i8]*, [2 x i8]** %14, align 8
  call void @_ZN3c103strIJcPKcA24_cS2_A2_cEEEDcDpRKT_(%"class.std::__cxx11::basic_string"* sret(%"class.std::__cxx11::basic_string") align 8 %0, i8* nonnull align 1 dereferenceable(1) %16, i8** nonnull align 8 dereferenceable(8) %17, [24 x i8]* nonnull align 1 dereferenceable(24) %18, i8** nonnull align 8 dereferenceable(8) %19, [2 x i8]* nonnull align 1 dereferenceable(2) %20)
  ret void
}

; Function Attrs: noreturn
declare dso_local void @_ZN3c106detail14torchCheckFailEPKcS2_jRKNSt7__cxx1112basic_stringIcSt11char_traitsIcESaIcEEE(i8*, i8*, i32, %"class.std::__cxx11::basic_string"* nonnull align 8 dereferenceable(32)) #10

; Function Attrs: mustprogress noinline optnone uwtable
define linkonce_odr dso_local void @_ZN3c103strIJcPKcA24_cS2_A2_cEEEDcDpRKT_(%"class.std::__cxx11::basic_string"* noalias sret(%"class.std::__cxx11::basic_string") align 8 %0, i8* nonnull align 1 dereferenceable(1) %1, i8** nonnull align 8 dereferenceable(8) %2, [24 x i8]* nonnull align 1 dereferenceable(24) %3, i8** nonnull align 8 dereferenceable(8) %4, [2 x i8]* nonnull align 1 dereferenceable(2) %5) #4 comdat {
  %7 = alloca i8*, align 8
  %8 = alloca i8*, align 8
  %9 = alloca i8**, align 8
  %10 = alloca [24 x i8]*, align 8
  %11 = alloca i8**, align 8
  %12 = alloca [2 x i8]*, align 8
  %13 = alloca i8*, align 8
  %14 = alloca i8*, align 8
  %15 = bitcast %"class.std::__cxx11::basic_string"* %0 to i8*
  store i8* %15, i8** %7, align 8
  store i8* %1, i8** %8, align 8
  store i8** %2, i8*** %9, align 8
  store [24 x i8]* %3, [24 x i8]** %10, align 8
  store i8** %4, i8*** %11, align 8
  store [2 x i8]* %5, [2 x i8]** %12, align 8
  %16 = load i8*, i8** %8, align 8
  %17 = load i8**, i8*** %9, align 8
  %18 = load [24 x i8]*, [24 x i8]** %10, align 8
  %19 = getelementptr inbounds [24 x i8], [24 x i8]* %18, i64 0, i64 0
  store i8* %19, i8** %13, align 8
  %20 = load i8**, i8*** %11, align 8
  %21 = load [2 x i8]*, [2 x i8]** %12, align 8
  %22 = getelementptr inbounds [2 x i8], [2 x i8]* %21, i64 0, i64 0
  store i8* %22, i8** %14, align 8
  call void @_ZN3c106detail12_str_wrapperIJRKcRKPS2_S4_S6_S4_EE4callB5cxx11ES3_S6_S6_S6_S6_(%"class.std::__cxx11::basic_string"* sret(%"class.std::__cxx11::basic_string") align 8 %0, i8* nonnull align 1 dereferenceable(1) %16, i8** nonnull align 8 dereferenceable(8) %17, i8** nonnull align 8 dereferenceable(8) %13, i8** nonnull align 8 dereferenceable(8) %20, i8** nonnull align 8 dereferenceable(8) %14)
  ret void
}

; Function Attrs: mustprogress noinline optnone uwtable
define linkonce_odr dso_local void @_ZN3c106detail12_str_wrapperIJRKcRKPS2_S4_S6_S4_EE4callB5cxx11ES3_S6_S6_S6_S6_(%"class.std::__cxx11::basic_string"* noalias sret(%"class.std::__cxx11::basic_string") align 8 %0, i8* nonnull align 1 dereferenceable(1) %1, i8** nonnull align 8 dereferenceable(8) %2, i8** nonnull align 8 dereferenceable(8) %3, i8** nonnull align 8 dereferenceable(8) %4, i8** nonnull align 8 dereferenceable(8) %5) #4 comdat align 2 personality i8* bitcast (i32 (...)* @__gxx_personality_v0 to i8*) {
  %7 = alloca i8*, align 8
  %8 = alloca i8*, align 8
  %9 = alloca i8**, align 8
  %10 = alloca i8**, align 8
  %11 = alloca i8**, align 8
  %12 = alloca i8**, align 8
  %13 = alloca %"class.std::__cxx11::basic_ostringstream", align 8
  %14 = alloca i8*, align 8
  %15 = alloca i32, align 4
  %16 = bitcast %"class.std::__cxx11::basic_string"* %0 to i8*
  store i8* %16, i8** %7, align 8
  store i8* %1, i8** %8, align 8
  store i8** %2, i8*** %9, align 8
  store i8** %3, i8*** %10, align 8
  store i8** %4, i8*** %11, align 8
  store i8** %5, i8*** %12, align 8
  call void @_ZNSt7__cxx1119basic_ostringstreamIcSt11char_traitsIcESaIcEEC1Ev(%"class.std::__cxx11::basic_ostringstream"* nonnull align 8 dereferenceable(112) %13)
  %17 = bitcast %"class.std::__cxx11::basic_ostringstream"* %13 to %"class.std::basic_ostream"*
  %18 = load i8*, i8** %8, align 8
  %19 = load i8**, i8*** %9, align 8
  %20 = load i8**, i8*** %10, align 8
  %21 = load i8**, i8*** %11, align 8
  %22 = load i8**, i8*** %12, align 8
  %23 = invoke nonnull align 8 dereferenceable(8) %"class.std::basic_ostream"* @_ZN3c106detail4_strIcJPKcS3_S3_S3_EEERSoS4_RKT_DpRKT0_(%"class.std::basic_ostream"* nonnull align 8 dereferenceable(8) %17, i8* nonnull align 1 dereferenceable(1) %18, i8** nonnull align 8 dereferenceable(8) %19, i8** nonnull align 8 dereferenceable(8) %20, i8** nonnull align 8 dereferenceable(8) %21, i8** nonnull align 8 dereferenceable(8) %22)
          to label %24 unwind label %26

24:                                               ; preds = %6
  invoke void @_ZNKSt7__cxx1119basic_ostringstreamIcSt11char_traitsIcESaIcEE3strEv(%"class.std::__cxx11::basic_string"* sret(%"class.std::__cxx11::basic_string") align 8 %0, %"class.std::__cxx11::basic_ostringstream"* nonnull align 8 dereferenceable(112) %13)
          to label %25 unwind label %26

25:                                               ; preds = %24
  call void @_ZNSt7__cxx1119basic_ostringstreamIcSt11char_traitsIcESaIcEED1Ev(%"class.std::__cxx11::basic_ostringstream"* nonnull align 8 dereferenceable(112) %13) #3
  ret void

26:                                               ; preds = %24, %6
  %27 = landingpad { i8*, i32 }
          cleanup
  %28 = extractvalue { i8*, i32 } %27, 0
  store i8* %28, i8** %14, align 8
  %29 = extractvalue { i8*, i32 } %27, 1
  store i32 %29, i32* %15, align 4
  call void @_ZNSt7__cxx1119basic_ostringstreamIcSt11char_traitsIcESaIcEED1Ev(%"class.std::__cxx11::basic_ostringstream"* nonnull align 8 dereferenceable(112) %13) #3
  br label %30

30:                                               ; preds = %26
  %31 = load i8*, i8** %14, align 8
  %32 = load i32, i32* %15, align 4
  %33 = insertvalue { i8*, i32 } undef, i8* %31, 0
  %34 = insertvalue { i8*, i32 } %33, i32 %32, 1
  resume { i8*, i32 } %34
}

; Function Attrs: mustprogress noinline optnone uwtable
define linkonce_odr dso_local nonnull align 8 dereferenceable(8) %"class.std::basic_ostream"* @_ZN3c106detail4_strIcJPKcS3_S3_S3_EEERSoS4_RKT_DpRKT0_(%"class.std::basic_ostream"* nonnull align 8 dereferenceable(8) %0, i8* nonnull align 1 dereferenceable(1) %1, i8** nonnull align 8 dereferenceable(8) %2, i8** nonnull align 8 dereferenceable(8) %3, i8** nonnull align 8 dereferenceable(8) %4, i8** nonnull align 8 dereferenceable(8) %5) #4 comdat {
  %7 = alloca %"class.std::basic_ostream"*, align 8
  %8 = alloca i8*, align 8
  %9 = alloca i8**, align 8
  %10 = alloca i8**, align 8
  %11 = alloca i8**, align 8
  %12 = alloca i8**, align 8
  store %"class.std::basic_ostream"* %0, %"class.std::basic_ostream"** %7, align 8
  store i8* %1, i8** %8, align 8
  store i8** %2, i8*** %9, align 8
  store i8** %3, i8*** %10, align 8
  store i8** %4, i8*** %11, align 8
  store i8** %5, i8*** %12, align 8
  %13 = load %"class.std::basic_ostream"*, %"class.std::basic_ostream"** %7, align 8
  %14 = load i8*, i8** %8, align 8
  %15 = call nonnull align 8 dereferenceable(8) %"class.std::basic_ostream"* @_ZN3c106detail4_strIcEERSoS2_RKT_(%"class.std::basic_ostream"* nonnull align 8 dereferenceable(8) %13, i8* nonnull align 1 dereferenceable(1) %14)
  %16 = load i8**, i8*** %9, align 8
  %17 = load i8**, i8*** %10, align 8
  %18 = load i8**, i8*** %11, align 8
  %19 = load i8**, i8*** %12, align 8
  %20 = call nonnull align 8 dereferenceable(8) %"class.std::basic_ostream"* @_ZN3c106detail4_strIPKcJS3_S3_S3_EEERSoS4_RKT_DpRKT0_(%"class.std::basic_ostream"* nonnull align 8 dereferenceable(8) %15, i8** nonnull align 8 dereferenceable(8) %16, i8** nonnull align 8 dereferenceable(8) %17, i8** nonnull align 8 dereferenceable(8) %18, i8** nonnull align 8 dereferenceable(8) %19)
  ret %"class.std::basic_ostream"* %20
}

; Function Attrs: mustprogress noinline optnone uwtable
define linkonce_odr dso_local nonnull align 8 dereferenceable(8) %"class.std::basic_ostream"* @_ZN3c106detail4_strIcEERSoS2_RKT_(%"class.std::basic_ostream"* nonnull align 8 dereferenceable(8) %0, i8* nonnull align 1 dereferenceable(1) %1) #4 comdat {
  %3 = alloca %"class.std::basic_ostream"*, align 8
  %4 = alloca i8*, align 8
  store %"class.std::basic_ostream"* %0, %"class.std::basic_ostream"** %3, align 8
  store i8* %1, i8** %4, align 8
  %5 = load %"class.std::basic_ostream"*, %"class.std::basic_ostream"** %3, align 8
  %6 = load i8*, i8** %4, align 8
  %7 = load i8, i8* %6, align 1
  %8 = call nonnull align 8 dereferenceable(8) %"class.std::basic_ostream"* @_ZStlsISt11char_traitsIcEERSt13basic_ostreamIcT_ES5_c(%"class.std::basic_ostream"* nonnull align 8 dereferenceable(8) %5, i8 signext %7)
  %9 = load %"class.std::basic_ostream"*, %"class.std::basic_ostream"** %3, align 8
  ret %"class.std::basic_ostream"* %9
}

; Function Attrs: mustprogress noinline optnone uwtable
define linkonce_odr dso_local nonnull align 8 dereferenceable(8) %"class.std::basic_ostream"* @_ZN3c106detail4_strIPKcJS3_S3_S3_EEERSoS4_RKT_DpRKT0_(%"class.std::basic_ostream"* nonnull align 8 dereferenceable(8) %0, i8** nonnull align 8 dereferenceable(8) %1, i8** nonnull align 8 dereferenceable(8) %2, i8** nonnull align 8 dereferenceable(8) %3, i8** nonnull align 8 dereferenceable(8) %4) #4 comdat {
  %6 = alloca %"class.std::basic_ostream"*, align 8
  %7 = alloca i8**, align 8
  %8 = alloca i8**, align 8
  %9 = alloca i8**, align 8
  %10 = alloca i8**, align 8
  store %"class.std::basic_ostream"* %0, %"class.std::basic_ostream"** %6, align 8
  store i8** %1, i8*** %7, align 8
  store i8** %2, i8*** %8, align 8
  store i8** %3, i8*** %9, align 8
  store i8** %4, i8*** %10, align 8
  %11 = load %"class.std::basic_ostream"*, %"class.std::basic_ostream"** %6, align 8
  %12 = load i8**, i8*** %7, align 8
  %13 = call nonnull align 8 dereferenceable(8) %"class.std::basic_ostream"* @_ZN3c106detail4_strIPKcEERSoS4_RKT_(%"class.std::basic_ostream"* nonnull align 8 dereferenceable(8) %11, i8** nonnull align 8 dereferenceable(8) %12)
  %14 = load i8**, i8*** %8, align 8
  %15 = load i8**, i8*** %9, align 8
  %16 = load i8**, i8*** %10, align 8
  %17 = call nonnull align 8 dereferenceable(8) %"class.std::basic_ostream"* @_ZN3c106detail4_strIPKcJS3_S3_EEERSoS4_RKT_DpRKT0_(%"class.std::basic_ostream"* nonnull align 8 dereferenceable(8) %13, i8** nonnull align 8 dereferenceable(8) %14, i8** nonnull align 8 dereferenceable(8) %15, i8** nonnull align 8 dereferenceable(8) %16)
  ret %"class.std::basic_ostream"* %17
}

; Function Attrs: mustprogress noinline optnone uwtable
define linkonce_odr dso_local nonnull align 8 dereferenceable(8) %"class.std::basic_ostream"* @_ZN3c106detail4_strIPKcJS3_S3_EEERSoS4_RKT_DpRKT0_(%"class.std::basic_ostream"* nonnull align 8 dereferenceable(8) %0, i8** nonnull align 8 dereferenceable(8) %1, i8** nonnull align 8 dereferenceable(8) %2, i8** nonnull align 8 dereferenceable(8) %3) #4 comdat {
  %5 = alloca %"class.std::basic_ostream"*, align 8
  %6 = alloca i8**, align 8
  %7 = alloca i8**, align 8
  %8 = alloca i8**, align 8
  store %"class.std::basic_ostream"* %0, %"class.std::basic_ostream"** %5, align 8
  store i8** %1, i8*** %6, align 8
  store i8** %2, i8*** %7, align 8
  store i8** %3, i8*** %8, align 8
  %9 = load %"class.std::basic_ostream"*, %"class.std::basic_ostream"** %5, align 8
  %10 = load i8**, i8*** %6, align 8
  %11 = call nonnull align 8 dereferenceable(8) %"class.std::basic_ostream"* @_ZN3c106detail4_strIPKcEERSoS4_RKT_(%"class.std::basic_ostream"* nonnull align 8 dereferenceable(8) %9, i8** nonnull align 8 dereferenceable(8) %10)
  %12 = load i8**, i8*** %7, align 8
  %13 = load i8**, i8*** %8, align 8
  %14 = call nonnull align 8 dereferenceable(8) %"class.std::basic_ostream"* @_ZN3c106detail4_strIPKcJS3_EEERSoS4_RKT_DpRKT0_(%"class.std::basic_ostream"* nonnull align 8 dereferenceable(8) %11, i8** nonnull align 8 dereferenceable(8) %12, i8** nonnull align 8 dereferenceable(8) %13)
  ret %"class.std::basic_ostream"* %14
}

declare dso_local nonnull align 8 dereferenceable(8) %"class.std::basic_ostream"* @_ZStlsISt11char_traitsIcEERSt13basic_ostreamIcT_ES5_c(%"class.std::basic_ostream"* nonnull align 8 dereferenceable(8), i8 signext) #1

declare dso_local i32 @__cudaPushCallConfiguration(i64, i32, i64, i32, i64, i8*) #1

declare dso_local %"class.std::ios_base::Init"* @_ZNK2at10TensorBase8data_ptrIN3c1013Float8_e4m3fnEEEPT_v(%"class.at::TensorBase"* nonnull align 8 dereferenceable(8)) #1

declare dso_local %"class.caffe2::TypeMeta"* @_ZNK2at10TensorBase8data_ptrIN3c108BFloat16EEEPT_v(%"class.at::TensorBase"* nonnull align 8 dereferenceable(8)) #1

declare dso_local float* @_ZNK2at10TensorBase8data_ptrIfEEPT_v(%"class.at::TensorBase"* nonnull align 8 dereferenceable(8)) #1

; Function Attrs: noinline norecurse optnone uwtable
define linkonce_odr dso_local void @_ZN4vllm38__device_stub__scaled_fp8_quant_kernelIN3c108BFloat16EEEvPNS1_13Float8_e4m3fnEPKT_PKfl(%"class.std::ios_base::Init"* noalias %0, %"class.caffe2::TypeMeta"* noalias %1, float* noalias %2, i64 %3) #11 {
  %5 = alloca %"class.std::ios_base::Init"*, align 8
  %6 = alloca %"class.caffe2::TypeMeta"*, align 8
  %7 = alloca float*, align 8
  %8 = alloca i64, align 8
  %9 = alloca %struct.dim3, align 8
  %10 = alloca %struct.dim3, align 8
  %11 = alloca i64, align 8
  %12 = alloca i8*, align 8
  %13 = alloca { i64, i32 }, align 8
  %14 = alloca { i64, i32 }, align 8
  store %"class.std::ios_base::Init"* %0, %"class.std::ios_base::Init"** %5, align 8
  store %"class.caffe2::TypeMeta"* %1, %"class.caffe2::TypeMeta"** %6, align 8
  store float* %2, float** %7, align 8
  store i64 %3, i64* %8, align 8
  %15 = alloca i8*, i64 4, align 16
  %16 = bitcast %"class.std::ios_base::Init"** %5 to i8*
  %17 = getelementptr i8*, i8** %15, i32 0
  store i8* %16, i8** %17, align 8
  %18 = bitcast %"class.caffe2::TypeMeta"** %6 to i8*
  %19 = getelementptr i8*, i8** %15, i32 1
  store i8* %18, i8** %19, align 8
  %20 = bitcast float** %7 to i8*
  %21 = getelementptr i8*, i8** %15, i32 2
  store i8* %20, i8** %21, align 8
  %22 = bitcast i64* %8 to i8*
  %23 = getelementptr i8*, i8** %15, i32 3
  store i8* %22, i8** %23, align 8
  %24 = call i32 @__cudaPopCallConfiguration(%struct.dim3* %9, %struct.dim3* %10, i64* %11, i8** %12)
  %25 = load i64, i64* %11, align 8
  %26 = load i8*, i8** %12, align 8
  %27 = bitcast { i64, i32 }* %13 to i8*
  %28 = bitcast %struct.dim3* %9 to i8*
  call void @llvm.memcpy.p0i8.p0i8.i64(i8* align 8 %27, i8* align 8 %28, i64 12, i1 false)
  %29 = getelementptr inbounds { i64, i32 }, { i64, i32 }* %13, i32 0, i32 0
  %30 = load i64, i64* %29, align 8
  %31 = getelementptr inbounds { i64, i32 }, { i64, i32 }* %13, i32 0, i32 1
  %32 = load i32, i32* %31, align 8
  %33 = bitcast { i64, i32 }* %14 to i8*
  %34 = bitcast %struct.dim3* %10 to i8*
  call void @llvm.memcpy.p0i8.p0i8.i64(i8* align 8 %33, i8* align 8 %34, i64 12, i1 false)
  %35 = getelementptr inbounds { i64, i32 }, { i64, i32 }* %14, i32 0, i32 0
  %36 = load i64, i64* %35, align 8
  %37 = getelementptr inbounds { i64, i32 }, { i64, i32 }* %14, i32 0, i32 1
  %38 = load i32, i32* %37, align 8
  %39 = bitcast i8* %26 to %struct.CUstream_st*
  %40 = call i32 @cudaLaunchKernel(i8* bitcast (void (%"class.std::ios_base::Init"*, %"class.caffe2::TypeMeta"*, float*, i64)* @_ZN4vllm38__device_stub__scaled_fp8_quant_kernelIN3c108BFloat16EEEvPNS1_13Float8_e4m3fnEPKT_PKfl to i8*), i64 %30, i32 %32, i64 %36, i32 %38, i8** %15, i64 %25, %struct.CUstream_st* %39)
  br label %41

41:                                               ; preds = %4
  ret void
}

declare dso_local i32 @__cudaPopCallConfiguration(%struct.dim3*, %struct.dim3*, i64*, i8**)

declare dso_local i32 @cudaLaunchKernel(i8*, i64, i32, i64, i32, i8**, i64, %struct.CUstream_st*)

declare dso_local %"class.caffe2::TypeMeta"* @_ZNK2at10TensorBase8data_ptrIN3c104HalfEEEPT_v(%"class.at::TensorBase"* nonnull align 8 dereferenceable(8)) #1

; Function Attrs: noinline norecurse optnone uwtable
define linkonce_odr dso_local void @_ZN4vllm38__device_stub__scaled_fp8_quant_kernelIN3c104HalfEEEvPNS1_13Float8_e4m3fnEPKT_PKfl(%"class.std::ios_base::Init"* noalias %0, %"class.caffe2::TypeMeta"* noalias %1, float* noalias %2, i64 %3) #11 {
  %5 = alloca %"class.std::ios_base::Init"*, align 8
  %6 = alloca %"class.caffe2::TypeMeta"*, align 8
  %7 = alloca float*, align 8
  %8 = alloca i64, align 8
  %9 = alloca %struct.dim3, align 8
  %10 = alloca %struct.dim3, align 8
  %11 = alloca i64, align 8
  %12 = alloca i8*, align 8
  %13 = alloca { i64, i32 }, align 8
  %14 = alloca { i64, i32 }, align 8
  store %"class.std::ios_base::Init"* %0, %"class.std::ios_base::Init"** %5, align 8
  store %"class.caffe2::TypeMeta"* %1, %"class.caffe2::TypeMeta"** %6, align 8
  store float* %2, float** %7, align 8
  store i64 %3, i64* %8, align 8
  %15 = alloca i8*, i64 4, align 16
  %16 = bitcast %"class.std::ios_base::Init"** %5 to i8*
  %17 = getelementptr i8*, i8** %15, i32 0
  store i8* %16, i8** %17, align 8
  %18 = bitcast %"class.caffe2::TypeMeta"** %6 to i8*
  %19 = getelementptr i8*, i8** %15, i32 1
  store i8* %18, i8** %19, align 8
  %20 = bitcast float** %7 to i8*
  %21 = getelementptr i8*, i8** %15, i32 2
  store i8* %20, i8** %21, align 8
  %22 = bitcast i64* %8 to i8*
  %23 = getelementptr i8*, i8** %15, i32 3
  store i8* %22, i8** %23, align 8
  %24 = call i32 @__cudaPopCallConfiguration(%struct.dim3* %9, %struct.dim3* %10, i64* %11, i8** %12)
  %25 = load i64, i64* %11, align 8
  %26 = load i8*, i8** %12, align 8
  %27 = bitcast { i64, i32 }* %13 to i8*
  %28 = bitcast %struct.dim3* %9 to i8*
  call void @llvm.memcpy.p0i8.p0i8.i64(i8* align 8 %27, i8* align 8 %28, i64 12, i1 false)
  %29 = getelementptr inbounds { i64, i32 }, { i64, i32 }* %13, i32 0, i32 0
  %30 = load i64, i64* %29, align 8
  %31 = getelementptr inbounds { i64, i32 }, { i64, i32 }* %13, i32 0, i32 1
  %32 = load i32, i32* %31, align 8
  %33 = bitcast { i64, i32 }* %14 to i8*
  %34 = bitcast %struct.dim3* %10 to i8*
  call void @llvm.memcpy.p0i8.p0i8.i64(i8* align 8 %33, i8* align 8 %34, i64 12, i1 false)
  %35 = getelementptr inbounds { i64, i32 }, { i64, i32 }* %14, i32 0, i32 0
  %36 = load i64, i64* %35, align 8
  %37 = getelementptr inbounds { i64, i32 }, { i64, i32 }* %14, i32 0, i32 1
  %38 = load i32, i32* %37, align 8
  %39 = bitcast i8* %26 to %struct.CUstream_st*
  %40 = call i32 @cudaLaunchKernel(i8* bitcast (void (%"class.std::ios_base::Init"*, %"class.caffe2::TypeMeta"*, float*, i64)* @_ZN4vllm38__device_stub__scaled_fp8_quant_kernelIN3c104HalfEEEvPNS1_13Float8_e4m3fnEPKT_PKfl to i8*), i64 %30, i32 %32, i64 %36, i32 %38, i8** %15, i64 %25, %struct.CUstream_st* %39)
  br label %41

41:                                               ; preds = %4
  ret void
}

; Function Attrs: noinline norecurse optnone uwtable
define linkonce_odr dso_local void @_ZN4vllm38__device_stub__scaled_fp8_quant_kernelIfEEvPN3c1013Float8_e4m3fnEPKT_PKfl(%"class.std::ios_base::Init"* noalias %0, float* noalias %1, float* noalias %2, i64 %3) #11 {
  %5 = alloca %"class.std::ios_base::Init"*, align 8
  %6 = alloca float*, align 8
  %7 = alloca float*, align 8
  %8 = alloca i64, align 8
  %9 = alloca %struct.dim3, align 8
  %10 = alloca %struct.dim3, align 8
  %11 = alloca i64, align 8
  %12 = alloca i8*, align 8
  %13 = alloca { i64, i32 }, align 8
  %14 = alloca { i64, i32 }, align 8
  store %"class.std::ios_base::Init"* %0, %"class.std::ios_base::Init"** %5, align 8
  store float* %1, float** %6, align 8
  store float* %2, float** %7, align 8
  store i64 %3, i64* %8, align 8
  %15 = alloca i8*, i64 4, align 16
  %16 = bitcast %"class.std::ios_base::Init"** %5 to i8*
  %17 = getelementptr i8*, i8** %15, i32 0
  store i8* %16, i8** %17, align 8
  %18 = bitcast float** %6 to i8*
  %19 = getelementptr i8*, i8** %15, i32 1
  store i8* %18, i8** %19, align 8
  %20 = bitcast float** %7 to i8*
  %21 = getelementptr i8*, i8** %15, i32 2
  store i8* %20, i8** %21, align 8
  %22 = bitcast i64* %8 to i8*
  %23 = getelementptr i8*, i8** %15, i32 3
  store i8* %22, i8** %23, align 8
  %24 = call i32 @__cudaPopCallConfiguration(%struct.dim3* %9, %struct.dim3* %10, i64* %11, i8** %12)
  %25 = load i64, i64* %11, align 8
  %26 = load i8*, i8** %12, align 8
  %27 = bitcast { i64, i32 }* %13 to i8*
  %28 = bitcast %struct.dim3* %9 to i8*
  call void @llvm.memcpy.p0i8.p0i8.i64(i8* align 8 %27, i8* align 8 %28, i64 12, i1 false)
  %29 = getelementptr inbounds { i64, i32 }, { i64, i32 }* %13, i32 0, i32 0
  %30 = load i64, i64* %29, align 8
  %31 = getelementptr inbounds { i64, i32 }, { i64, i32 }* %13, i32 0, i32 1
  %32 = load i32, i32* %31, align 8
  %33 = bitcast { i64, i32 }* %14 to i8*
  %34 = bitcast %struct.dim3* %10 to i8*
  call void @llvm.memcpy.p0i8.p0i8.i64(i8* align 8 %33, i8* align 8 %34, i64 12, i1 false)
  %35 = getelementptr inbounds { i64, i32 }, { i64, i32 }* %14, i32 0, i32 0
  %36 = load i64, i64* %35, align 8
  %37 = getelementptr inbounds { i64, i32 }, { i64, i32 }* %14, i32 0, i32 1
  %38 = load i32, i32* %37, align 8
  %39 = bitcast i8* %26 to %struct.CUstream_st*
  %40 = call i32 @cudaLaunchKernel(i8* bitcast (void (%"class.std::ios_base::Init"*, float*, float*, i64)* @_ZN4vllm38__device_stub__scaled_fp8_quant_kernelIfEEvPN3c1013Float8_e4m3fnEPKT_PKfl to i8*), i64 %30, i32 %32, i64 %36, i32 %38, i8** %15, i64 %25, %struct.CUstream_st* %39)
  br label %41

41:                                               ; preds = %4
  ret void
}

; Function Attrs: mustprogress noinline nounwind optnone uwtable
define linkonce_odr dso_local %"struct.c10::TensorImpl"* @_ZNK3c1013intrusive_ptrINS_10TensorImplENS_19UndefinedTensorImplEEptEv(%"class.c10::intrusive_ptr"* nonnull align 8 dereferenceable(8) %0) #8 comdat align 2 {
  %2 = alloca %"class.c10::intrusive_ptr"*, align 8
  store %"class.c10::intrusive_ptr"* %0, %"class.c10::intrusive_ptr"** %2, align 8
  %3 = load %"class.c10::intrusive_ptr"*, %"class.c10::intrusive_ptr"** %2, align 8
  %4 = getelementptr inbounds %"class.c10::intrusive_ptr", %"class.c10::intrusive_ptr"* %3, i32 0, i32 0
  %5 = load %"struct.c10::TensorImpl"*, %"struct.c10::TensorImpl"** %4, align 8
  ret %"struct.c10::TensorImpl"* %5
}

; Function Attrs: mustprogress noinline nounwind optnone uwtable
define linkonce_odr dso_local i16 @_ZNK3c1010TensorImpl5dtypeEv(%"struct.c10::TensorImpl"* nonnull align 8 dereferenceable(184) %0) #8 comdat align 2 {
  %2 = alloca %"class.caffe2::TypeMeta", align 2
  %3 = alloca %"struct.c10::TensorImpl"*, align 8
  store %"struct.c10::TensorImpl"* %0, %"struct.c10::TensorImpl"** %3, align 8
  %4 = load %"struct.c10::TensorImpl"*, %"struct.c10::TensorImpl"** %3, align 8
  %5 = getelementptr inbounds %"struct.c10::TensorImpl", %"struct.c10::TensorImpl"* %4, i32 0, i32 9
  %6 = bitcast %"class.caffe2::TypeMeta"* %2 to i8*
  %7 = bitcast %"class.caffe2::TypeMeta"* %5 to i8*
  call void @llvm.memcpy.p0i8.p0i8.i64(i8* align 2 %6, i8* align 8 %7, i64 2, i1 false)
  %8 = getelementptr inbounds %"class.caffe2::TypeMeta", %"class.caffe2::TypeMeta"* %2, i32 0, i32 0
  %9 = load i16, i16* %8, align 2
  ret i16 %9
}

; Function Attrs: mustprogress noinline optnone uwtable
define linkonce_odr dso_local signext i8 @_ZN3c1020typeMetaToScalarTypeEN6caffe28TypeMetaE(i16 %0) #4 comdat {
  %2 = alloca %"class.caffe2::TypeMeta", align 2
  %3 = getelementptr inbounds %"class.caffe2::TypeMeta", %"class.caffe2::TypeMeta"* %2, i32 0, i32 0
  store i16 %0, i16* %3, align 2
  %4 = call signext i8 @_ZN6caffe28TypeMeta12toScalarTypeEv(%"class.caffe2::TypeMeta"* nonnull align 2 dereferenceable(2) %2)
  ret i8 %4
}

; Function Attrs: mustprogress noinline optnone uwtable
define linkonce_odr dso_local signext i8 @_ZN6caffe28TypeMeta12toScalarTypeEv(%"class.caffe2::TypeMeta"* nonnull align 2 dereferenceable(2) %0) #4 comdat align 2 {
  %2 = alloca %"class.caffe2::TypeMeta"*, align 8
  %3 = alloca %"class.caffe2::TypeMeta", align 2
  store %"class.caffe2::TypeMeta"* %0, %"class.caffe2::TypeMeta"** %2, align 8
  %4 = load %"class.caffe2::TypeMeta"*, %"class.caffe2::TypeMeta"** %2, align 8
  %5 = call zeroext i1 @_ZNK6caffe28TypeMeta12isScalarTypeEv(%"class.caffe2::TypeMeta"* nonnull align 2 dereferenceable(2) %4) #3
  br i1 %5, label %6, label %10

6:                                                ; preds = %1
  %7 = getelementptr inbounds %"class.caffe2::TypeMeta", %"class.caffe2::TypeMeta"* %4, i32 0, i32 0
  %8 = load i16, i16* %7, align 2
  %9 = trunc i16 %8 to i8
  ret i8 %9

10:                                               ; preds = %1
  %11 = bitcast %"class.caffe2::TypeMeta"* %3 to i8*
  %12 = bitcast %"class.caffe2::TypeMeta"* %4 to i8*
  call void @llvm.memcpy.p0i8.p0i8.i64(i8* align 2 %11, i8* align 2 %12, i64 2, i1 false)
  %13 = getelementptr inbounds %"class.caffe2::TypeMeta", %"class.caffe2::TypeMeta"* %3, i32 0, i32 0
  %14 = load i16, i16* %13, align 2
  call void @_ZN6caffe28TypeMeta26error_unsupported_typemetaES0_(i16 %14) #25
  unreachable
}

; Function Attrs: mustprogress noinline nounwind optnone uwtable
define linkonce_odr dso_local zeroext i1 @_ZNK6caffe28TypeMeta12isScalarTypeEv(%"class.caffe2::TypeMeta"* nonnull align 2 dereferenceable(2) %0) #8 comdat align 2 {
  %2 = alloca %"class.caffe2::TypeMeta"*, align 8
  store %"class.caffe2::TypeMeta"* %0, %"class.caffe2::TypeMeta"** %2, align 8
  %3 = load %"class.caffe2::TypeMeta"*, %"class.caffe2::TypeMeta"** %2, align 8
  %4 = getelementptr inbounds %"class.caffe2::TypeMeta", %"class.caffe2::TypeMeta"* %3, i32 0, i32 0
  %5 = load i16, i16* %4, align 2
  %6 = zext i16 %5 to i32
  %7 = icmp slt i32 %6, 46
  ret i1 %7
}

; Function Attrs: noreturn
declare dso_local void @_ZN6caffe28TypeMeta26error_unsupported_typemetaES0_(i16) #10

declare dso_local %struct.CUstream_st* @_ZNK3c104cuda10CUDAStream6streamEv(%"class.c10::cuda::CUDAStream"* nonnull align 8 dereferenceable(16)) #1

; Function Attrs: noinline optnone uwtable
define linkonce_odr dso_local void @_ZN3c104impl25InlineOptionalDeviceGuardINS_4cuda4impl13CUDAGuardImplEEC2ESt8optionalINS_6DeviceEE(%"class.c10::impl::InlineOptionalDeviceGuard"* nonnull align 8 dereferenceable(24) %0, i24 %1) unnamed_addr #7 comdat align 2 personality i8* bitcast (i32 (...)* @__gxx_personality_v0 to i8*) {
  %3 = alloca %"class.std::optional.53", align 1
  %4 = alloca i24, align 4
  %5 = alloca %"class.c10::impl::InlineOptionalDeviceGuard"*, align 8
  %6 = alloca i8*, align 8
  %7 = alloca i32, align 4
  %8 = getelementptr inbounds %"class.std::optional.53", %"class.std::optional.53"* %3, i32 0, i32 0
  %9 = getelementptr inbounds %"struct.std::_Optional_base.54", %"struct.std::_Optional_base.54"* %8, i32 0, i32 0
  %10 = getelementptr inbounds %"struct.std::_Optional_payload.56", %"struct.std::_Optional_payload.56"* %9, i32 0, i32 0
  store i24 %1, i24* %4, align 4
  %11 = bitcast %"struct.std::_Optional_payload_base.57"* %10 to i8*
  %12 = bitcast i24* %4 to i8*
  call void @llvm.memcpy.p0i8.p0i8.i64(i8* align 1 %11, i8* align 4 %12, i64 3, i1 false)
  store %"class.c10::impl::InlineOptionalDeviceGuard"* %0, %"class.c10::impl::InlineOptionalDeviceGuard"** %5, align 8
  %13 = load %"class.c10::impl::InlineOptionalDeviceGuard"*, %"class.c10::impl::InlineOptionalDeviceGuard"** %5, align 8
  %14 = getelementptr inbounds %"class.c10::impl::InlineOptionalDeviceGuard", %"class.c10::impl::InlineOptionalDeviceGuard"* %13, i32 0, i32 0
  call void @_ZNSt8optionalIN3c104impl17InlineDeviceGuardINS0_4cuda4impl13CUDAGuardImplEEEEC2Ev(%"class.std::optional.59"* nonnull align 8 dereferenceable(24) %14) #3
  %15 = call zeroext i1 @_ZNKSt8optionalIN3c106DeviceEE9has_valueEv(%"class.std::optional.53"* nonnull align 1 dereferenceable(3) %3) #3
  br i1 %15, label %16, label %26

16:                                               ; preds = %2
  %17 = getelementptr inbounds %"class.c10::impl::InlineOptionalDeviceGuard", %"class.c10::impl::InlineOptionalDeviceGuard"* %13, i32 0, i32 0
  %18 = invoke nonnull align 1 dereferenceable(2) %"struct.c10::Device"* @_ZNRSt8optionalIN3c106DeviceEE5valueEv(%"class.std::optional.53"* nonnull align 1 dereferenceable(3) %3)
          to label %19 unwind label %22

19:                                               ; preds = %16
  %20 = invoke nonnull align 8 dereferenceable(12) %"class.c10::impl::InlineDeviceGuard"* @_ZNSt8optionalIN3c104impl17InlineDeviceGuardINS0_4cuda4impl13CUDAGuardImplEEEE7emplaceIJRNS0_6DeviceEEEENSt9enable_ifIX18is_constructible_vIS6_DpT_EERS6_E4typeEDpOSC_(%"class.std::optional.59"* nonnull align 8 dereferenceable(24) %17, %"struct.c10::Device"* nonnull align 1 dereferenceable(2) %18)
          to label %21 unwind label %22

21:                                               ; preds = %19
  br label %26

22:                                               ; preds = %19, %16
  %23 = landingpad { i8*, i32 }
          cleanup
  %24 = extractvalue { i8*, i32 } %23, 0
  store i8* %24, i8** %6, align 8
  %25 = extractvalue { i8*, i32 } %23, 1
  store i32 %25, i32* %7, align 4
  call void @_ZNSt8optionalIN3c104impl17InlineDeviceGuardINS0_4cuda4impl13CUDAGuardImplEEEED2Ev(%"class.std::optional.59"* nonnull align 8 dereferenceable(24) %14) #3
  br label %27

26:                                               ; preds = %21, %2
  ret void

27:                                               ; preds = %22
  %28 = load i8*, i8** %6, align 8
  %29 = load i32, i32* %7, align 4
  %30 = insertvalue { i8*, i32 } undef, i8* %28, 0
  %31 = insertvalue { i8*, i32 } %30, i32 %29, 1
  resume { i8*, i32 } %31
}

; Function Attrs: noinline nounwind optnone uwtable
define linkonce_odr dso_local void @_ZNSt8optionalIN3c104impl17InlineDeviceGuardINS0_4cuda4impl13CUDAGuardImplEEEEC2Ev(%"class.std::optional.59"* nonnull align 8 dereferenceable(24) %0) unnamed_addr #5 comdat align 2 {
  %2 = alloca %"class.std::optional.59"*, align 8
  store %"class.std::optional.59"* %0, %"class.std::optional.59"** %2, align 8
  %3 = load %"class.std::optional.59"*, %"class.std::optional.59"** %2, align 8
  %4 = bitcast %"class.std::optional.59"* %3 to %"struct.std::_Optional_base.60"*
  call void @_ZNSt14_Optional_baseIN3c104impl17InlineDeviceGuardINS0_4cuda4impl13CUDAGuardImplEEELb0ELb0EEC2Ev(%"struct.std::_Optional_base.60"* nonnull align 8 dereferenceable(24) %4) #3
  %5 = bitcast %"class.std::optional.59"* %3 to %"class.std::ios_base::Init"*
  ret void
}

; Function Attrs: mustprogress noinline nounwind optnone uwtable
define linkonce_odr dso_local zeroext i1 @_ZNKSt8optionalIN3c106DeviceEE9has_valueEv(%"class.std::optional.53"* nonnull align 1 dereferenceable(3) %0) #8 comdat align 2 {
  %2 = alloca %"class.std::optional.53"*, align 8
  store %"class.std::optional.53"* %0, %"class.std::optional.53"** %2, align 8
  %3 = load %"class.std::optional.53"*, %"class.std::optional.53"** %2, align 8
  %4 = bitcast %"class.std::optional.53"* %3 to %"class.std::ios_base::Init"*
  %5 = call zeroext i1 @_ZNKSt19_Optional_base_implIN3c106DeviceESt14_Optional_baseIS1_Lb1ELb1EEE13_M_is_engagedEv(%"class.std::ios_base::Init"* nonnull align 1 dereferenceable(1) %4) #3
  ret i1 %5
}

; Function Attrs: mustprogress noinline optnone uwtable
define linkonce_odr dso_local nonnull align 1 dereferenceable(2) %"struct.c10::Device"* @_ZNRSt8optionalIN3c106DeviceEE5valueEv(%"class.std::optional.53"* nonnull align 1 dereferenceable(3) %0) #4 comdat align 2 {
  %2 = alloca %"class.std::optional.53"*, align 8
  store %"class.std::optional.53"* %0, %"class.std::optional.53"** %2, align 8
  %3 = load %"class.std::optional.53"*, %"class.std::optional.53"** %2, align 8
  %4 = bitcast %"class.std::optional.53"* %3 to %"class.std::ios_base::Init"*
  %5 = call zeroext i1 @_ZNKSt19_Optional_base_implIN3c106DeviceESt14_Optional_baseIS1_Lb1ELb1EEE13_M_is_engagedEv(%"class.std::ios_base::Init"* nonnull align 1 dereferenceable(1) %4) #3
  br i1 %5, label %6, label %9

6:                                                ; preds = %1
  %7 = bitcast %"class.std::optional.53"* %3 to %"class.std::ios_base::Init"*
  %8 = call nonnull align 1 dereferenceable(2) %"struct.c10::Device"* @_ZNSt19_Optional_base_implIN3c106DeviceESt14_Optional_baseIS1_Lb1ELb1EEE6_M_getEv(%"class.std::ios_base::Init"* nonnull align 1 dereferenceable(1) %7) #3
  ret %"struct.c10::Device"* %8

9:                                                ; preds = %1
  call void @_ZSt27__throw_bad_optional_accessv() #25
  unreachable
}

; Function Attrs: mustprogress noinline optnone uwtable
define linkonce_odr dso_local nonnull align 8 dereferenceable(12) %"class.c10::impl::InlineDeviceGuard"* @_ZNSt8optionalIN3c104impl17InlineDeviceGuardINS0_4cuda4impl13CUDAGuardImplEEEE7emplaceIJRNS0_6DeviceEEEENSt9enable_ifIX18is_constructible_vIS6_DpT_EERS6_E4typeEDpOSC_(%"class.std::optional.59"* nonnull align 8 dereferenceable(24) %0, %"struct.c10::Device"* nonnull align 1 dereferenceable(2) %1) #4 comdat align 2 {
  %3 = alloca %"class.std::optional.59"*, align 8
  %4 = alloca %"struct.c10::Device"*, align 8
  store %"class.std::optional.59"* %0, %"class.std::optional.59"** %3, align 8
  store %"struct.c10::Device"* %1, %"struct.c10::Device"** %4, align 8
  %5 = load %"class.std::optional.59"*, %"class.std::optional.59"** %3, align 8
  %6 = bitcast %"class.std::optional.59"* %5 to %"class.std::ios_base::Init"*
  call void @_ZNSt19_Optional_base_implIN3c104impl17InlineDeviceGuardINS0_4cuda4impl13CUDAGuardImplEEESt14_Optional_baseIS6_Lb0ELb0EEE8_M_resetEv(%"class.std::ios_base::Init"* nonnull align 1 dereferenceable(1) %6) #3
  %7 = bitcast %"class.std::optional.59"* %5 to %"class.std::ios_base::Init"*
  %8 = load %"struct.c10::Device"*, %"struct.c10::Device"** %4, align 8
  %9 = call nonnull align 1 dereferenceable(2) %"struct.c10::Device"* @_ZSt7forwardIRN3c106DeviceEEOT_RNSt16remove_referenceIS3_E4typeE(%"struct.c10::Device"* nonnull align 1 dereferenceable(2) %8) #3
  call void @_ZNSt19_Optional_base_implIN3c104impl17InlineDeviceGuardINS0_4cuda4impl13CUDAGuardImplEEESt14_Optional_baseIS6_Lb0ELb0EEE12_M_constructIJRNS0_6DeviceEEEEvDpOT_(%"class.std::ios_base::Init"* nonnull align 1 dereferenceable(1) %7, %"struct.c10::Device"* nonnull align 1 dereferenceable(2) %9)
  %10 = bitcast %"class.std::optional.59"* %5 to %"class.std::ios_base::Init"*
  %11 = call nonnull align 8 dereferenceable(12) %"class.c10::impl::InlineDeviceGuard"* @_ZNSt19_Optional_base_implIN3c104impl17InlineDeviceGuardINS0_4cuda4impl13CUDAGuardImplEEESt14_Optional_baseIS6_Lb0ELb0EEE6_M_getEv(%"class.std::ios_base::Init"* nonnull align 1 dereferenceable(1) %10) #3
  ret %"class.c10::impl::InlineDeviceGuard"* %11
}

; Function Attrs: mustprogress noinline nounwind optnone uwtable
define linkonce_odr dso_local void @_ZNSt19_Optional_base_implIN3c104impl17InlineDeviceGuardINS0_4cuda4impl13CUDAGuardImplEEESt14_Optional_baseIS6_Lb0ELb0EEE8_M_resetEv(%"class.std::ios_base::Init"* nonnull align 1 dereferenceable(1) %0) #8 comdat align 2 {
  %2 = alloca %"class.std::ios_base::Init"*, align 8
  store %"class.std::ios_base::Init"* %0, %"class.std::ios_base::Init"** %2, align 8
  %3 = load %"class.std::ios_base::Init"*, %"class.std::ios_base::Init"** %2, align 8
  %4 = bitcast %"class.std::ios_base::Init"* %3 to %"struct.std::_Optional_base.60"*
  %5 = getelementptr inbounds %"struct.std::_Optional_base.60", %"struct.std::_Optional_base.60"* %4, i32 0, i32 0
  %6 = bitcast %"struct.std::_Optional_payload.62"* %5 to %"struct.std::_Optional_payload_base.64"*
  call void @_ZNSt22_Optional_payload_baseIN3c104impl17InlineDeviceGuardINS0_4cuda4impl13CUDAGuardImplEEEE8_M_resetEv(%"struct.std::_Optional_payload_base.64"* nonnull align 8 dereferenceable(17) %6) #3
  ret void
}

; Function Attrs: mustprogress noinline nounwind optnone uwtable
define linkonce_odr dso_local nonnull align 1 dereferenceable(2) %"struct.c10::Device"* @_ZSt7forwardIRN3c106DeviceEEOT_RNSt16remove_referenceIS3_E4typeE(%"struct.c10::Device"* nonnull align 1 dereferenceable(2) %0) #8 comdat {
  %2 = alloca %"struct.c10::Device"*, align 8
  store %"struct.c10::Device"* %0, %"struct.c10::Device"** %2, align 8
  %3 = load %"struct.c10::Device"*, %"struct.c10::Device"** %2, align 8
  ret %"struct.c10::Device"* %3
}

; Function Attrs: mustprogress noinline optnone uwtable
define linkonce_odr dso_local void @_ZNSt19_Optional_base_implIN3c104impl17InlineDeviceGuardINS0_4cuda4impl13CUDAGuardImplEEESt14_Optional_baseIS6_Lb0ELb0EEE12_M_constructIJRNS0_6DeviceEEEEvDpOT_(%"class.std::ios_base::Init"* nonnull align 1 dereferenceable(1) %0, %"struct.c10::Device"* nonnull align 1 dereferenceable(2) %1) #4 comdat align 2 {
  %3 = alloca %"class.std::ios_base::Init"*, align 8
  %4 = alloca %"struct.c10::Device"*, align 8
  store %"class.std::ios_base::Init"* %0, %"class.std::ios_base::Init"** %3, align 8
  store %"struct.c10::Device"* %1, %"struct.c10::Device"** %4, align 8
  %5 = load %"class.std::ios_base::Init"*, %"class.std::ios_base::Init"** %3, align 8
  %6 = bitcast %"class.std::ios_base::Init"* %5 to %"struct.std::_Optional_base.60"*
  %7 = getelementptr inbounds %"struct.std::_Optional_base.60", %"struct.std::_Optional_base.60"* %6, i32 0, i32 0
  %8 = bitcast %"struct.std::_Optional_payload.62"* %7 to %"struct.std::_Optional_payload_base.64"*
  %9 = load %"struct.c10::Device"*, %"struct.c10::Device"** %4, align 8
  %10 = call nonnull align 1 dereferenceable(2) %"struct.c10::Device"* @_ZSt7forwardIRN3c106DeviceEEOT_RNSt16remove_referenceIS3_E4typeE(%"struct.c10::Device"* nonnull align 1 dereferenceable(2) %9) #3
  call void @_ZNSt22_Optional_payload_baseIN3c104impl17InlineDeviceGuardINS0_4cuda4impl13CUDAGuardImplEEEE12_M_constructIJRNS0_6DeviceEEEEvDpOT_(%"struct.std::_Optional_payload_base.64"* nonnull align 8 dereferenceable(17) %8, %"struct.c10::Device"* nonnull align 1 dereferenceable(2) %10)
  ret void
}

; Function Attrs: mustprogress noinline nounwind optnone uwtable
define linkonce_odr dso_local nonnull align 8 dereferenceable(12) %"class.c10::impl::InlineDeviceGuard"* @_ZNSt19_Optional_base_implIN3c104impl17InlineDeviceGuardINS0_4cuda4impl13CUDAGuardImplEEESt14_Optional_baseIS6_Lb0ELb0EEE6_M_getEv(%"class.std::ios_base::Init"* nonnull align 1 dereferenceable(1) %0) #8 comdat align 2 {
  %2 = alloca %"class.std::ios_base::Init"*, align 8
  store %"class.std::ios_base::Init"* %0, %"class.std::ios_base::Init"** %2, align 8
  %3 = load %"class.std::ios_base::Init"*, %"class.std::ios_base::Init"** %2, align 8
  br label %4

4:                                                ; preds = %1
  br label %5

5:                                                ; preds = %4
  br label %6

6:                                                ; preds = %5
  %7 = bitcast %"class.std::ios_base::Init"* %3 to %"struct.std::_Optional_base.60"*
  %8 = getelementptr inbounds %"struct.std::_Optional_base.60", %"struct.std::_Optional_base.60"* %7, i32 0, i32 0
  %9 = bitcast %"struct.std::_Optional_payload.62"* %8 to %"struct.std::_Optional_payload_base.64"*
  %10 = call nonnull align 8 dereferenceable(12) %"class.c10::impl::InlineDeviceGuard"* @_ZNSt22_Optional_payload_baseIN3c104impl17InlineDeviceGuardINS0_4cuda4impl13CUDAGuardImplEEEE6_M_getEv(%"struct.std::_Optional_payload_base.64"* nonnull align 8 dereferenceable(17) %9) #3
  ret %"class.c10::impl::InlineDeviceGuard"* %10
}

; Function Attrs: mustprogress noinline nounwind optnone uwtable
define linkonce_odr dso_local nonnull align 8 dereferenceable(12) %"class.c10::impl::InlineDeviceGuard"* @_ZNSt22_Optional_payload_baseIN3c104impl17InlineDeviceGuardINS0_4cuda4impl13CUDAGuardImplEEEE6_M_getEv(%"struct.std::_Optional_payload_base.64"* nonnull align 8 dereferenceable(17) %0) #8 comdat align 2 {
  %2 = alloca %"struct.std::_Optional_payload_base.64"*, align 8
  store %"struct.std::_Optional_payload_base.64"* %0, %"struct.std::_Optional_payload_base.64"** %2, align 8
  %3 = load %"struct.std::_Optional_payload_base.64"*, %"struct.std::_Optional_payload_base.64"** %2, align 8
  %4 = getelementptr inbounds %"struct.std::_Optional_payload_base.64", %"struct.std::_Optional_payload_base.64"* %3, i32 0, i32 0
  %5 = bitcast %"union.std::_Optional_payload_base<c10::impl::InlineDeviceGuard<c10::cuda::impl::CUDAGuardImpl>>::_Storage"* %4 to %"class.c10::impl::InlineDeviceGuard"*
  ret %"class.c10::impl::InlineDeviceGuard"* %5
}

; Function Attrs: mustprogress noinline optnone uwtable
define linkonce_odr dso_local void @_ZNSt22_Optional_payload_baseIN3c104impl17InlineDeviceGuardINS0_4cuda4impl13CUDAGuardImplEEEE12_M_constructIJRNS0_6DeviceEEEEvDpOT_(%"struct.std::_Optional_payload_base.64"* nonnull align 8 dereferenceable(17) %0, %"struct.c10::Device"* nonnull align 1 dereferenceable(2) %1) #4 comdat align 2 {
  %3 = alloca %"struct.std::_Optional_payload_base.64"*, align 8
  %4 = alloca %"struct.c10::Device"*, align 8
  store %"struct.std::_Optional_payload_base.64"* %0, %"struct.std::_Optional_payload_base.64"** %3, align 8
  store %"struct.c10::Device"* %1, %"struct.c10::Device"** %4, align 8
  %5 = load %"struct.std::_Optional_payload_base.64"*, %"struct.std::_Optional_payload_base.64"** %3, align 8
  %6 = getelementptr inbounds %"struct.std::_Optional_payload_base.64", %"struct.std::_Optional_payload_base.64"* %5, i32 0, i32 0
  %7 = bitcast %"union.std::_Optional_payload_base<c10::impl::InlineDeviceGuard<c10::cuda::impl::CUDAGuardImpl>>::_Storage"* %6 to %"class.c10::impl::InlineDeviceGuard"*
  %8 = call %"class.c10::impl::InlineDeviceGuard"* @_ZSt11__addressofIN3c104impl17InlineDeviceGuardINS0_4cuda4impl13CUDAGuardImplEEEEPT_RS7_(%"class.c10::impl::InlineDeviceGuard"* nonnull align 8 dereferenceable(12) %7) #3
  %9 = load %"struct.c10::Device"*, %"struct.c10::Device"** %4, align 8
  %10 = call nonnull align 1 dereferenceable(2) %"struct.c10::Device"* @_ZSt7forwardIRN3c106DeviceEEOT_RNSt16remove_referenceIS3_E4typeE(%"struct.c10::Device"* nonnull align 1 dereferenceable(2) %9) #3
  call void @_ZSt10_ConstructIN3c104impl17InlineDeviceGuardINS0_4cuda4impl13CUDAGuardImplEEEJRNS0_6DeviceEEEvPT_DpOT0_(%"class.c10::impl::InlineDeviceGuard"* %8, %"struct.c10::Device"* nonnull align 1 dereferenceable(2) %10)
  %11 = getelementptr inbounds %"struct.std::_Optional_payload_base.64", %"struct.std::_Optional_payload_base.64"* %5, i32 0, i32 1
  store i8 1, i8* %11, align 8
  ret void
}

; Function Attrs: mustprogress noinline nounwind optnone uwtable
define linkonce_odr dso_local %"class.c10::impl::InlineDeviceGuard"* @_ZSt11__addressofIN3c104impl17InlineDeviceGuardINS0_4cuda4impl13CUDAGuardImplEEEEPT_RS7_(%"class.c10::impl::InlineDeviceGuard"* nonnull align 8 dereferenceable(12) %0) #8 comdat {
  %2 = alloca %"class.c10::impl::InlineDeviceGuard"*, align 8
  store %"class.c10::impl::InlineDeviceGuard"* %0, %"class.c10::impl::InlineDeviceGuard"** %2, align 8
  %3 = load %"class.c10::impl::InlineDeviceGuard"*, %"class.c10::impl::InlineDeviceGuard"** %2, align 8
  ret %"class.c10::impl::InlineDeviceGuard"* %3
}

; Function Attrs: mustprogress noinline optnone uwtable
define linkonce_odr dso_local void @_ZSt10_ConstructIN3c104impl17InlineDeviceGuardINS0_4cuda4impl13CUDAGuardImplEEEJRNS0_6DeviceEEEvPT_DpOT0_(%"class.c10::impl::InlineDeviceGuard"* %0, %"struct.c10::Device"* nonnull align 1 dereferenceable(2) %1) #4 comdat {
  %3 = alloca %"class.c10::impl::InlineDeviceGuard"*, align 8
  %4 = alloca %"struct.c10::Device"*, align 8
  %5 = alloca %"struct.c10::Device", align 1
  store %"class.c10::impl::InlineDeviceGuard"* %0, %"class.c10::impl::InlineDeviceGuard"** %3, align 8
  store %"struct.c10::Device"* %1, %"struct.c10::Device"** %4, align 8
  %6 = load %"class.c10::impl::InlineDeviceGuard"*, %"class.c10::impl::InlineDeviceGuard"** %3, align 8
  %7 = bitcast %"class.c10::impl::InlineDeviceGuard"* %6 to i8*
  %8 = bitcast i8* %7 to %"class.c10::impl::InlineDeviceGuard"*
  %9 = load %"struct.c10::Device"*, %"struct.c10::Device"** %4, align 8
  %10 = call nonnull align 1 dereferenceable(2) %"struct.c10::Device"* @_ZSt7forwardIRN3c106DeviceEEOT_RNSt16remove_referenceIS3_E4typeE(%"struct.c10::Device"* nonnull align 1 dereferenceable(2) %9) #3
  %11 = bitcast %"struct.c10::Device"* %5 to i8*
  %12 = bitcast %"struct.c10::Device"* %10 to i8*
  call void @llvm.memcpy.p0i8.p0i8.i64(i8* align 1 %11, i8* align 1 %12, i64 2, i1 false)
  %13 = bitcast %"struct.c10::Device"* %5 to i16*
  %14 = load i16, i16* %13, align 1
  call void @_ZN3c104impl17InlineDeviceGuardINS_4cuda4impl13CUDAGuardImplEEC2ENS_6DeviceE(%"class.c10::impl::InlineDeviceGuard"* nonnull align 8 dereferenceable(12) %8, i16 %14)
  ret void
}

; Function Attrs: noinline optnone uwtable
define linkonce_odr dso_local void @_ZN3c104impl17InlineDeviceGuardINS_4cuda4impl13CUDAGuardImplEEC2ENS_6DeviceE(%"class.c10::impl::InlineDeviceGuard"* nonnull align 8 dereferenceable(12) %0, i16 %1) unnamed_addr #7 comdat align 2 personality i8* bitcast (i32 (...)* @__gxx_personality_v0 to i8*) {
  %3 = alloca %"struct.c10::Device", align 1
  %4 = alloca %"class.c10::impl::InlineDeviceGuard"*, align 8
  %5 = alloca i8*, align 8
  %6 = alloca i32, align 4
  %7 = alloca %"struct.c10::Device", align 1
  %8 = bitcast %"struct.c10::Device"* %3 to i16*
  store i16 %1, i16* %8, align 1
  store %"class.c10::impl::InlineDeviceGuard"* %0, %"class.c10::impl::InlineDeviceGuard"** %4, align 8
  %9 = load %"class.c10::impl::InlineDeviceGuard"*, %"class.c10::impl::InlineDeviceGuard"** %4, align 8
  %10 = getelementptr inbounds %"class.c10::impl::InlineDeviceGuard", %"class.c10::impl::InlineDeviceGuard"* %9, i32 0, i32 0
  %11 = call signext i8 @_ZNK3c106Device4typeEv(%"struct.c10::Device"* nonnull align 1 dereferenceable(2) %3) #3
  call void @_ZN3c104cuda4impl13CUDAGuardImplC2ENS_10DeviceTypeE(%"struct.c10::cuda::impl::CUDAGuardImpl"* nonnull align 8 dereferenceable(8) %10, i8 signext %11)
  %12 = getelementptr inbounds %"class.c10::impl::InlineDeviceGuard", %"class.c10::impl::InlineDeviceGuard"* %9, i32 0, i32 1
  %13 = call signext i8 @_ZNK3c106Device5indexEv(%"struct.c10::Device"* nonnull align 1 dereferenceable(2) %3) #3
  %14 = sext i8 %13 to i32
  %15 = icmp eq i32 %14, -1
  br i1 %15, label %16, label %21

16:                                               ; preds = %2
  %17 = getelementptr inbounds %"class.c10::impl::InlineDeviceGuard", %"class.c10::impl::InlineDeviceGuard"* %9, i32 0, i32 0
  %18 = invoke i16 @_ZNK3c104cuda4impl13CUDAGuardImpl9getDeviceEv(%"struct.c10::cuda::impl::CUDAGuardImpl"* nonnull align 8 dereferenceable(8) %17)
          to label %19 unwind label %42

19:                                               ; preds = %16
  %20 = bitcast %"struct.c10::Device"* %12 to i16*
  store i16 %18, i16* %20, align 8
  br label %30

21:                                               ; preds = %2
  %22 = getelementptr inbounds %"class.c10::impl::InlineDeviceGuard", %"class.c10::impl::InlineDeviceGuard"* %9, i32 0, i32 0
  %23 = bitcast %"struct.c10::Device"* %7 to i8*
  %24 = bitcast %"struct.c10::Device"* %3 to i8*
  call void @llvm.memcpy.p0i8.p0i8.i64(i8* align 1 %23, i8* align 1 %24, i64 2, i1 false)
  %25 = bitcast %"struct.c10::Device"* %7 to i16*
  %26 = load i16, i16* %25, align 1
  %27 = invoke i16 @_ZNK3c104cuda4impl13CUDAGuardImpl14exchangeDeviceENS_6DeviceE(%"struct.c10::cuda::impl::CUDAGuardImpl"* nonnull align 8 dereferenceable(8) %22, i16 %26)
          to label %28 unwind label %42

28:                                               ; preds = %21
  %29 = bitcast %"struct.c10::Device"* %12 to i16*
  store i16 %27, i16* %29, align 8
  br label %30

30:                                               ; preds = %28, %19
  %31 = getelementptr inbounds %"class.c10::impl::InlineDeviceGuard", %"class.c10::impl::InlineDeviceGuard"* %9, i32 0, i32 2
  %32 = call signext i8 @_ZNK3c106Device5indexEv(%"struct.c10::Device"* nonnull align 1 dereferenceable(2) %3) #3
  %33 = sext i8 %32 to i32
  %34 = icmp eq i32 %33, -1
  br i1 %34, label %35, label %37

35:                                               ; preds = %30
  %36 = getelementptr inbounds %"class.c10::impl::InlineDeviceGuard", %"class.c10::impl::InlineDeviceGuard"* %9, i32 0, i32 1
  br label %38

37:                                               ; preds = %30
  br label %38

38:                                               ; preds = %37, %35
  %39 = phi %"struct.c10::Device"* [ %36, %35 ], [ %3, %37 ]
  %40 = bitcast %"struct.c10::Device"* %31 to i8*
  %41 = bitcast %"struct.c10::Device"* %39 to i8*
  call void @llvm.memcpy.p0i8.p0i8.i64(i8* align 2 %40, i8* align 1 %41, i64 2, i1 false)
  ret void

42:                                               ; preds = %21, %16
  %43 = landingpad { i8*, i32 }
          cleanup
  %44 = extractvalue { i8*, i32 } %43, 0
  store i8* %44, i8** %5, align 8
  %45 = extractvalue { i8*, i32 } %43, 1
  store i32 %45, i32* %6, align 4
  call void @_ZN3c104cuda4impl13CUDAGuardImplD2Ev(%"struct.c10::cuda::impl::CUDAGuardImpl"* nonnull align 8 dereferenceable(8) %10) #3
  br label %46

46:                                               ; preds = %42
  %47 = load i8*, i8** %5, align 8
  %48 = load i32, i32* %6, align 4
  %49 = insertvalue { i8*, i32 } undef, i8* %47, 0
  %50 = insertvalue { i8*, i32 } %49, i32 %48, 1
  resume { i8*, i32 } %50
}

; Function Attrs: mustprogress noinline nounwind optnone uwtable
define linkonce_odr dso_local signext i8 @_ZNK3c106Device4typeEv(%"struct.c10::Device"* nonnull align 1 dereferenceable(2) %0) #8 comdat align 2 {
  %2 = alloca %"struct.c10::Device"*, align 8
  store %"struct.c10::Device"* %0, %"struct.c10::Device"** %2, align 8
  %3 = load %"struct.c10::Device"*, %"struct.c10::Device"** %2, align 8
  %4 = getelementptr inbounds %"struct.c10::Device", %"struct.c10::Device"* %3, i32 0, i32 0
  %5 = load i8, i8* %4, align 1
  ret i8 %5
}

; Function Attrs: noinline optnone uwtable
define linkonce_odr dso_local void @_ZN3c104cuda4impl13CUDAGuardImplC2ENS_10DeviceTypeE(%"struct.c10::cuda::impl::CUDAGuardImpl"* nonnull align 8 dereferenceable(8) %0, i8 signext %1) unnamed_addr #7 comdat align 2 personality i8* bitcast (i32 (...)* @__gxx_personality_v0 to i8*) {
  %3 = alloca %"struct.c10::cuda::impl::CUDAGuardImpl"*, align 8
  %4 = alloca i8, align 1
  %5 = alloca %"class.std::ios_base::Init", align 1
  %6 = alloca i8*, align 8
  %7 = alloca i32, align 4
  %8 = alloca %"class.std::ios_base::Init", align 1
  store %"struct.c10::cuda::impl::CUDAGuardImpl"* %0, %"struct.c10::cuda::impl::CUDAGuardImpl"** %3, align 8
  store i8 %1, i8* %4, align 1
  %9 = load %"struct.c10::cuda::impl::CUDAGuardImpl"*, %"struct.c10::cuda::impl::CUDAGuardImpl"** %3, align 8
  %10 = bitcast %"struct.c10::cuda::impl::CUDAGuardImpl"* %9 to %"struct.c10::Allocator"*
  call void @_ZN3c104impl24DeviceGuardImplInterfaceC2Ev(%"struct.c10::Allocator"* nonnull align 8 dereferenceable(8) %10) #3
  %11 = bitcast %"struct.c10::cuda::impl::CUDAGuardImpl"* %9 to i32 (...)***
  store i32 (...)** bitcast (i8** getelementptr inbounds ({ [25 x i8*] }, { [25 x i8*] }* @_ZTVN3c104cuda4impl13CUDAGuardImplE, i32 0, inrange i32 0, i32 2) to i32 (...)**), i32 (...)*** %11, align 8
  %12 = load i8, i8* %4, align 1
  %13 = icmp eq i8 %12, 1
  br i1 %13, label %22, label %14

14:                                               ; preds = %2
  invoke void @_ZN3c103strIJEEEDcDpRKT_()
          to label %15 unwind label %17

15:                                               ; preds = %14
  invoke void @_ZN3c106detail23torchInternalAssertFailEPKcS2_jS2_NS0_22CompileTimeEmptyStringE(i8* getelementptr inbounds ([14 x i8], [14 x i8]* @__func__._ZN3c104cuda4impl13CUDAGuardImplC2ENS_10DeviceTypeE, i64 0, i64 0), i8* getelementptr inbounds ([112 x i8], [112 x i8]* @.str.6, i64 0, i64 0), i32 28, i8* getelementptr inbounds ([199 x i8], [199 x i8]* @.str.8, i64 0, i64 0)) #25
          to label %16 unwind label %17

16:                                               ; preds = %15
  unreachable

17:                                               ; preds = %15, %14
  %18 = landingpad { i8*, i32 }
          cleanup
  %19 = extractvalue { i8*, i32 } %18, 0
  store i8* %19, i8** %6, align 8
  %20 = extractvalue { i8*, i32 } %18, 1
  store i32 %20, i32* %7, align 4
  %21 = bitcast %"struct.c10::cuda::impl::CUDAGuardImpl"* %9 to %"struct.c10::Allocator"*
  call void @_ZN3c104impl24DeviceGuardImplInterfaceD2Ev(%"struct.c10::Allocator"* nonnull align 8 dereferenceable(8) %21) #3
  br label %23

22:                                               ; preds = %2
  ret void

23:                                               ; preds = %17
  %24 = load i8*, i8** %6, align 8
  %25 = load i32, i32* %7, align 4
  %26 = insertvalue { i8*, i32 } undef, i8* %24, 0
  %27 = insertvalue { i8*, i32 } %26, i32 %25, 1
  resume { i8*, i32 } %27
}

; Function Attrs: mustprogress noinline optnone uwtable
define linkonce_odr dso_local i16 @_ZNK3c104cuda4impl13CUDAGuardImpl9getDeviceEv(%"struct.c10::cuda::impl::CUDAGuardImpl"* nonnull align 8 dereferenceable(8) %0) unnamed_addr #4 comdat align 2 {
  %2 = alloca %"struct.c10::Device", align 1
  %3 = alloca %"struct.c10::cuda::impl::CUDAGuardImpl"*, align 8
  %4 = alloca i8, align 1
  %5 = alloca i32, align 4
  store %"struct.c10::cuda::impl::CUDAGuardImpl"* %0, %"struct.c10::cuda::impl::CUDAGuardImpl"** %3, align 8
  %6 = load %"struct.c10::cuda::impl::CUDAGuardImpl"*, %"struct.c10::cuda::impl::CUDAGuardImpl"** %3, align 8
  store i8 0, i8* %4, align 1
  br label %7

7:                                                ; preds = %1
  %8 = call i32 @_ZN3c104cuda9GetDeviceEPa(i8* %4)
  store i32 %8, i32* %5, align 4
  %9 = load i32, i32* %5, align 4
  call void @_ZN3c104cuda29c10_cuda_check_implementationEiPKcS2_ib(i32 %9, i8* getelementptr inbounds ([112 x i8], [112 x i8]* @.str.6, i64 0, i64 0), i8* getelementptr inbounds ([10 x i8], [10 x i8]* @__func__._ZNK3c104cuda4impl13CUDAGuardImpl9getDeviceEv, i64 0, i64 0), i32 40, i1 zeroext true)
  br label %10

10:                                               ; preds = %7
  %11 = load i8, i8* %4, align 1
  call void @_ZN3c106DeviceC2ENS_10DeviceTypeEa(%"struct.c10::Device"* nonnull align 1 dereferenceable(2) %2, i8 signext 1, i8 signext %11)
  %12 = bitcast %"struct.c10::Device"* %2 to i16*
  %13 = load i16, i16* %12, align 1
  ret i16 %13
}

; Function Attrs: mustprogress noinline optnone uwtable
define linkonce_odr dso_local i16 @_ZNK3c104cuda4impl13CUDAGuardImpl14exchangeDeviceENS_6DeviceE(%"struct.c10::cuda::impl::CUDAGuardImpl"* nonnull align 8 dereferenceable(8) %0, i16 %1) unnamed_addr #4 comdat align 2 {
  %3 = alloca %"struct.c10::Device", align 1
  %4 = alloca %"struct.c10::Device", align 1
  %5 = alloca %"struct.c10::cuda::impl::CUDAGuardImpl"*, align 8
  %6 = alloca %"class.std::ios_base::Init", align 1
  %7 = alloca %"class.std::ios_base::Init", align 1
  %8 = alloca i8, align 1
  %9 = bitcast %"struct.c10::Device"* %4 to i16*
  store i16 %1, i16* %9, align 1
  store %"struct.c10::cuda::impl::CUDAGuardImpl"* %0, %"struct.c10::cuda::impl::CUDAGuardImpl"** %5, align 8
  %10 = load %"struct.c10::cuda::impl::CUDAGuardImpl"*, %"struct.c10::cuda::impl::CUDAGuardImpl"** %5, align 8
  %11 = call zeroext i1 @_ZNK3c106Device7is_cudaEv(%"struct.c10::Device"* nonnull align 1 dereferenceable(2) %4) #3
  br i1 %11, label %13, label %12

12:                                               ; preds = %2
  call void @_ZN3c103strIJEEEDcDpRKT_()
  call void @_ZN3c106detail23torchInternalAssertFailEPKcS2_jS2_NS0_22CompileTimeEmptyStringE(i8* getelementptr inbounds ([15 x i8], [15 x i8]* @__func__._ZNK3c104cuda4impl13CUDAGuardImpl14exchangeDeviceENS_6DeviceE, i64 0, i64 0), i8* getelementptr inbounds ([112 x i8], [112 x i8]* @.str.6, i64 0, i64 0), i32 34, i8* getelementptr inbounds ([189 x i8], [189 x i8]* @.str.39, i64 0, i64 0)) #25
  unreachable

13:                                               ; preds = %2
  %14 = call signext i8 @_ZNK3c106Device5indexEv(%"struct.c10::Device"* nonnull align 1 dereferenceable(2) %4) #3
  %15 = call signext i8 @_ZN3c104cuda14ExchangeDeviceEa(i8 signext %14)
  store i8 %15, i8* %8, align 1
  %16 = load i8, i8* %8, align 1
  call void @_ZN3c106DeviceC2ENS_10DeviceTypeEa(%"struct.c10::Device"* nonnull align 1 dereferenceable(2) %3, i8 signext 1, i8 signext %16)
  %17 = bitcast %"struct.c10::Device"* %3 to i16*
  %18 = load i16, i16* %17, align 1
  ret i16 %18
}

; Function Attrs: mustprogress noinline nounwind optnone uwtable
define linkonce_odr dso_local zeroext i1 @_ZNK3c106Device7is_cudaEv(%"struct.c10::Device"* nonnull align 1 dereferenceable(2) %0) #8 comdat align 2 {
  %2 = alloca %"struct.c10::Device"*, align 8
  store %"struct.c10::Device"* %0, %"struct.c10::Device"** %2, align 8
  %3 = load %"struct.c10::Device"*, %"struct.c10::Device"** %2, align 8
  %4 = getelementptr inbounds %"struct.c10::Device", %"struct.c10::Device"* %3, i32 0, i32 0
  %5 = load i8, i8* %4, align 1
  %6 = icmp eq i8 %5, 1
  ret i1 %6
}

; Function Attrs: mustprogress noinline optnone uwtable
define linkonce_odr dso_local void @_ZN3c103strIJEEEDcDpRKT_() #4 comdat {
  %1 = alloca %"class.std::ios_base::Init", align 1
  call void @_ZN3c106detail12_str_wrapperIJEE4callEv()
  ret void
}

; Function Attrs: mustprogress noinline noreturn optnone uwtable
define linkonce_odr dso_local void @_ZN3c106detail23torchInternalAssertFailEPKcS2_jS2_NS0_22CompileTimeEmptyStringE(i8* %0, i8* %1, i32 %2, i8* %3) #12 comdat {
  %5 = alloca %"class.std::ios_base::Init", align 1
  %6 = alloca i8*, align 8
  %7 = alloca i8*, align 8
  %8 = alloca i32, align 4
  %9 = alloca i8*, align 8
  store i8* %0, i8** %6, align 8
  store i8* %1, i8** %7, align 8
  store i32 %2, i32* %8, align 4
  store i8* %3, i8** %9, align 8
  %10 = load i8*, i8** %6, align 8
  %11 = load i8*, i8** %7, align 8
  %12 = load i32, i32* %8, align 4
  %13 = load i8*, i8** %9, align 8
  call void @_ZN3c106detail14torchCheckFailEPKcS2_jS2_(i8* %10, i8* %11, i32 %12, i8* %13) #25
  unreachable
}

declare dso_local signext i8 @_ZN3c104cuda14ExchangeDeviceEa(i8 signext) #1

; Function Attrs: noinline optnone uwtable
define linkonce_odr dso_local void @_ZN3c106DeviceC2ENS_10DeviceTypeEa(%"struct.c10::Device"* nonnull align 1 dereferenceable(2) %0, i8 signext %1, i8 signext %2) unnamed_addr #7 comdat align 2 {
  %4 = alloca %"struct.c10::Device"*, align 8
  %5 = alloca i8, align 1
  %6 = alloca i8, align 1
  store %"struct.c10::Device"* %0, %"struct.c10::Device"** %4, align 8
  store i8 %1, i8* %5, align 1
  store i8 %2, i8* %6, align 1
  %7 = load %"struct.c10::Device"*, %"struct.c10::Device"** %4, align 8
  %8 = getelementptr inbounds %"struct.c10::Device", %"struct.c10::Device"* %7, i32 0, i32 0
  %9 = load i8, i8* %5, align 1
  store i8 %9, i8* %8, align 1
  %10 = getelementptr inbounds %"struct.c10::Device", %"struct.c10::Device"* %7, i32 0, i32 1
  %11 = load i8, i8* %6, align 1
  store i8 %11, i8* %10, align 1
  call void @_ZN3c106Device8validateEv(%"struct.c10::Device"* nonnull align 1 dereferenceable(2) %7)
  ret void
}

; Function Attrs: mustprogress noinline optnone uwtable
define linkonce_odr dso_local void @_ZN3c106Device8validateEv(%"struct.c10::Device"* nonnull align 1 dereferenceable(2) %0) #4 comdat align 2 personality i8* bitcast (i32 (...)* @__gxx_personality_v0 to i8*) {
  %2 = alloca %"struct.c10::Device"*, align 8
  %3 = alloca %"class.std::__cxx11::basic_string", align 8
  %4 = alloca i32, align 4
  %5 = alloca i8*, align 8
  %6 = alloca i32, align 4
  %7 = alloca %"class.std::__cxx11::basic_string", align 8
  %8 = alloca i32, align 4
  store %"struct.c10::Device"* %0, %"struct.c10::Device"** %2, align 8
  %9 = load %"struct.c10::Device"*, %"struct.c10::Device"** %2, align 8
  %10 = getelementptr inbounds %"struct.c10::Device", %"struct.c10::Device"* %9, i32 0, i32 1
  %11 = load i8, i8* %10, align 1
  %12 = sext i8 %11 to i32
  %13 = icmp sge i32 %12, -1
  br i1 %13, label %23, label %14

14:                                               ; preds = %1
  %15 = getelementptr inbounds %"struct.c10::Device", %"struct.c10::Device"* %9, i32 0, i32 1
  %16 = load i8, i8* %15, align 1
  %17 = sext i8 %16 to i32
  store i32 %17, i32* %4, align 4
  call void @_ZN3c103strIJA46_ciEEEDcDpRKT_(%"class.std::__cxx11::basic_string"* sret(%"class.std::__cxx11::basic_string") align 8 %3, [46 x i8]* nonnull align 1 dereferenceable(46) @.str.36, i32* nonnull align 4 dereferenceable(4) %4)
  invoke void @_ZN3c106detail23torchInternalAssertFailEPKcS2_jS2_RKNSt7__cxx1112basic_stringIcSt11char_traitsIcESaIcEEE(i8* getelementptr inbounds ([9 x i8], [9 x i8]* @__func__._ZN3c106Device8validateEv, i64 0, i64 0), i8* getelementptr inbounds ([100 x i8], [100 x i8]* @.str.34, i64 0, i64 0), i32 180, i8* getelementptr inbounds ([179 x i8], [179 x i8]* @.str.35, i64 0, i64 0), %"class.std::__cxx11::basic_string"* nonnull align 8 dereferenceable(32) %3) #25
          to label %18 unwind label %19

18:                                               ; preds = %14
  unreachable

19:                                               ; preds = %14
  %20 = landingpad { i8*, i32 }
          cleanup
  %21 = extractvalue { i8*, i32 } %20, 0
  store i8* %21, i8** %5, align 8
  %22 = extractvalue { i8*, i32 } %20, 1
  store i32 %22, i32* %6, align 4
  call void @_ZNSt7__cxx1112basic_stringIcSt11char_traitsIcESaIcEED1Ev(%"class.std::__cxx11::basic_string"* nonnull align 8 dereferenceable(32) %3) #3
  br label %40

23:                                               ; preds = %1
  %24 = call zeroext i1 @_ZNK3c106Device6is_cpuEv(%"struct.c10::Device"* nonnull align 1 dereferenceable(2) %9) #3
  br i1 %24, label %25, label %39

25:                                               ; preds = %23
  %26 = getelementptr inbounds %"struct.c10::Device", %"struct.c10::Device"* %9, i32 0, i32 1
  %27 = load i8, i8* %26, align 1
  %28 = sext i8 %27 to i32
  %29 = icmp sle i32 %28, 0
  br i1 %29, label %39, label %30

30:                                               ; preds = %25
  %31 = getelementptr inbounds %"struct.c10::Device", %"struct.c10::Device"* %9, i32 0, i32 1
  %32 = load i8, i8* %31, align 1
  %33 = sext i8 %32 to i32
  store i32 %33, i32* %8, align 4
  call void @_ZN3c103strIJA42_ciEEEDcDpRKT_(%"class.std::__cxx11::basic_string"* sret(%"class.std::__cxx11::basic_string") align 8 %7, [42 x i8]* nonnull align 1 dereferenceable(42) @.str.38, i32* nonnull align 4 dereferenceable(4) %8)
  invoke void @_ZN3c106detail23torchInternalAssertFailEPKcS2_jS2_RKNSt7__cxx1112basic_stringIcSt11char_traitsIcESaIcEEE(i8* getelementptr inbounds ([9 x i8], [9 x i8]* @__func__._ZN3c106Device8validateEv, i64 0, i64 0), i8* getelementptr inbounds ([100 x i8], [100 x i8]* @.str.34, i64 0, i64 0), i32 184, i8* getelementptr inbounds ([191 x i8], [191 x i8]* @.str.37, i64 0, i64 0), %"class.std::__cxx11::basic_string"* nonnull align 8 dereferenceable(32) %7) #25
          to label %34 unwind label %35

34:                                               ; preds = %30
  unreachable

35:                                               ; preds = %30
  %36 = landingpad { i8*, i32 }
          cleanup
  %37 = extractvalue { i8*, i32 } %36, 0
  store i8* %37, i8** %5, align 8
  %38 = extractvalue { i8*, i32 } %36, 1
  store i32 %38, i32* %6, align 4
  call void @_ZNSt7__cxx1112basic_stringIcSt11char_traitsIcESaIcEED1Ev(%"class.std::__cxx11::basic_string"* nonnull align 8 dereferenceable(32) %7) #3
  br label %40

39:                                               ; preds = %25, %23
  ret void

40:                                               ; preds = %35, %19
  %41 = load i8*, i8** %5, align 8
  %42 = load i32, i32* %6, align 4
  %43 = insertvalue { i8*, i32 } undef, i8* %41, 0
  %44 = insertvalue { i8*, i32 } %43, i32 %42, 1
  resume { i8*, i32 } %44
}

; Function Attrs: mustprogress noinline optnone uwtable
define linkonce_odr dso_local void @_ZN3c103strIJA46_ciEEEDcDpRKT_(%"class.std::__cxx11::basic_string"* noalias sret(%"class.std::__cxx11::basic_string") align 8 %0, [46 x i8]* nonnull align 1 dereferenceable(46) %1, i32* nonnull align 4 dereferenceable(4) %2) #4 comdat {
  %4 = alloca i8*, align 8
  %5 = alloca [46 x i8]*, align 8
  %6 = alloca i32*, align 8
  %7 = alloca i8*, align 8
  %8 = bitcast %"class.std::__cxx11::basic_string"* %0 to i8*
  store i8* %8, i8** %4, align 8
  store [46 x i8]* %1, [46 x i8]** %5, align 8
  store i32* %2, i32** %6, align 8
  %9 = load [46 x i8]*, [46 x i8]** %5, align 8
  %10 = getelementptr inbounds [46 x i8], [46 x i8]* %9, i64 0, i64 0
  store i8* %10, i8** %7, align 8
  %11 = load i32*, i32** %6, align 8
  call void @_ZN3c106detail12_str_wrapperIJPKcRKiEE4callB5cxx11ERKS3_S5_(%"class.std::__cxx11::basic_string"* sret(%"class.std::__cxx11::basic_string") align 8 %0, i8** nonnull align 8 dereferenceable(8) %7, i32* nonnull align 4 dereferenceable(4) %11)
  ret void
}

; Function Attrs: noreturn
declare dso_local void @_ZN3c106detail23torchInternalAssertFailEPKcS2_jS2_RKNSt7__cxx1112basic_stringIcSt11char_traitsIcESaIcEEE(i8*, i8*, i32, i8*, %"class.std::__cxx11::basic_string"* nonnull align 8 dereferenceable(32)) #10

; Function Attrs: mustprogress noinline nounwind optnone uwtable
define linkonce_odr dso_local zeroext i1 @_ZNK3c106Device6is_cpuEv(%"struct.c10::Device"* nonnull align 1 dereferenceable(2) %0) #8 comdat align 2 {
  %2 = alloca %"struct.c10::Device"*, align 8
  store %"struct.c10::Device"* %0, %"struct.c10::Device"** %2, align 8
  %3 = load %"struct.c10::Device"*, %"struct.c10::Device"** %2, align 8
  %4 = getelementptr inbounds %"struct.c10::Device", %"struct.c10::Device"* %3, i32 0, i32 0
  %5 = load i8, i8* %4, align 1
  %6 = icmp eq i8 %5, 0
  ret i1 %6
}

; Function Attrs: mustprogress noinline optnone uwtable
define linkonce_odr dso_local void @_ZN3c103strIJA42_ciEEEDcDpRKT_(%"class.std::__cxx11::basic_string"* noalias sret(%"class.std::__cxx11::basic_string") align 8 %0, [42 x i8]* nonnull align 1 dereferenceable(42) %1, i32* nonnull align 4 dereferenceable(4) %2) #4 comdat {
  %4 = alloca i8*, align 8
  %5 = alloca [42 x i8]*, align 8
  %6 = alloca i32*, align 8
  %7 = alloca i8*, align 8
  %8 = bitcast %"class.std::__cxx11::basic_string"* %0 to i8*
  store i8* %8, i8** %4, align 8
  store [42 x i8]* %1, [42 x i8]** %5, align 8
  store i32* %2, i32** %6, align 8
  %9 = load [42 x i8]*, [42 x i8]** %5, align 8
  %10 = getelementptr inbounds [42 x i8], [42 x i8]* %9, i64 0, i64 0
  store i8* %10, i8** %7, align 8
  %11 = load i32*, i32** %6, align 8
  call void @_ZN3c106detail12_str_wrapperIJPKcRKiEE4callB5cxx11ERKS3_S5_(%"class.std::__cxx11::basic_string"* sret(%"class.std::__cxx11::basic_string") align 8 %0, i8** nonnull align 8 dereferenceable(8) %7, i32* nonnull align 4 dereferenceable(4) %11)
  ret void
}

; Function Attrs: mustprogress noinline optnone uwtable
define linkonce_odr dso_local void @_ZN3c106detail12_str_wrapperIJPKcRKiEE4callB5cxx11ERKS3_S5_(%"class.std::__cxx11::basic_string"* noalias sret(%"class.std::__cxx11::basic_string") align 8 %0, i8** nonnull align 8 dereferenceable(8) %1, i32* nonnull align 4 dereferenceable(4) %2) #4 comdat align 2 personality i8* bitcast (i32 (...)* @__gxx_personality_v0 to i8*) {
  %4 = alloca i8*, align 8
  %5 = alloca i8**, align 8
  %6 = alloca i32*, align 8
  %7 = alloca %"class.std::__cxx11::basic_ostringstream", align 8
  %8 = alloca i8*, align 8
  %9 = alloca i32, align 4
  %10 = bitcast %"class.std::__cxx11::basic_string"* %0 to i8*
  store i8* %10, i8** %4, align 8
  store i8** %1, i8*** %5, align 8
  store i32* %2, i32** %6, align 8
  call void @_ZNSt7__cxx1119basic_ostringstreamIcSt11char_traitsIcESaIcEEC1Ev(%"class.std::__cxx11::basic_ostringstream"* nonnull align 8 dereferenceable(112) %7)
  %11 = bitcast %"class.std::__cxx11::basic_ostringstream"* %7 to %"class.std::basic_ostream"*
  %12 = load i8**, i8*** %5, align 8
  %13 = load i32*, i32** %6, align 8
  %14 = invoke nonnull align 8 dereferenceable(8) %"class.std::basic_ostream"* @_ZN3c106detail4_strIPKcJiEEERSoS4_RKT_DpRKT0_(%"class.std::basic_ostream"* nonnull align 8 dereferenceable(8) %11, i8** nonnull align 8 dereferenceable(8) %12, i32* nonnull align 4 dereferenceable(4) %13)
          to label %15 unwind label %17

15:                                               ; preds = %3
  invoke void @_ZNKSt7__cxx1119basic_ostringstreamIcSt11char_traitsIcESaIcEE3strEv(%"class.std::__cxx11::basic_string"* sret(%"class.std::__cxx11::basic_string") align 8 %0, %"class.std::__cxx11::basic_ostringstream"* nonnull align 8 dereferenceable(112) %7)
          to label %16 unwind label %17

16:                                               ; preds = %15
  call void @_ZNSt7__cxx1119basic_ostringstreamIcSt11char_traitsIcESaIcEED1Ev(%"class.std::__cxx11::basic_ostringstream"* nonnull align 8 dereferenceable(112) %7) #3
  ret void

17:                                               ; preds = %15, %3
  %18 = landingpad { i8*, i32 }
          cleanup
  %19 = extractvalue { i8*, i32 } %18, 0
  store i8* %19, i8** %8, align 8
  %20 = extractvalue { i8*, i32 } %18, 1
  store i32 %20, i32* %9, align 4
  call void @_ZNSt7__cxx1119basic_ostringstreamIcSt11char_traitsIcESaIcEED1Ev(%"class.std::__cxx11::basic_ostringstream"* nonnull align 8 dereferenceable(112) %7) #3
  br label %21

21:                                               ; preds = %17
  %22 = load i8*, i8** %8, align 8
  %23 = load i32, i32* %9, align 4
  %24 = insertvalue { i8*, i32 } undef, i8* %22, 0
  %25 = insertvalue { i8*, i32 } %24, i32 %23, 1
  resume { i8*, i32 } %25
}

; Function Attrs: mustprogress noinline optnone uwtable
define linkonce_odr dso_local nonnull align 8 dereferenceable(8) %"class.std::basic_ostream"* @_ZN3c106detail4_strIPKcJiEEERSoS4_RKT_DpRKT0_(%"class.std::basic_ostream"* nonnull align 8 dereferenceable(8) %0, i8** nonnull align 8 dereferenceable(8) %1, i32* nonnull align 4 dereferenceable(4) %2) #4 comdat {
  %4 = alloca %"class.std::basic_ostream"*, align 8
  %5 = alloca i8**, align 8
  %6 = alloca i32*, align 8
  store %"class.std::basic_ostream"* %0, %"class.std::basic_ostream"** %4, align 8
  store i8** %1, i8*** %5, align 8
  store i32* %2, i32** %6, align 8
  %7 = load %"class.std::basic_ostream"*, %"class.std::basic_ostream"** %4, align 8
  %8 = load i8**, i8*** %5, align 8
  %9 = call nonnull align 8 dereferenceable(8) %"class.std::basic_ostream"* @_ZN3c106detail4_strIPKcEERSoS4_RKT_(%"class.std::basic_ostream"* nonnull align 8 dereferenceable(8) %7, i8** nonnull align 8 dereferenceable(8) %8)
  %10 = load i32*, i32** %6, align 8
  %11 = call nonnull align 8 dereferenceable(8) %"class.std::basic_ostream"* @_ZN3c106detail4_strIiEERSoS2_RKT_(%"class.std::basic_ostream"* nonnull align 8 dereferenceable(8) %9, i32* nonnull align 4 dereferenceable(4) %10)
  ret %"class.std::basic_ostream"* %11
}

; Function Attrs: mustprogress noinline optnone uwtable
define linkonce_odr dso_local nonnull align 8 dereferenceable(8) %"class.std::basic_ostream"* @_ZN3c106detail4_strIiEERSoS2_RKT_(%"class.std::basic_ostream"* nonnull align 8 dereferenceable(8) %0, i32* nonnull align 4 dereferenceable(4) %1) #4 comdat {
  %3 = alloca %"class.std::basic_ostream"*, align 8
  %4 = alloca i32*, align 8
  store %"class.std::basic_ostream"* %0, %"class.std::basic_ostream"** %3, align 8
  store i32* %1, i32** %4, align 8
  %5 = load %"class.std::basic_ostream"*, %"class.std::basic_ostream"** %3, align 8
  %6 = load i32*, i32** %4, align 8
  %7 = load i32, i32* %6, align 4
  %8 = call nonnull align 8 dereferenceable(8) %"class.std::basic_ostream"* @_ZNSolsEi(%"class.std::basic_ostream"* nonnull align 8 dereferenceable(8) %5, i32 %7)
  %9 = load %"class.std::basic_ostream"*, %"class.std::basic_ostream"** %3, align 8
  ret %"class.std::basic_ostream"* %9
}

declare dso_local nonnull align 8 dereferenceable(8) %"class.std::basic_ostream"* @_ZNSolsEi(%"class.std::basic_ostream"* nonnull align 8 dereferenceable(8), i32) #1

; Function Attrs: noreturn
declare dso_local void @_ZN3c106detail14torchCheckFailEPKcS2_jS2_(i8*, i8*, i32, i8*) #10

; Function Attrs: mustprogress noinline nounwind optnone uwtable
define linkonce_odr dso_local void @_ZN3c106detail12_str_wrapperIJEE4callEv() #8 comdat align 2 {
  ret void
}

declare dso_local i32 @_ZN3c104cuda9GetDeviceEPa(i8*) #1

declare dso_local void @_ZN3c104cuda29c10_cuda_check_implementationEiPKcS2_ib(i32, i8*, i8*, i32, i1 zeroext) #1

; Function Attrs: noinline nounwind optnone uwtable
define linkonce_odr dso_local void @_ZN3c104impl24DeviceGuardImplInterfaceC2Ev(%"struct.c10::Allocator"* nonnull align 8 dereferenceable(8) %0) unnamed_addr #5 comdat align 2 {
  %2 = alloca %"struct.c10::Allocator"*, align 8
  store %"struct.c10::Allocator"* %0, %"struct.c10::Allocator"** %2, align 8
  %3 = load %"struct.c10::Allocator"*, %"struct.c10::Allocator"** %2, align 8
  %4 = bitcast %"struct.c10::Allocator"* %3 to i32 (...)***
  store i32 (...)** bitcast (i8** getelementptr inbounds ({ [25 x i8*] }, { [25 x i8*] }* @_ZTVN3c104impl24DeviceGuardImplInterfaceE, i32 0, inrange i32 0, i32 2) to i32 (...)**), i32 (...)*** %4, align 8
  ret void
}

; Function Attrs: mustprogress noinline nounwind optnone uwtable
define linkonce_odr dso_local signext i8 @_ZNK3c104cuda4impl13CUDAGuardImpl4typeEv(%"struct.c10::cuda::impl::CUDAGuardImpl"* nonnull align 8 dereferenceable(8) %0) unnamed_addr #8 comdat align 2 {
  %2 = alloca %"struct.c10::cuda::impl::CUDAGuardImpl"*, align 8
  store %"struct.c10::cuda::impl::CUDAGuardImpl"* %0, %"struct.c10::cuda::impl::CUDAGuardImpl"** %2, align 8
  %3 = load %"struct.c10::cuda::impl::CUDAGuardImpl"*, %"struct.c10::cuda::impl::CUDAGuardImpl"** %2, align 8
  ret i8 1
}

; Function Attrs: mustprogress noinline optnone uwtable
define linkonce_odr dso_local void @_ZNK3c104cuda4impl13CUDAGuardImpl9setDeviceENS_6DeviceE(%"struct.c10::cuda::impl::CUDAGuardImpl"* nonnull align 8 dereferenceable(8) %0, i16 %1) unnamed_addr #4 comdat align 2 {
  %3 = alloca %"struct.c10::Device", align 1
  %4 = alloca %"struct.c10::cuda::impl::CUDAGuardImpl"*, align 8
  %5 = alloca %"class.std::ios_base::Init", align 1
  %6 = alloca %"class.std::ios_base::Init", align 1
  %7 = alloca i32, align 4
  %8 = bitcast %"struct.c10::Device"* %3 to i16*
  store i16 %1, i16* %8, align 1
  store %"struct.c10::cuda::impl::CUDAGuardImpl"* %0, %"struct.c10::cuda::impl::CUDAGuardImpl"** %4, align 8
  %9 = load %"struct.c10::cuda::impl::CUDAGuardImpl"*, %"struct.c10::cuda::impl::CUDAGuardImpl"** %4, align 8
  %10 = call zeroext i1 @_ZNK3c106Device7is_cudaEv(%"struct.c10::Device"* nonnull align 1 dereferenceable(2) %3) #3
  br i1 %10, label %12, label %11

11:                                               ; preds = %2
  call void @_ZN3c103strIJEEEDcDpRKT_()
  call void @_ZN3c106detail23torchInternalAssertFailEPKcS2_jS2_NS0_22CompileTimeEmptyStringE(i8* getelementptr inbounds ([10 x i8], [10 x i8]* @__func__._ZNK3c104cuda4impl13CUDAGuardImpl9setDeviceENS_6DeviceE, i64 0, i64 0), i8* getelementptr inbounds ([112 x i8], [112 x i8]* @.str.6, i64 0, i64 0), i32 53, i8* getelementptr inbounds ([189 x i8], [189 x i8]* @.str.20, i64 0, i64 0)) #25
  unreachable

12:                                               ; preds = %2
  br label %13

13:                                               ; preds = %12
  %14 = call signext i8 @_ZNK3c106Device5indexEv(%"struct.c10::Device"* nonnull align 1 dereferenceable(2) %3) #3
  %15 = call i32 @_ZN3c104cuda9SetDeviceEa(i8 signext %14)
  store i32 %15, i32* %7, align 4
  %16 = load i32, i32* %7, align 4
  call void @_ZN3c104cuda29c10_cuda_check_implementationEiPKcS2_ib(i32 %16, i8* getelementptr inbounds ([112 x i8], [112 x i8]* @.str.6, i64 0, i64 0), i8* getelementptr inbounds ([10 x i8], [10 x i8]* @__func__._ZNK3c104cuda4impl13CUDAGuardImpl9setDeviceENS_6DeviceE, i64 0, i64 0), i32 54, i1 zeroext true)
  br label %17

17:                                               ; preds = %13
  ret void
}

; Function Attrs: mustprogress noinline optnone uwtable
define linkonce_odr dso_local { i64, i64 } @_ZNK3c104cuda4impl13CUDAGuardImpl9getStreamENS_6DeviceE(%"struct.c10::cuda::impl::CUDAGuardImpl"* nonnull align 8 dereferenceable(8) %0, i16 %1) unnamed_addr #4 comdat align 2 {
  %3 = alloca %"class.c10::Stream", align 8
  %4 = alloca %"struct.c10::Device", align 1
  %5 = alloca %"struct.c10::cuda::impl::CUDAGuardImpl"*, align 8
  %6 = alloca %"class.c10::cuda::CUDAStream", align 8
  %7 = bitcast %"struct.c10::Device"* %4 to i16*
  store i16 %1, i16* %7, align 1
  store %"struct.c10::cuda::impl::CUDAGuardImpl"* %0, %"struct.c10::cuda::impl::CUDAGuardImpl"** %5, align 8
  %8 = load %"struct.c10::cuda::impl::CUDAGuardImpl"*, %"struct.c10::cuda::impl::CUDAGuardImpl"** %5, align 8
  %9 = call signext i8 @_ZNK3c106Device5indexEv(%"struct.c10::Device"* nonnull align 1 dereferenceable(2) %4) #3
  %10 = call { i64, i64 } @_ZN3c104cuda20getCurrentCUDAStreamEa(i8 signext %9)
  %11 = getelementptr inbounds %"class.c10::cuda::CUDAStream", %"class.c10::cuda::CUDAStream"* %6, i32 0, i32 0
  %12 = bitcast %"class.c10::Stream"* %11 to { i64, i64 }*
  %13 = getelementptr inbounds { i64, i64 }, { i64, i64 }* %12, i32 0, i32 0
  %14 = extractvalue { i64, i64 } %10, 0
  store i64 %14, i64* %13, align 8
  %15 = getelementptr inbounds { i64, i64 }, { i64, i64 }* %12, i32 0, i32 1
  %16 = extractvalue { i64, i64 } %10, 1
  store i64 %16, i64* %15, align 8
  %17 = call { i64, i64 } @_ZNK3c104cuda10CUDAStream6unwrapEv(%"class.c10::cuda::CUDAStream"* nonnull align 8 dereferenceable(16) %6)
  %18 = bitcast %"class.c10::Stream"* %3 to { i64, i64 }*
  %19 = getelementptr inbounds { i64, i64 }, { i64, i64 }* %18, i32 0, i32 0
  %20 = extractvalue { i64, i64 } %17, 0
  store i64 %20, i64* %19, align 8
  %21 = getelementptr inbounds { i64, i64 }, { i64, i64 }* %18, i32 0, i32 1
  %22 = extractvalue { i64, i64 } %17, 1
  store i64 %22, i64* %21, align 8
  %23 = bitcast %"class.c10::Stream"* %3 to { i64, i64 }*
  %24 = load { i64, i64 }, { i64, i64 }* %23, align 8
  ret { i64, i64 } %24
}

; Function Attrs: mustprogress noinline optnone uwtable
define linkonce_odr dso_local { i64, i64 } @_ZNK3c104cuda4impl13CUDAGuardImpl16getDefaultStreamENS_6DeviceE(%"struct.c10::cuda::impl::CUDAGuardImpl"* nonnull align 8 dereferenceable(8) %0, i16 %1) unnamed_addr #4 comdat align 2 {
  %3 = alloca %"class.c10::Stream", align 8
  %4 = alloca %"struct.c10::Device", align 1
  %5 = alloca %"struct.c10::cuda::impl::CUDAGuardImpl"*, align 8
  %6 = alloca %"class.c10::cuda::CUDAStream", align 8
  %7 = bitcast %"struct.c10::Device"* %4 to i16*
  store i16 %1, i16* %7, align 1
  store %"struct.c10::cuda::impl::CUDAGuardImpl"* %0, %"struct.c10::cuda::impl::CUDAGuardImpl"** %5, align 8
  %8 = load %"struct.c10::cuda::impl::CUDAGuardImpl"*, %"struct.c10::cuda::impl::CUDAGuardImpl"** %5, align 8
  %9 = call signext i8 @_ZNK3c106Device5indexEv(%"struct.c10::Device"* nonnull align 1 dereferenceable(2) %4) #3
  %10 = call { i64, i64 } @_ZN3c104cuda20getDefaultCUDAStreamEa(i8 signext %9)
  %11 = getelementptr inbounds %"class.c10::cuda::CUDAStream", %"class.c10::cuda::CUDAStream"* %6, i32 0, i32 0
  %12 = bitcast %"class.c10::Stream"* %11 to { i64, i64 }*
  %13 = getelementptr inbounds { i64, i64 }, { i64, i64 }* %12, i32 0, i32 0
  %14 = extractvalue { i64, i64 } %10, 0
  store i64 %14, i64* %13, align 8
  %15 = getelementptr inbounds { i64, i64 }, { i64, i64 }* %12, i32 0, i32 1
  %16 = extractvalue { i64, i64 } %10, 1
  store i64 %16, i64* %15, align 8
  %17 = call { i64, i64 } @_ZNK3c104cuda10CUDAStreamcvNS_6StreamEEv(%"class.c10::cuda::CUDAStream"* nonnull align 8 dereferenceable(16) %6)
  %18 = bitcast %"class.c10::Stream"* %3 to { i64, i64 }*
  %19 = getelementptr inbounds { i64, i64 }, { i64, i64 }* %18, i32 0, i32 0
  %20 = extractvalue { i64, i64 } %17, 0
  store i64 %20, i64* %19, align 8
  %21 = getelementptr inbounds { i64, i64 }, { i64, i64 }* %18, i32 0, i32 1
  %22 = extractvalue { i64, i64 } %17, 1
  store i64 %22, i64* %21, align 8
  %23 = bitcast %"class.c10::Stream"* %3 to { i64, i64 }*
  %24 = load { i64, i64 }, { i64, i64 }* %23, align 8
  ret { i64, i64 } %24
}

; Function Attrs: mustprogress noinline optnone uwtable
define linkonce_odr dso_local { i64, i64 } @_ZNK3c104cuda4impl13CUDAGuardImpl23getStreamFromGlobalPoolENS_6DeviceEb(%"struct.c10::cuda::impl::CUDAGuardImpl"* nonnull align 8 dereferenceable(8) %0, i16 %1, i1 zeroext %2) unnamed_addr #4 comdat align 2 {
  %4 = alloca %"class.c10::Stream", align 8
  %5 = alloca %"struct.c10::Device", align 1
  %6 = alloca %"struct.c10::cuda::impl::CUDAGuardImpl"*, align 8
  %7 = alloca i8, align 1
  %8 = alloca %"class.c10::cuda::CUDAStream", align 8
  %9 = bitcast %"struct.c10::Device"* %5 to i16*
  store i16 %1, i16* %9, align 1
  store %"struct.c10::cuda::impl::CUDAGuardImpl"* %0, %"struct.c10::cuda::impl::CUDAGuardImpl"** %6, align 8
  %10 = zext i1 %2 to i8
  store i8 %10, i8* %7, align 1
  %11 = load %"struct.c10::cuda::impl::CUDAGuardImpl"*, %"struct.c10::cuda::impl::CUDAGuardImpl"** %6, align 8
  %12 = load i8, i8* %7, align 1
  %13 = trunc i8 %12 to i1
  %14 = call signext i8 @_ZNK3c106Device5indexEv(%"struct.c10::Device"* nonnull align 1 dereferenceable(2) %5) #3
  %15 = call { i64, i64 } @_ZN3c104cuda17getStreamFromPoolEba(i1 zeroext %13, i8 signext %14)
  %16 = getelementptr inbounds %"class.c10::cuda::CUDAStream", %"class.c10::cuda::CUDAStream"* %8, i32 0, i32 0
  %17 = bitcast %"class.c10::Stream"* %16 to { i64, i64 }*
  %18 = getelementptr inbounds { i64, i64 }, { i64, i64 }* %17, i32 0, i32 0
  %19 = extractvalue { i64, i64 } %15, 0
  store i64 %19, i64* %18, align 8
  %20 = getelementptr inbounds { i64, i64 }, { i64, i64 }* %17, i32 0, i32 1
  %21 = extractvalue { i64, i64 } %15, 1
  store i64 %21, i64* %20, align 8
  %22 = call { i64, i64 } @_ZNK3c104cuda10CUDAStreamcvNS_6StreamEEv(%"class.c10::cuda::CUDAStream"* nonnull align 8 dereferenceable(16) %8)
  %23 = bitcast %"class.c10::Stream"* %4 to { i64, i64 }*
  %24 = getelementptr inbounds { i64, i64 }, { i64, i64 }* %23, i32 0, i32 0
  %25 = extractvalue { i64, i64 } %22, 0
  store i64 %25, i64* %24, align 8
  %26 = getelementptr inbounds { i64, i64 }, { i64, i64 }* %23, i32 0, i32 1
  %27 = extractvalue { i64, i64 } %22, 1
  store i64 %27, i64* %26, align 8
  %28 = bitcast %"class.c10::Stream"* %4 to { i64, i64 }*
  %29 = load { i64, i64 }, { i64, i64 }* %28, align 8
  ret { i64, i64 } %29
}

; Function Attrs: mustprogress noinline optnone uwtable
define linkonce_odr dso_local { i64, i64 } @_ZNK3c104cuda4impl13CUDAGuardImpl12getNewStreamENS_6DeviceEi(%"struct.c10::cuda::impl::CUDAGuardImpl"* nonnull align 8 dereferenceable(8) %0, i16 %1, i32 %2) unnamed_addr #4 comdat align 2 {
  %4 = alloca %"class.c10::Stream", align 8
  %5 = alloca %"struct.c10::Device", align 1
  %6 = alloca %"struct.c10::cuda::impl::CUDAGuardImpl"*, align 8
  %7 = alloca i32, align 4
  %8 = alloca %"class.c10::cuda::CUDAStream", align 8
  %9 = bitcast %"struct.c10::Device"* %5 to i16*
  store i16 %1, i16* %9, align 1
  store %"struct.c10::cuda::impl::CUDAGuardImpl"* %0, %"struct.c10::cuda::impl::CUDAGuardImpl"** %6, align 8
  store i32 %2, i32* %7, align 4
  %10 = load %"struct.c10::cuda::impl::CUDAGuardImpl"*, %"struct.c10::cuda::impl::CUDAGuardImpl"** %6, align 8
  %11 = load i32, i32* %7, align 4
  %12 = call signext i8 @_ZNK3c106Device5indexEv(%"struct.c10::Device"* nonnull align 1 dereferenceable(2) %5) #3
  %13 = call { i64, i64 } @_ZN3c104cuda17getStreamFromPoolEia(i32 %11, i8 signext %12)
  %14 = getelementptr inbounds %"class.c10::cuda::CUDAStream", %"class.c10::cuda::CUDAStream"* %8, i32 0, i32 0
  %15 = bitcast %"class.c10::Stream"* %14 to { i64, i64 }*
  %16 = getelementptr inbounds { i64, i64 }, { i64, i64 }* %15, i32 0, i32 0
  %17 = extractvalue { i64, i64 } %13, 0
  store i64 %17, i64* %16, align 8
  %18 = getelementptr inbounds { i64, i64 }, { i64, i64 }* %15, i32 0, i32 1
  %19 = extractvalue { i64, i64 } %13, 1
  store i64 %19, i64* %18, align 8
  %20 = call { i64, i64 } @_ZNK3c104cuda10CUDAStreamcvNS_6StreamEEv(%"class.c10::cuda::CUDAStream"* nonnull align 8 dereferenceable(16) %8)
  %21 = bitcast %"class.c10::Stream"* %4 to { i64, i64 }*
  %22 = getelementptr inbounds { i64, i64 }, { i64, i64 }* %21, i32 0, i32 0
  %23 = extractvalue { i64, i64 } %20, 0
  store i64 %23, i64* %22, align 8
  %24 = getelementptr inbounds { i64, i64 }, { i64, i64 }* %21, i32 0, i32 1
  %25 = extractvalue { i64, i64 } %20, 1
  store i64 %25, i64* %24, align 8
  %26 = bitcast %"class.c10::Stream"* %4 to { i64, i64 }*
  %27 = load { i64, i64 }, { i64, i64 }* %26, align 8
  ret { i64, i64 } %27
}

; Function Attrs: mustprogress noinline optnone uwtable
