; ModuleID = '/home/mvh6224/CUDA-BOSolver/coverage-exp/68/attention_kernels_combined.bc'
source_filename = "llvm-link"
target datalayout = "e-m:e-p270:32:32-p271:32:32-p272:64:64-i64:64-f80:128-n8:16:32:64-S128"
target triple = "x86_64-pc-linux-gnu"

%"class.std::ios_base::Init" = type { i8 }
%"struct.std::array.413" = type { [46 x i8] }
%"class.at::Tensor" = type { %"class.at::TensorBase" }
%"class.at::TensorBase" = type { %"class.c10::intrusive_ptr" }
%"class.c10::intrusive_ptr" = type { %"struct.c10::TensorImpl"* }
%"struct.c10::TensorImpl" = type { %"class.c10::intrusive_ptr_target", %"struct.c10::Storage", %"class.std::unique_ptr.15", %"class.std::unique_ptr.23", %"struct.c10::VariableVersion", %"struct.c10::impl::PyObjectSlot", %"class.c10::impl::SizesAndStrides", i64, i64, %"class.caffe2::TypeMeta", %"class.std::optional.53", [3 x i8], %"class.c10::SymInt" }
%"class.c10::intrusive_ptr_target" = type { i32 (...)**, %"struct.std::atomic", %"struct.std::atomic" }
%"struct.std::atomic" = type { %"struct.std::__atomic_base" }
%"struct.std::__atomic_base" = type { i32 }
%"struct.c10::Storage" = type { %"class.c10::intrusive_ptr.0" }
%"class.c10::intrusive_ptr.0" = type { %"struct.c10::StorageImpl"* }
%"struct.c10::StorageImpl" = type { %"class.c10::intrusive_ptr_target", %"class.c10::DataPtr", %"class.c10::SymInt", i8, i8, i8, i8, i8, i8, i8, %"struct.c10::Allocator"*, %"struct.c10::impl::PyObjectSlot", %"class.std::unique_ptr.5" }
%"class.c10::DataPtr" = type <{ %"class.c10::detail::UniqueVoidPtr", %"struct.c10::Device", [6 x i8] }>
%"class.c10::detail::UniqueVoidPtr" = type { i8*, %"class.std::unique_ptr" }
%"class.std::unique_ptr" = type { %"struct.std::__uniq_ptr_data" }
%"struct.std::__uniq_ptr_data" = type { %"class.std::__uniq_ptr_impl" }
%"class.std::__uniq_ptr_impl" = type { %"class.std::tuple" }
%"class.std::tuple" = type { %"struct.std::_Tuple_impl" }
%"struct.std::_Tuple_impl" = type { %"struct.std::_Tuple_impl.1", %"struct.std::_Head_base.2" }
%"struct.std::_Tuple_impl.1" = type { %"struct.std::_Head_base" }
%"struct.std::_Head_base" = type { void (i8*)* }
%"struct.std::_Head_base.2" = type { i8* }
%"struct.c10::Device" = type { i8, i8 }
%"struct.c10::Allocator" = type { i32 (...)** }
%"class.std::unique_ptr.5" = type { %"struct.std::__uniq_ptr_data.6" }
%"struct.std::__uniq_ptr_data.6" = type { %"class.std::__uniq_ptr_impl.7" }
%"class.std::__uniq_ptr_impl.7" = type { %"class.std::tuple.8" }
%"class.std::tuple.8" = type { %"struct.std::_Tuple_impl.9" }
%"struct.std::_Tuple_impl.9" = type { %"struct.std::_Head_base.12" }
%"struct.std::_Head_base.12" = type { %"struct.c10::StorageExtraMeta"* }
%"struct.c10::StorageExtraMeta" = type { %"class.std::optional" }
%"class.std::optional" = type { %"struct.std::_Optional_base" }
%"struct.std::_Optional_base" = type { %"struct.std::_Optional_payload" }
%"struct.std::_Optional_payload" = type { %"struct.std::_Optional_payload.base", [7 x i8] }
%"struct.std::_Optional_payload.base" = type { %"struct.std::_Optional_payload_base.base" }
%"struct.std::_Optional_payload_base.base" = type <{ %"union.std::_Optional_payload_base<std::__cxx11::basic_string<char>>::_Storage", i8 }>
%"union.std::_Optional_payload_base<std::__cxx11::basic_string<char>>::_Storage" = type { %"class.std::__cxx11::basic_string" }
%"class.std::__cxx11::basic_string" = type { %"struct.std::_Head_base.2", i64, %union.anon }
%union.anon = type { i64, [8 x i8] }
%"class.std::unique_ptr.15" = type { %"struct.std::__uniq_ptr_data.16" }
%"struct.std::__uniq_ptr_data.16" = type { %"class.std::__uniq_ptr_impl.17" }
%"class.std::__uniq_ptr_impl.17" = type { %"class.std::tuple.18" }
%"class.std::tuple.18" = type { %"struct.std::_Tuple_impl.19" }
%"struct.std::_Tuple_impl.19" = type { %"struct.c10::impl::PyInterpreter" }
%"struct.c10::impl::PyInterpreter" = type { %"struct.c10::Allocator"* }
%"class.std::unique_ptr.23" = type { %"struct.std::__uniq_ptr_data.24" }
%"struct.std::__uniq_ptr_data.24" = type { %"class.std::__uniq_ptr_impl.25" }
%"class.std::__uniq_ptr_impl.25" = type { %"class.std::tuple.26" }
%"class.std::tuple.26" = type { %"struct.std::_Tuple_impl.27" }
%"struct.std::_Tuple_impl.27" = type { %"struct.std::_Head_base.30" }
%"struct.std::_Head_base.30" = type { %"struct.c10::ExtraMeta"* }
%"struct.c10::ExtraMeta" = type { %"class.std::unique_ptr.31", %"class.std::unique_ptr.15", %"class.c10::intrusive_ptr.41", %"class.std::optional", %"class.std::optional" }
%"class.std::unique_ptr.31" = type { %"struct.std::__uniq_ptr_data.32" }
%"struct.std::__uniq_ptr_data.32" = type { %"class.std::__uniq_ptr_impl.33" }
%"class.std::__uniq_ptr_impl.33" = type { %"class.std::tuple.34" }
%"class.std::tuple.34" = type { %"struct.std::_Tuple_impl.35" }
%"struct.std::_Tuple_impl.35" = type { %"struct.std::_Head_base.38" }
%"struct.std::_Head_base.38" = type { %"class.c10::SymbolicShapeMeta"* }
%"class.c10::SymbolicShapeMeta" = type { %"class.c10::SmallVector", %"class.c10::SmallVector", %"class.c10::SymInt", i8, %"struct.std::atomic", %"class.std::mutex", %"class.c10::SymInt", %"class.c10::SymBool", %"class.c10::SymBool", %"class.c10::SymBool", %"class.c10::SymBool", %"class.c10::SymBool", %"class.c10::SymBool" }
%"class.c10::SmallVector" = type { %"class.c10::SmallVectorImpl", %"struct.c10::SmallVectorStorage" }
%"class.c10::SmallVectorImpl" = type { %"class.c10::SmallVectorTemplateBase" }
%"class.c10::SmallVectorTemplateBase" = type { %"class.c10::SmallVectorTemplateCommon" }
%"class.c10::SmallVectorTemplateCommon" = type { %"class.c10::SmallVectorBase" }
%"class.c10::SmallVectorBase" = type { i8*, i32, i32 }
%"struct.c10::SmallVectorStorage" = type { [40 x i8] }
%"class.std::mutex" = type { %"class.std::__mutex_base" }
%"class.std::__mutex_base" = type { %union.pthread_mutex_t }
%union.pthread_mutex_t = type { %struct.__pthread_mutex_s }
%struct.__pthread_mutex_s = type { i32, i32, i32, i32, i32, i16, i16, %struct.__pthread_internal_list }
%struct.__pthread_internal_list = type { %struct.__pthread_internal_list*, %struct.__pthread_internal_list* }
%"class.c10::SymBool" = type { i8, %"class.c10::intrusive_ptr.41" }
%"class.c10::intrusive_ptr.41" = type { %"class.c10::SymNodeImpl"* }
%"class.c10::SymNodeImpl" = type { %"class.c10::intrusive_ptr_target" }
%"struct.c10::VariableVersion" = type { %"class.c10::intrusive_ptr.51" }
%"class.c10::intrusive_ptr.51" = type { %"struct.c10::VariableVersion::VersionCounter"* }
%"struct.c10::VariableVersion::VersionCounter" = type <{ %"class.c10::intrusive_ptr_target", %"struct.std::atomic", [4 x i8] }>
%"struct.c10::impl::PyObjectSlot" = type { %"struct.std::atomic.3", %struct._object* }
%"struct.std::atomic.3" = type { %"struct.std::__atomic_base.4" }
%"struct.std::__atomic_base.4" = type { %"struct.c10::impl::PyInterpreter"* }
%struct._object = type { i64, %struct._typeobject* }
%struct._typeobject = type { %struct.PyVarObject, i8*, i64, i64, void (%struct._object*)*, i64, %struct._object* (%struct._object*, i8*)*, i32 (%struct._object*, i8*, %struct._object*)*, %struct.PyAsyncMethods*, %struct._object* (%struct._object*)*, %struct.PyNumberMethods*, %struct.PySequenceMethods*, %struct.PyMappingMethods*, i64 (%struct._object*)*, %struct._object* (%struct._object*, %struct._object*, %struct._object*)*, %struct._object* (%struct._object*)*, %struct._object* (%struct._object*, %struct._object*)*, i32 (%struct._object*, %struct._object*, %struct._object*)*, %struct.PyBufferProcs*, i64, i8*, i32 (%struct._object*, i32 (%struct._object*, i8*)*, i8*)*, i32 (%struct._object*)*, %struct._object* (%struct._object*, %struct._object*, i32)*, i64, %struct._object* (%struct._object*)*, %struct._object* (%struct._object*)*, %struct.PyMethodDef*, %struct.PyMemberDef*, %struct.PyGetSetDef*, %struct._typeobject*, %struct._object*, %struct._object* (%struct._object*, %struct._object*, %struct._object*)*, i32 (%struct._object*, %struct._object*, %struct._object*)*, i64, i32 (%struct._object*, %struct._object*, %struct._object*)*, %struct._object* (%struct._typeobject*, i64)*, %struct._object* (%struct._typeobject*, %struct._object*, %struct._object*)*, void (i8*)*, i32 (%struct._object*)*, %struct._object*, %struct._object*, %struct._object*, %struct._object*, %struct._object*, void (%struct._object*)*, i32, void (%struct._object*)*, %struct._object* (%struct._object*, %struct._object**, i64, %struct._object*)* }
%struct.PyVarObject = type { %struct._object, i64 }
%struct.PyAsyncMethods = type { %struct._object* (%struct._object*)*, %struct._object* (%struct._object*)*, %struct._object* (%struct._object*)*, i32 (%struct._object*, %struct._object*, %struct._object**)* }
%struct.PyNumberMethods = type { %struct._object* (%struct._object*, %struct._object*)*, %struct._object* (%struct._object*, %struct._object*)*, %struct._object* (%struct._object*, %struct._object*)*, %struct._object* (%struct._object*, %struct._object*)*, %struct._object* (%struct._object*, %struct._object*)*, %struct._object* (%struct._object*, %struct._object*, %struct._object*)*, %struct._object* (%struct._object*)*, %struct._object* (%struct._object*)*, %struct._object* (%struct._object*)*, i32 (%struct._object*)*, %struct._object* (%struct._object*)*, %struct._object* (%struct._object*, %struct._object*)*, %struct._object* (%struct._object*, %struct._object*)*, %struct._object* (%struct._object*, %struct._object*)*, %struct._object* (%struct._object*, %struct._object*)*, %struct._object* (%struct._object*, %struct._object*)*, %struct._object* (%struct._object*)*, i8*, %struct._object* (%struct._object*)*, %struct._object* (%struct._object*, %struct._object*)*, %struct._object* (%struct._object*, %struct._object*)*, %struct._object* (%struct._object*, %struct._object*)*, %struct._object* (%struct._object*, %struct._object*)*, %struct._object* (%struct._object*, %struct._object*, %struct._object*)*, %struct._object* (%struct._object*, %struct._object*)*, %struct._object* (%struct._object*, %struct._object*)*, %struct._object* (%struct._object*, %struct._object*)*, %struct._object* (%struct._object*, %struct._object*)*, %struct._object* (%struct._object*, %struct._object*)*, %struct._object* (%struct._object*, %struct._object*)*, %struct._object* (%struct._object*, %struct._object*)*, %struct._object* (%struct._object*, %struct._object*)*, %struct._object* (%struct._object*, %struct._object*)*, %struct._object* (%struct._object*)*, %struct._object* (%struct._object*, %struct._object*)*, %struct._object* (%struct._object*, %struct._object*)* }
%struct.PySequenceMethods = type { i64 (%struct._object*)*, %struct._object* (%struct._object*, %struct._object*)*, %struct._object* (%struct._object*, i64)*, %struct._object* (%struct._object*, i64)*, i8*, i32 (%struct._object*, i64, %struct._object*)*, i8*, i32 (%struct._object*, %struct._object*)*, %struct._object* (%struct._object*, %struct._object*)*, %struct._object* (%struct._object*, i64)* }
%struct.PyMappingMethods = type { i64 (%struct._object*)*, %struct._object* (%struct._object*, %struct._object*)*, i32 (%struct._object*, %struct._object*, %struct._object*)* }
%struct.PyBufferProcs = type { i32 (%struct._object*, %struct.bufferinfo*, i32)*, void (%struct._object*, %struct.bufferinfo*)* }
%struct.bufferinfo = type { i8*, %struct._object*, i64, i64, i32, i32, i8*, i64*, i64*, i64*, i8* }
%struct.PyMethodDef = type { i8*, %struct._object* (%struct._object*, %struct._object*)*, i32, i8* }
%struct.PyMemberDef = type opaque
%struct.PyGetSetDef = type { i8*, %struct._object* (%struct._object*, i8*)*, i32 (%struct._object*, %struct._object*, i8*)*, i8*, i8* }
%"class.c10::impl::SizesAndStrides" = type { i64, %union.anon.52 }
%union.anon.52 = type { [10 x i64] }
%"class.caffe2::TypeMeta" = type { i16 }
%"class.std::optional.53" = type { %"struct.std::_Optional_base.54" }
%"struct.std::_Optional_base.54" = type { %"struct.std::_Optional_payload.56" }
%"struct.std::_Optional_payload.56" = type { %"struct.std::_Optional_payload_base.57" }
%"struct.std::_Optional_payload_base.57" = type { %"union.std::_Optional_payload_base<c10::Device>::_Storage", i8 }
%"union.std::_Optional_payload_base<c10::Device>::_Storage" = type { %"struct.c10::Device" }
%"class.c10::SymInt" = type { i64 }
%struct.dim3 = type { i32, i32, i32 }
%struct.CUstream_st = type opaque
%"class.c10::cuda::CUDAStream" = type { %"class.c10::Stream" }
%"class.c10::Stream" = type { %"struct.c10::Device", i64 }
%"class.std::__cxx11::basic_ostringstream" = type { %"struct.c10::Allocator", %"class.std::__cxx11::basic_stringbuf", %"class.std::basic_ios" }
%"class.std::__cxx11::basic_stringbuf" = type { %"class.std::basic_streambuf", i32, %"class.std::__cxx11::basic_string" }
%"class.std::basic_streambuf" = type { i32 (...)**, i8*, i8*, i8*, i8*, i8*, i8*, %"class.std::locale" }
%"class.std::locale" = type { %"class.std::locale::_Impl"* }
%"class.std::locale::_Impl" = type { i32, %"class.std::locale::facet"**, i64, %"class.std::locale::facet"**, i8** }
%"class.std::locale::facet" = type <{ i32 (...)**, i32, [4 x i8] }>
%"class.std::basic_ios" = type { %"class.std::ios_base", %"class.std::basic_ostream"*, i8, i8, %"class.std::basic_streambuf"*, %"class.std::ctype"*, %"class.std::num_put"*, %"class.std::num_put"* }
%"class.std::ios_base" = type { i32 (...)**, i64, i64, i32, i32, i32, %"struct.std::ios_base::_Callback_list"*, %"struct.std::ios_base::_Words", [8 x %"struct.std::ios_base::_Words"], i32, %"struct.std::ios_base::_Words"*, %"class.std::locale" }
%"struct.std::ios_base::_Callback_list" = type { %"struct.std::ios_base::_Callback_list"*, void (i32, %"class.std::ios_base"*, i32)*, i32, i32 }
%"struct.std::ios_base::_Words" = type { i8*, i64 }
%"class.std::basic_ostream" = type { i32 (...)**, %"class.std::basic_ios" }
%"class.std::ctype" = type <{ %"class.std::locale::facet.base", [4 x i8], %struct.__locale_struct*, i8, [7 x i8], i32*, i32*, i16*, i8, [256 x i8], [256 x i8], i8, [6 x i8] }>
%"class.std::locale::facet.base" = type <{ i32 (...)**, i32 }>
%struct.__locale_struct = type { [13 x %struct.__locale_data*], i16*, i32*, i32*, [13 x i8*] }
%struct.__locale_data = type opaque
%"class.std::num_put" = type { %"class.std::locale::facet.base", [4 x i8] }
%"class.std::basic_string_view" = type { i64, i8* }
%"struct.caffe2::detail::TypeMetaData" = type { i64, i8* ()*, void (i8*, i64)*, void (i8*, i8*, i64)*, void (i8*, i64)*, void (i8*)*, %"class.caffe2::TypeIdentifier", %"class.std::basic_string_view" }
%"class.caffe2::TypeIdentifier" = type { %"class.c10::IdWrapper" }
%"class.c10::IdWrapper" = type { %"struct.c10::util::type_index" }
%"struct.c10::util::type_index" = type { %"class.c10::SymInt" }
%"class.c10::ArrayRef" = type { i64*, i64 }
%struct.float2.0 = type { float, float }
%struct.uint2.2 = type { i32, i32 }
%"struct.cacheflow::Float4_" = type { %struct.float2.0, %struct.float2.0 }
%struct.uint4 = type { i32, i32, i32, i32 }
%"struct.cacheflow::Float8_" = type { %struct.float2.0, %struct.float2.0, %struct.float2.0, %struct.float2.0 }

$_ZNK2at10TensorBase5dtypeEv = comdat any

$_ZN3c10eqEN6caffe28TypeMetaENS_10ScalarTypeE = comdat any

$_Z41single_query_cached_kv_attention_launcherItLi1ELi128EEvRN2at6TensorES2_S2_S2_fS2_S2_i = comdat any

$_Z41single_query_cached_kv_attention_launcherItLi2ELi128EEvRN2at6TensorES2_S2_S2_fS2_S2_i = comdat any

$_Z41single_query_cached_kv_attention_launcherItLi4ELi128EEvRN2at6TensorES2_S2_S2_fS2_S2_i = comdat any

$_Z41single_query_cached_kv_attention_launcherItLi8ELi128EEvRN2at6TensorES2_S2_S2_fS2_S2_i = comdat any

$_Z41single_query_cached_kv_attention_launcherItLi16ELi128EEvRN2at6TensorES2_S2_S2_fS2_S2_i = comdat any

$_Z41single_query_cached_kv_attention_launcherItLi32ELi128EEvRN2at6TensorES2_S2_S2_fS2_S2_i = comdat any

$_Z41single_query_cached_kv_attention_launcherItLi64ELi128EEvRN2at6TensorES2_S2_S2_fS2_S2_i = comdat any

$_Z41single_query_cached_kv_attention_launcherItLi128ELi128EEvRN2at6TensorES2_S2_S2_fS2_S2_i = comdat any

$_Z41single_query_cached_kv_attention_launcherItLi256ELi128EEvRN2at6TensorES2_S2_S2_fS2_S2_i = comdat any

$_ZN3c106detail17torchCheckMsgImplIJA25_ciEEEDcPKcDpRKT_ = comdat any

$_ZN3c106detail17torchCheckMsgImplIJA24_cN6caffe28TypeMetaEEEEDcPKcDpRKT_ = comdat any

$_ZN3c103strIJA24_cN6caffe28TypeMetaEEEEDcDpRKT_ = comdat any

$_ZN3c106detail12_str_wrapperIJPKcRKN6caffe28TypeMetaEEE4callB5cxx11ERKS3_S7_ = comdat any

$_ZN3c106detail4_strIPKcJN6caffe28TypeMetaEEEERSoS6_RKT_DpRKT0_ = comdat any

$_ZN3c106detail4_strIPKcEERSoS4_RKT_ = comdat any

$_ZN3c106detail4_strIN6caffe28TypeMetaEEERSoS4_RKT_ = comdat any

$_ZN6caffe2lsERSoNS_8TypeMetaE = comdat any

$_ZNK6caffe28TypeMeta4nameEv = comdat any

$_ZStlsIcSt11char_traitsIcEERSt13basic_ostreamIT_T0_ES6_St17basic_string_viewIS3_S4_E = comdat any

$_ZNKSt17basic_string_viewIcSt11char_traitsIcEE4dataEv = comdat any

$_ZNKSt17basic_string_viewIcSt11char_traitsIcEE4sizeEv = comdat any

$_ZNK6caffe28TypeMeta4dataEv = comdat any

$__clang_call_terminate = comdat any

$_ZN3c103strIJA25_ciEEEDcDpRKT_ = comdat any

$_ZN3c106detail12_str_wrapperIJPKcRKiEE4callB5cxx11ERKS3_S5_ = comdat any

$_ZN3c106detail4_strIPKcJiEEERSoS4_RKT_DpRKT0_ = comdat any

$_ZN3c106detail4_strIiEERSoS2_RKT_ = comdat any

$_ZNK2at10TensorBase4sizeEl = comdat any

$_ZNK2at10TensorBase6strideEl = comdat any

$_ZNK2at10TensorBase8data_ptrEv = comdat any

$_ZSt3maxIiEUa9enable_ifILb1EERKT_S2_S2_ = comdat any

$_ZN4dim3C2Ejjj = comdat any

$_ZNK3c104cuda10CUDAStreamcvP11CUstream_stEv = comdat any

$_ZN3c106detail17torchCheckMsgImplIJA24_ciEEEDcPKcDpRKT_ = comdat any

$_ZN3c103strIJA24_ciEEEDcDpRKT_ = comdat any

$_ZNK2at10TensorBase16mutable_data_ptrEv = comdat any

$_ZNK2at10TensorBase19unsafeGetTensorImplEv = comdat any

$_ZN3c1010TensorImpl12mutable_dataEv = comdat any

$_ZNK3c1010TensorImpl9data_implIvZNS0_12mutable_dataEvEUlvE_EEPT_RKT0_ = comdat any

$_ZNK3c1010TensorImpl17dtype_initializedEv = comdat any

$_ZN3c106detail17torchCheckMsgImplEPKcS2_ = comdat any

$_ZZN3c1010TensorImpl12mutable_dataEvENKUlvE_clEv = comdat any

$_ZNK3c1010TensorImpl8is_emptyEv = comdat any

$_ZNK6caffe28TypeMeta8itemsizeEv = comdat any

$_ZNK6caffe28TypeMeta12isScalarTypeEv = comdat any

$_ZNKSt5arrayIhLm46EEixEm = comdat any

$_ZNSt14__array_traitsIhLm46EE6_S_refERA46_Khm = comdat any

$_ZNK3c1010TensorImpl5numelEv = comdat any

$_ZNK3c1010TensorImpl14matches_policyENS0_18SizesStridesPolicyE = comdat any

$_ZNK3c107Storage12mutable_dataEv = comdat any

$_ZNK3c1013intrusive_ptrINS_11StorageImplENS_6detail34intrusive_target_default_null_typeIS1_EEEptEv = comdat any

$_ZN3c1011StorageImpl12mutable_dataEv = comdat any

$_ZN3c1011StorageImpl21maybe_materialize_cowEv = comdat any

$_ZN3c107DataPtr11mutable_getEv = comdat any

$_ZNK3c106detail13UniqueVoidPtr3getEv = comdat any

$_ZNK3c1011StorageImpl6is_cowEv = comdat any

$_ZN6caffe28TypeMetaC2Ev = comdat any

$_ZN6caffe2neERKNS_8TypeMetaES2_ = comdat any

$_ZN6caffe2eqERKNS_8TypeMetaES2_ = comdat any

$_ZN6caffe28TypeMeta13_typeMetaDataINS_6detail14_UninitializedEEEtv = comdat any

$_ZNK3c1013intrusive_ptrINS_10TensorImplENS_19UndefinedTensorImplEE3getEv = comdat any

$_ZNK2at10TensorBase7stridesEv = comdat any

$_ZNK3c108ArrayRefIlE4sizeEv = comdat any

$_ZN3c1014maybe_wrap_dimEllb = comdat any

$_ZNK3c108ArrayRefIlEixEm = comdat any

$_ZN3c1015_maybe_wrap_dimIlEET_S1_S1_b = comdat any

$_ZSt4moveIRlEONSt16remove_referenceIT_E4typeEOS2_ = comdat any

$_ZNK3c1013intrusive_ptrINS_10TensorImplENS_19UndefinedTensorImplEEptEv = comdat any

$_ZNK3c1010TensorImpl7stridesEv = comdat any

$_ZNK3c104impl15SizesAndStrides16strides_arrayrefEv = comdat any

$_ZNK3c104impl15SizesAndStrides12strides_dataEv = comdat any

$_ZNK3c104impl15SizesAndStrides4sizeEv = comdat any

$_ZN3c108ArrayRefIlEC2EPKlm = comdat any

$_ZN3c108ArrayRefIlE26debugCheckNullptrInvariantEv = comdat any

$_ZN3c103strIJA94_cEEEDcDpRKT_ = comdat any

$_ZN3c106detail12_str_wrapperIJPKcEE4callES3_ = comdat any

$_ZNK3c104impl15SizesAndStrides8isInlineEv = comdat any

$_ZNK3c1010TensorImpl4sizeEl = comdat any

$_ZNK3c1010TensorImpl3dimEv = comdat any

$_ZNK3c104impl15SizesAndStrides17size_at_uncheckedEm = comdat any

$_ZNK3c104impl15SizesAndStrides10sizes_dataEv = comdat any

$_ZN3c10eqENS_10ScalarTypeEN6caffe28TypeMetaE = comdat any

$_ZNK6caffe28TypeMeta12isScalarTypeEN3c1010ScalarTypeE = comdat any

$_ZNK3c1010TensorImpl5dtypeEv = comdat any

$_ZN9cacheflow6Qk_dotItLi32EE3dotItLi1EEEfRAT0__KT_S6_ = comdat any

$_Z15__shfl_xor_syncjfii = comdat any

$_Z11__shfl_syncjfii = comdat any

$_ZN9cacheflow9block_sumILi4EEEfPff = comdat any

$_ZN9cacheflow10from_floatERtf = comdat any

$_ZN9cacheflow3dotItEEfT_S1_ = comdat any

$_ZN9cacheflow3mulItttEET_T0_T1_ = comdat any

$_ZN9cacheflow3sumItEEfT_ = comdat any

$_ZN9cacheflow13half_to_floatEt = comdat any

$_ZN9cacheflow13float_to_halfEf = comdat any

$_ZN9cacheflow7qk_dot_ILi32EtLi1EEEfRAT1__KT0_S4_ = comdat any

$_ZN9cacheflow3mulIfttEET_T0_T1_ = comdat any

$_ZN9cacheflow3fmaEttf = comdat any

$_ZN9cacheflow3sumIfEEfT_ = comdat any

$_ZN9cacheflow6Qk_dotItLi32EE3dotItLi2EEEfRAT0__KT_S6_ = comdat any

$_ZN9cacheflow7qk_dot_ILi32EtLi2EEEfRAT1__KT0_S4_ = comdat any

$_ZN9cacheflow6Qk_dotItLi32EE3dotItLi3EEEfRAT0__KT_S6_ = comdat any

$_ZN9cacheflow7qk_dot_ILi32EtLi3EEEfRAT1__KT0_S4_ = comdat any

$_ZN9cacheflow6Qk_dotItLi32EE3dotItLi4EEEfRAT0__KT_S6_ = comdat any

$_ZN9cacheflow7qk_dot_ILi32EtLi4EEEfRAT1__KT0_S4_ = comdat any

$_ZN9cacheflow6Qk_dotItLi32EE3dotItLi5EEEfRAT0__KT_S6_ = comdat any

$_ZN9cacheflow7qk_dot_ILi32EtLi5EEEfRAT1__KT0_S4_ = comdat any

$_ZN9cacheflow6Qk_dotItLi32EE3dotItLi6EEEfRAT0__KT_S6_ = comdat any

$_ZN9cacheflow7qk_dot_ILi32EtLi6EEEfRAT1__KT0_S4_ = comdat any

$_ZN9cacheflow6Qk_dotItLi32EE3dotItLi8EEEfRAT0__KT_S6_ = comdat any

$_ZN9cacheflow7qk_dot_ILi32EtLi8EEEfRAT1__KT0_S4_ = comdat any

$_ZN9cacheflow6Qk_dotItLi16EE3dotItLi2EEEfRAT0__KT_S6_ = comdat any

$_ZN9cacheflow10from_floatERj6float2 = comdat any

$_ZN9cacheflow3dotIjEEfT_S1_ = comdat any

$_ZN9cacheflow3mulIjjjEET_T0_T1_ = comdat any

$_ZN9cacheflow3sumIjEEfT_ = comdat any

$_ZN9cacheflow15half2_to_float2Ej = comdat any

$_ZN9cacheflow15float2_to_half2E6float2 = comdat any

$_ZN9cacheflow7qk_dot_ILi16EtLi2EEEfRAT1__KT0_S4_ = comdat any

$_ZN9cacheflow6Qk_dotItLi16EE3dotItLi4EEEfRAT0__KT_S6_ = comdat any

$_ZN9cacheflow7qk_dot_ILi16EtLi4EEEfRAT1__KT0_S4_ = comdat any

$_ZN9cacheflow6Qk_dotItLi16EE3dotItLi5EEEfRAT0__KT_S6_ = comdat any

$_ZN9cacheflow7qk_dot_ILi16EtLi5EEEfRAT1__KT0_S4_ = comdat any

$_ZN9cacheflow6Qk_dotItLi16EE3dotItLi6EEEfRAT0__KT_S6_ = comdat any

$_ZN9cacheflow7qk_dot_ILi16EtLi6EEEfRAT1__KT0_S4_ = comdat any

$_ZN9cacheflow6Qk_dotItLi16EE3dotItLi8EEEfRAT0__KT_S6_ = comdat any

$_ZN9cacheflow7qk_dot_ILi16EtLi8EEEfRAT1__KT0_S4_ = comdat any

$_ZN9cacheflow6Qk_dotItLi16EE3dotItLi10EEEfRAT0__KT_S6_ = comdat any

$_ZN9cacheflow7qk_dot_ILi16EtLi10EEEfRAT1__KT0_S4_ = comdat any

$_ZN9cacheflow6Qk_dotItLi16EE3dotItLi12EEEfRAT0__KT_S6_ = comdat any

$_ZN9cacheflow7qk_dot_ILi16EtLi12EEEfRAT1__KT0_S4_ = comdat any

$_ZN9cacheflow6Qk_dotItLi16EE3dotItLi16EEEfRAT0__KT_S6_ = comdat any

$_ZN9cacheflow7qk_dot_ILi16EtLi16EEEfRAT1__KT0_S4_ = comdat any

$_ZN9cacheflow6Qk_dotItLi8EE3dotItLi4EEEfRAT0__KT_S6_ = comdat any

$_ZN9cacheflow10from_floatER5uint2NS_7Float4_E = comdat any

$_ZN9cacheflow3dotI5uint2EEfT_S2_ = comdat any

$_ZN9cacheflow3mulI5uint2S1_S1_EET_T0_T1_ = comdat any

$_ZN9cacheflow3sumI5uint2EEfT_ = comdat any

$_ZN9cacheflow3addEjj = comdat any

$_ZN9cacheflow7qk_dot_ILi8EtLi4EEEfRAT1__KT0_S4_ = comdat any

$_ZN9cacheflow6Qk_dotItLi8EE3dotItLi8EEEfRAT0__KT_S6_ = comdat any

$_ZN9cacheflow7qk_dot_ILi8EtLi8EEEfRAT1__KT0_S4_ = comdat any

$_ZN9cacheflow6Qk_dotItLi8EE3dotItLi10EEEfRAT0__KT_S6_ = comdat any

$_ZN9cacheflow7qk_dot_ILi8EtLi10EEEfRAT1__KT0_S4_ = comdat any

$_ZN9cacheflow6Qk_dotItLi8EE3dotItLi12EEEfRAT0__KT_S6_ = comdat any

$_ZN9cacheflow7qk_dot_ILi8EtLi12EEEfRAT1__KT0_S4_ = comdat any

$_ZN9cacheflow6Qk_dotItLi8EE3dotItLi16EEEfRAT0__KT_S6_ = comdat any

$_ZN9cacheflow7qk_dot_ILi8EtLi16EEEfRAT1__KT0_S4_ = comdat any

$_ZN9cacheflow6Qk_dotItLi8EE3dotItLi20EEEfRAT0__KT_S6_ = comdat any

$_ZN9cacheflow7qk_dot_ILi8EtLi20EEEfRAT1__KT0_S4_ = comdat any

$_ZN9cacheflow6Qk_dotItLi8EE3dotItLi24EEEfRAT0__KT_S6_ = comdat any

$_ZN9cacheflow7qk_dot_ILi8EtLi24EEEfRAT1__KT0_S4_ = comdat any

$_ZN9cacheflow6Qk_dotItLi8EE3dotItLi32EEEfRAT0__KT_S6_ = comdat any

$_ZN9cacheflow7qk_dot_ILi8EtLi32EEEfRAT1__KT0_S4_ = comdat any

$_ZN9cacheflow6Qk_dotItLi4EE3dotIjLi4EEEfRAT0__KT_S6_ = comdat any

$_ZN9cacheflow10from_floatER5uint4NS_7Float8_E = comdat any

$_ZN9cacheflow3dotI5uint4EEfT_S2_ = comdat any

$_ZN9cacheflow3mulI5uint4S1_S1_EET_T0_T1_ = comdat any

$_ZN9cacheflow3sumI5uint4EEfT_ = comdat any

$_ZN9cacheflow7qk_dot_ILi4EjLi4EEEfRAT1__KT0_S4_ = comdat any

$_ZN9cacheflow3mulI6float2jjEET_T0_T1_ = comdat any

$_ZN9cacheflow3fmaEjj6float2 = comdat any

$_ZN9cacheflow3sumI6float2EEfT_ = comdat any

$_ZN9cacheflow3fmaE6float2S0_S0_ = comdat any

$_ZN9cacheflow3fmaEfff = comdat any

$_ZN9cacheflow3mulI6float2S1_S1_EET_T0_T1_ = comdat any

$_ZN9cacheflow6Qk_dotItLi4EE3dotIjLi8EEEfRAT0__KT_S6_ = comdat any

$_ZN9cacheflow7qk_dot_ILi4EjLi8EEEfRAT1__KT0_S4_ = comdat any

$_ZN9cacheflow6Qk_dotItLi4EE3dotIjLi10EEEfRAT0__KT_S6_ = comdat any

$_ZN9cacheflow7qk_dot_ILi4EjLi10EEEfRAT1__KT0_S4_ = comdat any

$_ZN9cacheflow6Qk_dotItLi4EE3dotIjLi12EEEfRAT0__KT_S6_ = comdat any

$_ZN9cacheflow7qk_dot_ILi4EjLi12EEEfRAT1__KT0_S4_ = comdat any

$_ZN9cacheflow6Qk_dotItLi4EE3dotIjLi16EEEfRAT0__KT_S6_ = comdat any

$_ZN9cacheflow7qk_dot_ILi4EjLi16EEEfRAT1__KT0_S4_ = comdat any

$_ZN9cacheflow6Qk_dotItLi4EE3dotIjLi20EEEfRAT0__KT_S6_ = comdat any

$_ZN9cacheflow7qk_dot_ILi4EjLi20EEEfRAT1__KT0_S4_ = comdat any

$_ZN9cacheflow6Qk_dotItLi4EE3dotIjLi24EEEfRAT0__KT_S6_ = comdat any

$_ZN9cacheflow7qk_dot_ILi4EjLi24EEEfRAT1__KT0_S4_ = comdat any

$_ZN9cacheflow6Qk_dotItLi4EE3dotIjLi32EEEfRAT0__KT_S6_ = comdat any

$_ZN9cacheflow7qk_dot_ILi4EjLi32EEEfRAT1__KT0_S4_ = comdat any

$_ZN9cacheflow6Qk_dotItLi2EE3dotI5uint2Li4EEEfRAT0__KT_S7_ = comdat any

$_ZN9cacheflow7qk_dot_ILi2E5uint2Li4EEEfRAT1__KT0_S5_ = comdat any

$_ZN9cacheflow3mulINS_7Float4_E5uint2S2_EET_T0_T1_ = comdat any

$_ZN9cacheflow3fmaE5uint2S0_NS_7Float4_E = comdat any

$_ZN9cacheflow3sumINS_7Float4_EEEfT_ = comdat any

$_ZN9cacheflow6Qk_dotItLi2EE3dotI5uint2Li8EEEfRAT0__KT_S7_ = comdat any

$_ZN9cacheflow7qk_dot_ILi2E5uint2Li8EEEfRAT1__KT0_S5_ = comdat any

$_ZN9cacheflow6Qk_dotItLi2EE3dotI5uint2Li10EEEfRAT0__KT_S7_ = comdat any

$_ZN9cacheflow7qk_dot_ILi2E5uint2Li10EEEfRAT1__KT0_S5_ = comdat any

$_ZN9cacheflow6Qk_dotItLi2EE3dotI5uint2Li12EEEfRAT0__KT_S7_ = comdat any

$_ZN9cacheflow7qk_dot_ILi2E5uint2Li12EEEfRAT1__KT0_S5_ = comdat any

$_ZN9cacheflow6Qk_dotItLi2EE3dotI5uint2Li16EEEfRAT0__KT_S7_ = comdat any

$_ZN9cacheflow7qk_dot_ILi2E5uint2Li16EEEfRAT1__KT0_S5_ = comdat any

$_ZN9cacheflow6Qk_dotItLi2EE3dotI5uint2Li20EEEfRAT0__KT_S7_ = comdat any

$_ZN9cacheflow7qk_dot_ILi2E5uint2Li20EEEfRAT1__KT0_S5_ = comdat any

$_ZN9cacheflow6Qk_dotItLi2EE3dotI5uint2Li24EEEfRAT0__KT_S7_ = comdat any

$_ZN9cacheflow7qk_dot_ILi2E5uint2Li24EEEfRAT1__KT0_S5_ = comdat any

$_ZN9cacheflow6Qk_dotItLi2EE3dotI5uint2Li32EEEfRAT0__KT_S7_ = comdat any

$_ZN9cacheflow7qk_dot_ILi2E5uint2Li32EEEfRAT1__KT0_S5_ = comdat any

$_ZN9cacheflow6Qk_dotItLi1EE3dotI5uint4Li4EEEfRAT0__KT_S7_ = comdat any

$_ZN9cacheflow7qk_dot_ILi1E5uint4Li4EEEfRAT1__KT0_S5_ = comdat any

$_ZN9cacheflow3mulINS_7Float8_E5uint4S2_EET_T0_T1_ = comdat any

$_ZN9cacheflow3fmaE5uint4S0_NS_7Float8_E = comdat any

$_ZN9cacheflow3sumINS_7Float8_EEEfT_ = comdat any

$_ZN9cacheflow6Qk_dotItLi1EE3dotI5uint4Li8EEEfRAT0__KT_S7_ = comdat any

$_ZN9cacheflow7qk_dot_ILi1E5uint4Li8EEEfRAT1__KT0_S5_ = comdat any

$_ZN9cacheflow6Qk_dotItLi1EE3dotI5uint4Li10EEEfRAT0__KT_S7_ = comdat any

$_ZN9cacheflow7qk_dot_ILi1E5uint4Li10EEEfRAT1__KT0_S5_ = comdat any

$_ZN9cacheflow6Qk_dotItLi1EE3dotI5uint4Li12EEEfRAT0__KT_S7_ = comdat any

$_ZN9cacheflow7qk_dot_ILi1E5uint4Li12EEEfRAT1__KT0_S5_ = comdat any

$_ZN9cacheflow6Qk_dotItLi1EE3dotI5uint4Li16EEEfRAT0__KT_S7_ = comdat any

$_ZN9cacheflow7qk_dot_ILi1E5uint4Li16EEEfRAT1__KT0_S5_ = comdat any

$_ZN9cacheflow6Qk_dotItLi1EE3dotI5uint4Li20EEEfRAT0__KT_S7_ = comdat any

$_ZN9cacheflow7qk_dot_ILi1E5uint4Li20EEEfRAT1__KT0_S5_ = comdat any

$_ZN9cacheflow6Qk_dotItLi1EE3dotI5uint4Li24EEEfRAT0__KT_S7_ = comdat any

$_ZN9cacheflow7qk_dot_ILi1E5uint4Li24EEEfRAT1__KT0_S5_ = comdat any

$_ZN9cacheflow6Qk_dotItLi1EE3dotI5uint4Li32EEEfRAT0__KT_S7_ = comdat any

$_ZN9cacheflow7qk_dot_ILi1E5uint4Li32EEEfRAT1__KT0_S5_ = comdat any

$_ZZN9cacheflow39single_query_cached_kv_attention_kernelItLi32ELi1ELi128EEEvPT_PKS1_S4_S4_fPKiS6_iiE8red_smem = comdat any

$_ZZN9cacheflow39single_query_cached_kv_attention_kernelItLi64ELi1ELi128EEEvPT_PKS1_S4_S4_fPKiS6_iiE8red_smem = comdat any

$_ZZN9cacheflow39single_query_cached_kv_attention_kernelItLi80ELi1ELi128EEEvPT_PKS1_S4_S4_fPKiS6_iiE8red_smem = comdat any

$_ZZN9cacheflow39single_query_cached_kv_attention_kernelItLi96ELi1ELi128EEEvPT_PKS1_S4_S4_fPKiS6_iiE8red_smem = comdat any

$_ZZN9cacheflow39single_query_cached_kv_attention_kernelItLi128ELi1ELi128EEEvPT_PKS1_S4_S4_fPKiS6_iiE8red_smem = comdat any

$_ZZN9cacheflow39single_query_cached_kv_attention_kernelItLi160ELi1ELi128EEEvPT_PKS1_S4_S4_fPKiS6_iiE8red_smem = comdat any

$_ZZN9cacheflow39single_query_cached_kv_attention_kernelItLi192ELi1ELi128EEEvPT_PKS1_S4_S4_fPKiS6_iiE8red_smem = comdat any

$_ZZN9cacheflow39single_query_cached_kv_attention_kernelItLi256ELi1ELi128EEEvPT_PKS1_S4_S4_fPKiS6_iiE8red_smem = comdat any

$_ZZN9cacheflow39single_query_cached_kv_attention_kernelItLi32ELi2ELi128EEEvPT_PKS1_S4_S4_fPKiS6_iiE8red_smem = comdat any

$_ZZN9cacheflow39single_query_cached_kv_attention_kernelItLi64ELi2ELi128EEEvPT_PKS1_S4_S4_fPKiS6_iiE8red_smem = comdat any

$_ZZN9cacheflow39single_query_cached_kv_attention_kernelItLi80ELi2ELi128EEEvPT_PKS1_S4_S4_fPKiS6_iiE8red_smem = comdat any

$_ZZN9cacheflow39single_query_cached_kv_attention_kernelItLi96ELi2ELi128EEEvPT_PKS1_S4_S4_fPKiS6_iiE8red_smem = comdat any

$_ZZN9cacheflow39single_query_cached_kv_attention_kernelItLi128ELi2ELi128EEEvPT_PKS1_S4_S4_fPKiS6_iiE8red_smem = comdat any

$_ZZN9cacheflow39single_query_cached_kv_attention_kernelItLi160ELi2ELi128EEEvPT_PKS1_S4_S4_fPKiS6_iiE8red_smem = comdat any

$_ZZN9cacheflow39single_query_cached_kv_attention_kernelItLi192ELi2ELi128EEEvPT_PKS1_S4_S4_fPKiS6_iiE8red_smem = comdat any

$_ZZN9cacheflow39single_query_cached_kv_attention_kernelItLi256ELi2ELi128EEEvPT_PKS1_S4_S4_fPKiS6_iiE8red_smem = comdat any

$_ZZN9cacheflow39single_query_cached_kv_attention_kernelItLi32ELi4ELi128EEEvPT_PKS1_S4_S4_fPKiS6_iiE8red_smem = comdat any

$_ZZN9cacheflow39single_query_cached_kv_attention_kernelItLi64ELi4ELi128EEEvPT_PKS1_S4_S4_fPKiS6_iiE8red_smem = comdat any

$_ZZN9cacheflow39single_query_cached_kv_attention_kernelItLi80ELi4ELi128EEEvPT_PKS1_S4_S4_fPKiS6_iiE8red_smem = comdat any

$_ZZN9cacheflow39single_query_cached_kv_attention_kernelItLi96ELi4ELi128EEEvPT_PKS1_S4_S4_fPKiS6_iiE8red_smem = comdat any

$_ZZN9cacheflow39single_query_cached_kv_attention_kernelItLi128ELi4ELi128EEEvPT_PKS1_S4_S4_fPKiS6_iiE8red_smem = comdat any

$_ZZN9cacheflow39single_query_cached_kv_attention_kernelItLi160ELi4ELi128EEEvPT_PKS1_S4_S4_fPKiS6_iiE8red_smem = comdat any

$_ZZN9cacheflow39single_query_cached_kv_attention_kernelItLi192ELi4ELi128EEEvPT_PKS1_S4_S4_fPKiS6_iiE8red_smem = comdat any

$_ZZN9cacheflow39single_query_cached_kv_attention_kernelItLi256ELi4ELi128EEEvPT_PKS1_S4_S4_fPKiS6_iiE8red_smem = comdat any

$_ZZN9cacheflow39single_query_cached_kv_attention_kernelItLi32ELi8ELi128EEEvPT_PKS1_S4_S4_fPKiS6_iiE8red_smem = comdat any

$_ZZN9cacheflow39single_query_cached_kv_attention_kernelItLi64ELi8ELi128EEEvPT_PKS1_S4_S4_fPKiS6_iiE8red_smem = comdat any

$_ZZN9cacheflow39single_query_cached_kv_attention_kernelItLi80ELi8ELi128EEEvPT_PKS1_S4_S4_fPKiS6_iiE8red_smem = comdat any

$_ZZN9cacheflow39single_query_cached_kv_attention_kernelItLi96ELi8ELi128EEEvPT_PKS1_S4_S4_fPKiS6_iiE8red_smem = comdat any

$_ZZN9cacheflow39single_query_cached_kv_attention_kernelItLi128ELi8ELi128EEEvPT_PKS1_S4_S4_fPKiS6_iiE8red_smem = comdat any

$_ZZN9cacheflow39single_query_cached_kv_attention_kernelItLi160ELi8ELi128EEEvPT_PKS1_S4_S4_fPKiS6_iiE8red_smem = comdat any

$_ZZN9cacheflow39single_query_cached_kv_attention_kernelItLi192ELi8ELi128EEEvPT_PKS1_S4_S4_fPKiS6_iiE8red_smem = comdat any

$_ZZN9cacheflow39single_query_cached_kv_attention_kernelItLi256ELi8ELi128EEEvPT_PKS1_S4_S4_fPKiS6_iiE8red_smem = comdat any

$_ZZN9cacheflow39single_query_cached_kv_attention_kernelItLi32ELi16ELi128EEEvPT_PKS1_S4_S4_fPKiS6_iiE8red_smem = comdat any

$_ZZN9cacheflow39single_query_cached_kv_attention_kernelItLi64ELi16ELi128EEEvPT_PKS1_S4_S4_fPKiS6_iiE8red_smem = comdat any

$_ZZN9cacheflow39single_query_cached_kv_attention_kernelItLi80ELi16ELi128EEEvPT_PKS1_S4_S4_fPKiS6_iiE8red_smem = comdat any

$_ZZN9cacheflow39single_query_cached_kv_attention_kernelItLi96ELi16ELi128EEEvPT_PKS1_S4_S4_fPKiS6_iiE8red_smem = comdat any

$_ZZN9cacheflow39single_query_cached_kv_attention_kernelItLi128ELi16ELi128EEEvPT_PKS1_S4_S4_fPKiS6_iiE8red_smem = comdat any

$_ZZN9cacheflow39single_query_cached_kv_attention_kernelItLi160ELi16ELi128EEEvPT_PKS1_S4_S4_fPKiS6_iiE8red_smem = comdat any

$_ZZN9cacheflow39single_query_cached_kv_attention_kernelItLi192ELi16ELi128EEEvPT_PKS1_S4_S4_fPKiS6_iiE8red_smem = comdat any

$_ZZN9cacheflow39single_query_cached_kv_attention_kernelItLi256ELi16ELi128EEEvPT_PKS1_S4_S4_fPKiS6_iiE8red_smem = comdat any

$_ZZN9cacheflow39single_query_cached_kv_attention_kernelItLi32ELi32ELi128EEEvPT_PKS1_S4_S4_fPKiS6_iiE8red_smem = comdat any

$_ZZN9cacheflow39single_query_cached_kv_attention_kernelItLi64ELi32ELi128EEEvPT_PKS1_S4_S4_fPKiS6_iiE8red_smem = comdat any

$_ZZN9cacheflow39single_query_cached_kv_attention_kernelItLi80ELi32ELi128EEEvPT_PKS1_S4_S4_fPKiS6_iiE8red_smem = comdat any

$_ZZN9cacheflow39single_query_cached_kv_attention_kernelItLi96ELi32ELi128EEEvPT_PKS1_S4_S4_fPKiS6_iiE8red_smem = comdat any

$_ZZN9cacheflow39single_query_cached_kv_attention_kernelItLi128ELi32ELi128EEEvPT_PKS1_S4_S4_fPKiS6_iiE8red_smem = comdat any

$_ZZN9cacheflow39single_query_cached_kv_attention_kernelItLi160ELi32ELi128EEEvPT_PKS1_S4_S4_fPKiS6_iiE8red_smem = comdat any

$_ZZN9cacheflow39single_query_cached_kv_attention_kernelItLi192ELi32ELi128EEEvPT_PKS1_S4_S4_fPKiS6_iiE8red_smem = comdat any

$_ZZN9cacheflow39single_query_cached_kv_attention_kernelItLi256ELi32ELi128EEEvPT_PKS1_S4_S4_fPKiS6_iiE8red_smem = comdat any

$_ZZN9cacheflow39single_query_cached_kv_attention_kernelItLi32ELi64ELi128EEEvPT_PKS1_S4_S4_fPKiS6_iiE8red_smem = comdat any

$_ZZN9cacheflow39single_query_cached_kv_attention_kernelItLi64ELi64ELi128EEEvPT_PKS1_S4_S4_fPKiS6_iiE8red_smem = comdat any

$_ZZN9cacheflow39single_query_cached_kv_attention_kernelItLi80ELi64ELi128EEEvPT_PKS1_S4_S4_fPKiS6_iiE8red_smem = comdat any

$_ZZN9cacheflow39single_query_cached_kv_attention_kernelItLi96ELi64ELi128EEEvPT_PKS1_S4_S4_fPKiS6_iiE8red_smem = comdat any

$_ZZN9cacheflow39single_query_cached_kv_attention_kernelItLi128ELi64ELi128EEEvPT_PKS1_S4_S4_fPKiS6_iiE8red_smem = comdat any

$_ZZN9cacheflow39single_query_cached_kv_attention_kernelItLi160ELi64ELi128EEEvPT_PKS1_S4_S4_fPKiS6_iiE8red_smem = comdat any

$_ZZN9cacheflow39single_query_cached_kv_attention_kernelItLi192ELi64ELi128EEEvPT_PKS1_S4_S4_fPKiS6_iiE8red_smem = comdat any

$_ZZN9cacheflow39single_query_cached_kv_attention_kernelItLi256ELi64ELi128EEEvPT_PKS1_S4_S4_fPKiS6_iiE8red_smem = comdat any

$_ZZN9cacheflow39single_query_cached_kv_attention_kernelItLi32ELi128ELi128EEEvPT_PKS1_S4_S4_fPKiS6_iiE8red_smem = comdat any

$_ZZN9cacheflow39single_query_cached_kv_attention_kernelItLi64ELi128ELi128EEEvPT_PKS1_S4_S4_fPKiS6_iiE8red_smem = comdat any

$_ZZN9cacheflow39single_query_cached_kv_attention_kernelItLi80ELi128ELi128EEEvPT_PKS1_S4_S4_fPKiS6_iiE8red_smem = comdat any

$_ZZN9cacheflow39single_query_cached_kv_attention_kernelItLi96ELi128ELi128EEEvPT_PKS1_S4_S4_fPKiS6_iiE8red_smem = comdat any

$_ZZN9cacheflow39single_query_cached_kv_attention_kernelItLi128ELi128ELi128EEEvPT_PKS1_S4_S4_fPKiS6_iiE8red_smem = comdat any

$_ZZN9cacheflow39single_query_cached_kv_attention_kernelItLi160ELi128ELi128EEEvPT_PKS1_S4_S4_fPKiS6_iiE8red_smem = comdat any

$_ZZN9cacheflow39single_query_cached_kv_attention_kernelItLi192ELi128ELi128EEEvPT_PKS1_S4_S4_fPKiS6_iiE8red_smem = comdat any

$_ZZN9cacheflow39single_query_cached_kv_attention_kernelItLi256ELi128ELi128EEEvPT_PKS1_S4_S4_fPKiS6_iiE8red_smem = comdat any

$_ZZN9cacheflow39single_query_cached_kv_attention_kernelItLi32ELi256ELi128EEEvPT_PKS1_S4_S4_fPKiS6_iiE8red_smem = comdat any

$_ZZN9cacheflow39single_query_cached_kv_attention_kernelItLi64ELi256ELi128EEEvPT_PKS1_S4_S4_fPKiS6_iiE8red_smem = comdat any

$_ZZN9cacheflow39single_query_cached_kv_attention_kernelItLi80ELi256ELi128EEEvPT_PKS1_S4_S4_fPKiS6_iiE8red_smem = comdat any

$_ZZN9cacheflow39single_query_cached_kv_attention_kernelItLi96ELi256ELi128EEEvPT_PKS1_S4_S4_fPKiS6_iiE8red_smem = comdat any

$_ZZN9cacheflow39single_query_cached_kv_attention_kernelItLi128ELi256ELi128EEEvPT_PKS1_S4_S4_fPKiS6_iiE8red_smem = comdat any

$_ZZN9cacheflow39single_query_cached_kv_attention_kernelItLi160ELi256ELi128EEEvPT_PKS1_S4_S4_fPKiS6_iiE8red_smem = comdat any

$_ZZN9cacheflow39single_query_cached_kv_attention_kernelItLi192ELi256ELi128EEEvPT_PKS1_S4_S4_fPKiS6_iiE8red_smem = comdat any

$_ZZN9cacheflow39single_query_cached_kv_attention_kernelItLi256ELi256ELi128EEEvPT_PKS1_S4_S4_fPKiS6_iiE8red_smem = comdat any

@llvm.global_ctors = appending global [1 x { i32, void ()*, i8* }] [{ i32, void ()*, i8* } { i32 65535, void ()* @_GLOBAL__sub_I_attention_kernels.cu, i8* null }]
@_ZStL8__ioinit = internal global %"class.std::ios_base::Init" zeroinitializer, align 1
@__dso_handle = external hidden global i8
@__func__._Z32single_query_cached_kv_attentionRN2at6TensorES1_S1_S1_fS1_S1_ii = private unnamed_addr constant [33 x i8] c"single_query_cached_kv_attention\00", align 1
@.str = private unnamed_addr constant [65 x i8] c"/home/mvh6224/CUDA-BOSolver/coverage-exp/68/attention_kernels.cu\00", align 1
@.str.1 = private unnamed_addr constant [140 x i8] c"Expected false to be true, but got false.  (Could this error message be improved?  If so, please report an enhancement request to PyTorch.)\00", align 1
@.str.2 = private unnamed_addr constant [25 x i8] c"Unsupported block size: \00", align 1
@.str.3 = private unnamed_addr constant [24 x i8] c"Unsupported data type: \00", align 1
@.str.153 = private unnamed_addr constant [35 x i8] c"head_size % thread_group_size == 0\00", align 1
@__PRETTY_FUNCTION__._Z41single_query_cached_kv_attention_launcherItLi1ELi128EEvRN2at6TensorES2_S2_S2_fS2_S2_i = private unnamed_addr constant [217 x i8] c"void single_query_cached_kv_attention_launcher(torch::Tensor &, torch::Tensor &, torch::Tensor &, torch::Tensor &, float, torch::Tensor &, torch::Tensor &, int) [T = unsigned short, BLOCK_SIZE = 1, NUM_THREADS = 128]\00", align 1
@__func__._Z41single_query_cached_kv_attention_launcherItLi1ELi128EEvRN2at6TensorES2_S2_S2_fS2_S2_i = private unnamed_addr constant [42 x i8] c"single_query_cached_kv_attention_launcher\00", align 1
@.str.154 = private unnamed_addr constant [24 x i8] c"Unsupported head size: \00", align 1
@__func__._ZN3c108ArrayRefIlE26debugCheckNullptrInvariantEv = private unnamed_addr constant [27 x i8] c"debugCheckNullptrInvariant\00", align 1
@.str.155 = private unnamed_addr constant [102 x i8] c"/home/mvh6224/CUDA-BOSolver/.vllm_cuda/lib/python3.10/site-packages/torch/include/c10/util/ArrayRef.h\00", align 1
@.str.156 = private unnamed_addr constant [198 x i8] c"Data != nullptr || Length == 0 INTERNAL ASSERT FAILED at \22/home/mvh6224/CUDA-BOSolver/.vllm_cuda/lib/python3.10/site-packages/torch/include/c10/util/ArrayRef.h\22:64, please report a bug to PyTorch. \00", align 1
@.str.157 = private unnamed_addr constant [94 x i8] c"created ArrayRef with nullptr and non-zero length! std::optional relies on this being illegal\00", align 1
@__func__._ZNK3c1010TensorImpl9data_implIvZNS0_12mutable_dataEvEUlvE_EEPT_RKT0_ = private unnamed_addr constant [10 x i8] c"data_impl\00", align 1
@.str.158 = private unnamed_addr constant [104 x i8] c"/home/mvh6224/CUDA-BOSolver/.vllm_cuda/lib/python3.10/site-packages/torch/include/c10/core/TensorImpl.h\00", align 1
@.str.159 = private unnamed_addr constant [154 x i8] c"Expected dtype_initialized() to be true, but got false.  (Could this error message be improved?  If so, please report an enhancement request to PyTorch.)\00", align 1
@.str.160 = private unnamed_addr constant [144 x i8] c"Cannot access data pointer of Tensor that doesn't have initialized dtype (e.g., caffe2::Tensor x(CPU), prior to calling mutable_data<T>() on x)\00", align 1
@_ZN6caffe2L19scalarTypeItemSizesE = internal constant %"struct.std::array.413" { [46 x i8] c"\01\01\02\04\08\02\04\08\04\08\10\01\01\01\04\02\01\01\01\01\01\01\02\01\01\01\01\02\04\08\01\01\01\01\01\01\01\01\01\01\01\01\01\01\01\00" }, align 1
@__PRETTY_FUNCTION__._Z41single_query_cached_kv_attention_launcherItLi2ELi128EEvRN2at6TensorES2_S2_S2_fS2_S2_i = private unnamed_addr constant [217 x i8] c"void single_query_cached_kv_attention_launcher(torch::Tensor &, torch::Tensor &, torch::Tensor &, torch::Tensor &, float, torch::Tensor &, torch::Tensor &, int) [T = unsigned short, BLOCK_SIZE = 2, NUM_THREADS = 128]\00", align 1
@__PRETTY_FUNCTION__._Z41single_query_cached_kv_attention_launcherItLi4ELi128EEvRN2at6TensorES2_S2_S2_fS2_S2_i = private unnamed_addr constant [217 x i8] c"void single_query_cached_kv_attention_launcher(torch::Tensor &, torch::Tensor &, torch::Tensor &, torch::Tensor &, float, torch::Tensor &, torch::Tensor &, int) [T = unsigned short, BLOCK_SIZE = 4, NUM_THREADS = 128]\00", align 1
@__PRETTY_FUNCTION__._Z41single_query_cached_kv_attention_launcherItLi8ELi128EEvRN2at6TensorES2_S2_S2_fS2_S2_i = private unnamed_addr constant [217 x i8] c"void single_query_cached_kv_attention_launcher(torch::Tensor &, torch::Tensor &, torch::Tensor &, torch::Tensor &, float, torch::Tensor &, torch::Tensor &, int) [T = unsigned short, BLOCK_SIZE = 8, NUM_THREADS = 128]\00", align 1
@__PRETTY_FUNCTION__._Z41single_query_cached_kv_attention_launcherItLi16ELi128EEvRN2at6TensorES2_S2_S2_fS2_S2_i = private unnamed_addr constant [218 x i8] c"void single_query_cached_kv_attention_launcher(torch::Tensor &, torch::Tensor &, torch::Tensor &, torch::Tensor &, float, torch::Tensor &, torch::Tensor &, int) [T = unsigned short, BLOCK_SIZE = 16, NUM_THREADS = 128]\00", align 1
@__PRETTY_FUNCTION__._Z41single_query_cached_kv_attention_launcherItLi32ELi128EEvRN2at6TensorES2_S2_S2_fS2_S2_i = private unnamed_addr constant [218 x i8] c"void single_query_cached_kv_attention_launcher(torch::Tensor &, torch::Tensor &, torch::Tensor &, torch::Tensor &, float, torch::Tensor &, torch::Tensor &, int) [T = unsigned short, BLOCK_SIZE = 32, NUM_THREADS = 128]\00", align 1
@__PRETTY_FUNCTION__._Z41single_query_cached_kv_attention_launcherItLi64ELi128EEvRN2at6TensorES2_S2_S2_fS2_S2_i = private unnamed_addr constant [218 x i8] c"void single_query_cached_kv_attention_launcher(torch::Tensor &, torch::Tensor &, torch::Tensor &, torch::Tensor &, float, torch::Tensor &, torch::Tensor &, int) [T = unsigned short, BLOCK_SIZE = 64, NUM_THREADS = 128]\00", align 1
@__PRETTY_FUNCTION__._Z41single_query_cached_kv_attention_launcherItLi128ELi128EEvRN2at6TensorES2_S2_S2_fS2_S2_i = private unnamed_addr constant [219 x i8] c"void single_query_cached_kv_attention_launcher(torch::Tensor &, torch::Tensor &, torch::Tensor &, torch::Tensor &, float, torch::Tensor &, torch::Tensor &, int) [T = unsigned short, BLOCK_SIZE = 128, NUM_THREADS = 128]\00", align 1
@__PRETTY_FUNCTION__._Z41single_query_cached_kv_attention_launcherItLi256ELi128EEvRN2at6TensorES2_S2_S2_fS2_S2_i = private unnamed_addr constant [219 x i8] c"void single_query_cached_kv_attention_launcher(torch::Tensor &, torch::Tensor &, torch::Tensor &, torch::Tensor &, float, torch::Tensor &, torch::Tensor &, int) [T = unsigned short, BLOCK_SIZE = 256, NUM_THREADS = 128]\00", align 1
@_ZN9cacheflow10shared_memE = external dso_local addrspace(3) global [0 x i8], align 1
@_ZZN9cacheflow39single_query_cached_kv_attention_kernelItLi32ELi1ELi128EEEvPT_PKS1_S4_S4_fPKiS6_iiE8red_smem = linkonce_odr dso_local addrspace(3) global [8 x float] undef, comdat, align 4
@_ZZN9cacheflow39single_query_cached_kv_attention_kernelItLi64ELi1ELi128EEEvPT_PKS1_S4_S4_fPKiS6_iiE8red_smem = linkonce_odr dso_local addrspace(3) global [8 x float] undef, comdat, align 4
@_ZZN9cacheflow39single_query_cached_kv_attention_kernelItLi80ELi1ELi128EEEvPT_PKS1_S4_S4_fPKiS6_iiE8red_smem = linkonce_odr dso_local addrspace(3) global [8 x float] undef, comdat, align 4
@_ZZN9cacheflow39single_query_cached_kv_attention_kernelItLi96ELi1ELi128EEEvPT_PKS1_S4_S4_fPKiS6_iiE8red_smem = linkonce_odr dso_local addrspace(3) global [8 x float] undef, comdat, align 4
@_ZZN9cacheflow39single_query_cached_kv_attention_kernelItLi128ELi1ELi128EEEvPT_PKS1_S4_S4_fPKiS6_iiE8red_smem = linkonce_odr dso_local addrspace(3) global [8 x float] undef, comdat, align 4
@_ZZN9cacheflow39single_query_cached_kv_attention_kernelItLi160ELi1ELi128EEEvPT_PKS1_S4_S4_fPKiS6_iiE8red_smem = linkonce_odr dso_local addrspace(3) global [8 x float] undef, comdat, align 4
@_ZZN9cacheflow39single_query_cached_kv_attention_kernelItLi192ELi1ELi128EEEvPT_PKS1_S4_S4_fPKiS6_iiE8red_smem = linkonce_odr dso_local addrspace(3) global [8 x float] undef, comdat, align 4
@_ZZN9cacheflow39single_query_cached_kv_attention_kernelItLi256ELi1ELi128EEEvPT_PKS1_S4_S4_fPKiS6_iiE8red_smem = linkonce_odr dso_local addrspace(3) global [8 x float] undef, comdat, align 4
@_ZZN9cacheflow39single_query_cached_kv_attention_kernelItLi32ELi2ELi128EEEvPT_PKS1_S4_S4_fPKiS6_iiE8red_smem = linkonce_odr dso_local addrspace(3) global [8 x float] undef, comdat, align 4
@_ZZN9cacheflow39single_query_cached_kv_attention_kernelItLi64ELi2ELi128EEEvPT_PKS1_S4_S4_fPKiS6_iiE8red_smem = linkonce_odr dso_local addrspace(3) global [8 x float] undef, comdat, align 4
@_ZZN9cacheflow39single_query_cached_kv_attention_kernelItLi80ELi2ELi128EEEvPT_PKS1_S4_S4_fPKiS6_iiE8red_smem = linkonce_odr dso_local addrspace(3) global [8 x float] undef, comdat, align 4
@_ZZN9cacheflow39single_query_cached_kv_attention_kernelItLi96ELi2ELi128EEEvPT_PKS1_S4_S4_fPKiS6_iiE8red_smem = linkonce_odr dso_local addrspace(3) global [8 x float] undef, comdat, align 4
@_ZZN9cacheflow39single_query_cached_kv_attention_kernelItLi128ELi2ELi128EEEvPT_PKS1_S4_S4_fPKiS6_iiE8red_smem = linkonce_odr dso_local addrspace(3) global [8 x float] undef, comdat, align 4
@_ZZN9cacheflow39single_query_cached_kv_attention_kernelItLi160ELi2ELi128EEEvPT_PKS1_S4_S4_fPKiS6_iiE8red_smem = linkonce_odr dso_local addrspace(3) global [8 x float] undef, comdat, align 4
@_ZZN9cacheflow39single_query_cached_kv_attention_kernelItLi192ELi2ELi128EEEvPT_PKS1_S4_S4_fPKiS6_iiE8red_smem = linkonce_odr dso_local addrspace(3) global [8 x float] undef, comdat, align 4
@_ZZN9cacheflow39single_query_cached_kv_attention_kernelItLi256ELi2ELi128EEEvPT_PKS1_S4_S4_fPKiS6_iiE8red_smem = linkonce_odr dso_local addrspace(3) global [8 x float] undef, comdat, align 4
@_ZZN9cacheflow39single_query_cached_kv_attention_kernelItLi32ELi4ELi128EEEvPT_PKS1_S4_S4_fPKiS6_iiE8red_smem = linkonce_odr dso_local addrspace(3) global [8 x float] undef, comdat, align 4
@_ZZN9cacheflow39single_query_cached_kv_attention_kernelItLi64ELi4ELi128EEEvPT_PKS1_S4_S4_fPKiS6_iiE8red_smem = linkonce_odr dso_local addrspace(3) global [8 x float] undef, comdat, align 4
@_ZZN9cacheflow39single_query_cached_kv_attention_kernelItLi80ELi4ELi128EEEvPT_PKS1_S4_S4_fPKiS6_iiE8red_smem = linkonce_odr dso_local addrspace(3) global [8 x float] undef, comdat, align 4
@_ZZN9cacheflow39single_query_cached_kv_attention_kernelItLi96ELi4ELi128EEEvPT_PKS1_S4_S4_fPKiS6_iiE8red_smem = linkonce_odr dso_local addrspace(3) global [8 x float] undef, comdat, align 4
@_ZZN9cacheflow39single_query_cached_kv_attention_kernelItLi128ELi4ELi128EEEvPT_PKS1_S4_S4_fPKiS6_iiE8red_smem = linkonce_odr dso_local addrspace(3) global [8 x float] undef, comdat, align 4
@_ZZN9cacheflow39single_query_cached_kv_attention_kernelItLi160ELi4ELi128EEEvPT_PKS1_S4_S4_fPKiS6_iiE8red_smem = linkonce_odr dso_local addrspace(3) global [8 x float] undef, comdat, align 4
@_ZZN9cacheflow39single_query_cached_kv_attention_kernelItLi192ELi4ELi128EEEvPT_PKS1_S4_S4_fPKiS6_iiE8red_smem = linkonce_odr dso_local addrspace(3) global [8 x float] undef, comdat, align 4
@_ZZN9cacheflow39single_query_cached_kv_attention_kernelItLi256ELi4ELi128EEEvPT_PKS1_S4_S4_fPKiS6_iiE8red_smem = linkonce_odr dso_local addrspace(3) global [8 x float] undef, comdat, align 4
@_ZZN9cacheflow39single_query_cached_kv_attention_kernelItLi32ELi8ELi128EEEvPT_PKS1_S4_S4_fPKiS6_iiE8red_smem = linkonce_odr dso_local addrspace(3) global [8 x float] undef, comdat, align 4
@_ZZN9cacheflow39single_query_cached_kv_attention_kernelItLi64ELi8ELi128EEEvPT_PKS1_S4_S4_fPKiS6_iiE8red_smem = linkonce_odr dso_local addrspace(3) global [8 x float] undef, comdat, align 4
@_ZZN9cacheflow39single_query_cached_kv_attention_kernelItLi80ELi8ELi128EEEvPT_PKS1_S4_S4_fPKiS6_iiE8red_smem = linkonce_odr dso_local addrspace(3) global [8 x float] undef, comdat, align 4
@_ZZN9cacheflow39single_query_cached_kv_attention_kernelItLi96ELi8ELi128EEEvPT_PKS1_S4_S4_fPKiS6_iiE8red_smem = linkonce_odr dso_local addrspace(3) global [8 x float] undef, comdat, align 4
@_ZZN9cacheflow39single_query_cached_kv_attention_kernelItLi128ELi8ELi128EEEvPT_PKS1_S4_S4_fPKiS6_iiE8red_smem = linkonce_odr dso_local addrspace(3) global [8 x float] undef, comdat, align 4
@_ZZN9cacheflow39single_query_cached_kv_attention_kernelItLi160ELi8ELi128EEEvPT_PKS1_S4_S4_fPKiS6_iiE8red_smem = linkonce_odr dso_local addrspace(3) global [8 x float] undef, comdat, align 4
@_ZZN9cacheflow39single_query_cached_kv_attention_kernelItLi192ELi8ELi128EEEvPT_PKS1_S4_S4_fPKiS6_iiE8red_smem = linkonce_odr dso_local addrspace(3) global [8 x float] undef, comdat, align 4
@_ZZN9cacheflow39single_query_cached_kv_attention_kernelItLi256ELi8ELi128EEEvPT_PKS1_S4_S4_fPKiS6_iiE8red_smem = linkonce_odr dso_local addrspace(3) global [8 x float] undef, comdat, align 4
@_ZZN9cacheflow39single_query_cached_kv_attention_kernelItLi32ELi16ELi128EEEvPT_PKS1_S4_S4_fPKiS6_iiE8red_smem = linkonce_odr dso_local addrspace(3) global [8 x float] undef, comdat, align 4
@_ZZN9cacheflow39single_query_cached_kv_attention_kernelItLi64ELi16ELi128EEEvPT_PKS1_S4_S4_fPKiS6_iiE8red_smem = linkonce_odr dso_local addrspace(3) global [8 x float] undef, comdat, align 4
@_ZZN9cacheflow39single_query_cached_kv_attention_kernelItLi80ELi16ELi128EEEvPT_PKS1_S4_S4_fPKiS6_iiE8red_smem = linkonce_odr dso_local addrspace(3) global [8 x float] undef, comdat, align 4
@_ZZN9cacheflow39single_query_cached_kv_attention_kernelItLi96ELi16ELi128EEEvPT_PKS1_S4_S4_fPKiS6_iiE8red_smem = linkonce_odr dso_local addrspace(3) global [8 x float] undef, comdat, align 4
@_ZZN9cacheflow39single_query_cached_kv_attention_kernelItLi128ELi16ELi128EEEvPT_PKS1_S4_S4_fPKiS6_iiE8red_smem = linkonce_odr dso_local addrspace(3) global [8 x float] undef, comdat, align 4
@_ZZN9cacheflow39single_query_cached_kv_attention_kernelItLi160ELi16ELi128EEEvPT_PKS1_S4_S4_fPKiS6_iiE8red_smem = linkonce_odr dso_local addrspace(3) global [8 x float] undef, comdat, align 4
@_ZZN9cacheflow39single_query_cached_kv_attention_kernelItLi192ELi16ELi128EEEvPT_PKS1_S4_S4_fPKiS6_iiE8red_smem = linkonce_odr dso_local addrspace(3) global [8 x float] undef, comdat, align 4
@_ZZN9cacheflow39single_query_cached_kv_attention_kernelItLi256ELi16ELi128EEEvPT_PKS1_S4_S4_fPKiS6_iiE8red_smem = linkonce_odr dso_local addrspace(3) global [8 x float] undef, comdat, align 4
@_ZZN9cacheflow39single_query_cached_kv_attention_kernelItLi32ELi32ELi128EEEvPT_PKS1_S4_S4_fPKiS6_iiE8red_smem = linkonce_odr dso_local addrspace(3) global [8 x float] undef, comdat, align 4
@_ZZN9cacheflow39single_query_cached_kv_attention_kernelItLi64ELi32ELi128EEEvPT_PKS1_S4_S4_fPKiS6_iiE8red_smem = linkonce_odr dso_local addrspace(3) global [8 x float] undef, comdat, align 4
@_ZZN9cacheflow39single_query_cached_kv_attention_kernelItLi80ELi32ELi128EEEvPT_PKS1_S4_S4_fPKiS6_iiE8red_smem = linkonce_odr dso_local addrspace(3) global [8 x float] undef, comdat, align 4
@_ZZN9cacheflow39single_query_cached_kv_attention_kernelItLi96ELi32ELi128EEEvPT_PKS1_S4_S4_fPKiS6_iiE8red_smem = linkonce_odr dso_local addrspace(3) global [8 x float] undef, comdat, align 4
@_ZZN9cacheflow39single_query_cached_kv_attention_kernelItLi128ELi32ELi128EEEvPT_PKS1_S4_S4_fPKiS6_iiE8red_smem = linkonce_odr dso_local addrspace(3) global [8 x float] undef, comdat, align 4
@_ZZN9cacheflow39single_query_cached_kv_attention_kernelItLi160ELi32ELi128EEEvPT_PKS1_S4_S4_fPKiS6_iiE8red_smem = linkonce_odr dso_local addrspace(3) global [8 x float] undef, comdat, align 4
@_ZZN9cacheflow39single_query_cached_kv_attention_kernelItLi192ELi32ELi128EEEvPT_PKS1_S4_S4_fPKiS6_iiE8red_smem = linkonce_odr dso_local addrspace(3) global [8 x float] undef, comdat, align 4
@_ZZN9cacheflow39single_query_cached_kv_attention_kernelItLi256ELi32ELi128EEEvPT_PKS1_S4_S4_fPKiS6_iiE8red_smem = linkonce_odr dso_local addrspace(3) global [8 x float] undef, comdat, align 4
@_ZZN9cacheflow39single_query_cached_kv_attention_kernelItLi32ELi64ELi128EEEvPT_PKS1_S4_S4_fPKiS6_iiE8red_smem = linkonce_odr dso_local addrspace(3) global [8 x float] undef, comdat, align 4
@_ZZN9cacheflow39single_query_cached_kv_attention_kernelItLi64ELi64ELi128EEEvPT_PKS1_S4_S4_fPKiS6_iiE8red_smem = linkonce_odr dso_local addrspace(3) global [8 x float] undef, comdat, align 4
@_ZZN9cacheflow39single_query_cached_kv_attention_kernelItLi80ELi64ELi128EEEvPT_PKS1_S4_S4_fPKiS6_iiE8red_smem = linkonce_odr dso_local addrspace(3) global [8 x float] undef, comdat, align 4
@_ZZN9cacheflow39single_query_cached_kv_attention_kernelItLi96ELi64ELi128EEEvPT_PKS1_S4_S4_fPKiS6_iiE8red_smem = linkonce_odr dso_local addrspace(3) global [8 x float] undef, comdat, align 4
@_ZZN9cacheflow39single_query_cached_kv_attention_kernelItLi128ELi64ELi128EEEvPT_PKS1_S4_S4_fPKiS6_iiE8red_smem = linkonce_odr dso_local addrspace(3) global [8 x float] undef, comdat, align 4
@_ZZN9cacheflow39single_query_cached_kv_attention_kernelItLi160ELi64ELi128EEEvPT_PKS1_S4_S4_fPKiS6_iiE8red_smem = linkonce_odr dso_local addrspace(3) global [8 x float] undef, comdat, align 4
@_ZZN9cacheflow39single_query_cached_kv_attention_kernelItLi192ELi64ELi128EEEvPT_PKS1_S4_S4_fPKiS6_iiE8red_smem = linkonce_odr dso_local addrspace(3) global [8 x float] undef, comdat, align 4
@_ZZN9cacheflow39single_query_cached_kv_attention_kernelItLi256ELi64ELi128EEEvPT_PKS1_S4_S4_fPKiS6_iiE8red_smem = linkonce_odr dso_local addrspace(3) global [8 x float] undef, comdat, align 4
@_ZZN9cacheflow39single_query_cached_kv_attention_kernelItLi32ELi128ELi128EEEvPT_PKS1_S4_S4_fPKiS6_iiE8red_smem = linkonce_odr dso_local addrspace(3) global [8 x float] undef, comdat, align 4
@_ZZN9cacheflow39single_query_cached_kv_attention_kernelItLi64ELi128ELi128EEEvPT_PKS1_S4_S4_fPKiS6_iiE8red_smem = linkonce_odr dso_local addrspace(3) global [8 x float] undef, comdat, align 4
@_ZZN9cacheflow39single_query_cached_kv_attention_kernelItLi80ELi128ELi128EEEvPT_PKS1_S4_S4_fPKiS6_iiE8red_smem = linkonce_odr dso_local addrspace(3) global [8 x float] undef, comdat, align 4
@_ZZN9cacheflow39single_query_cached_kv_attention_kernelItLi96ELi128ELi128EEEvPT_PKS1_S4_S4_fPKiS6_iiE8red_smem = linkonce_odr dso_local addrspace(3) global [8 x float] undef, comdat, align 4
@_ZZN9cacheflow39single_query_cached_kv_attention_kernelItLi128ELi128ELi128EEEvPT_PKS1_S4_S4_fPKiS6_iiE8red_smem = linkonce_odr dso_local addrspace(3) global [8 x float] undef, comdat, align 4
@_ZZN9cacheflow39single_query_cached_kv_attention_kernelItLi160ELi128ELi128EEEvPT_PKS1_S4_S4_fPKiS6_iiE8red_smem = linkonce_odr dso_local addrspace(3) global [8 x float] undef, comdat, align 4
@_ZZN9cacheflow39single_query_cached_kv_attention_kernelItLi192ELi128ELi128EEEvPT_PKS1_S4_S4_fPKiS6_iiE8red_smem = linkonce_odr dso_local addrspace(3) global [8 x float] undef, comdat, align 4
@_ZZN9cacheflow39single_query_cached_kv_attention_kernelItLi256ELi128ELi128EEEvPT_PKS1_S4_S4_fPKiS6_iiE8red_smem = linkonce_odr dso_local addrspace(3) global [8 x float] undef, comdat, align 4
@_ZZN9cacheflow39single_query_cached_kv_attention_kernelItLi32ELi256ELi128EEEvPT_PKS1_S4_S4_fPKiS6_iiE8red_smem = linkonce_odr dso_local addrspace(3) global [8 x float] undef, comdat, align 4
@_ZZN9cacheflow39single_query_cached_kv_attention_kernelItLi64ELi256ELi128EEEvPT_PKS1_S4_S4_fPKiS6_iiE8red_smem = linkonce_odr dso_local addrspace(3) global [8 x float] undef, comdat, align 4
@_ZZN9cacheflow39single_query_cached_kv_attention_kernelItLi80ELi256ELi128EEEvPT_PKS1_S4_S4_fPKiS6_iiE8red_smem = linkonce_odr dso_local addrspace(3) global [8 x float] undef, comdat, align 4
@_ZZN9cacheflow39single_query_cached_kv_attention_kernelItLi96ELi256ELi128EEEvPT_PKS1_S4_S4_fPKiS6_iiE8red_smem = linkonce_odr dso_local addrspace(3) global [8 x float] undef, comdat, align 4
@_ZZN9cacheflow39single_query_cached_kv_attention_kernelItLi128ELi256ELi128EEEvPT_PKS1_S4_S4_fPKiS6_iiE8red_smem = linkonce_odr dso_local addrspace(3) global [8 x float] undef, comdat, align 4
@_ZZN9cacheflow39single_query_cached_kv_attention_kernelItLi160ELi256ELi128EEEvPT_PKS1_S4_S4_fPKiS6_iiE8red_smem = linkonce_odr dso_local addrspace(3) global [8 x float] undef, comdat, align 4
@_ZZN9cacheflow39single_query_cached_kv_attention_kernelItLi192ELi256ELi128EEEvPT_PKS1_S4_S4_fPKiS6_iiE8red_smem = linkonce_odr dso_local addrspace(3) global [8 x float] undef, comdat, align 4
@_ZZN9cacheflow39single_query_cached_kv_attention_kernelItLi256ELi256ELi128EEEvPT_PKS1_S4_S4_fPKiS6_iiE8red_smem = linkonce_odr dso_local addrspace(3) global [8 x float] undef, comdat, align 4

; Function Attrs: noinline uwtable
define internal void @_GLOBAL__sub_I_attention_kernels.cu() #0 section ".text.startup" {
  call void @__cxx_global_var_init()
  ret void
}

; Function Attrs: noinline uwtable
define internal void @__cxx_global_var_init() #0 section ".text.startup" {
  call void @_ZNSt8ios_base4InitC1Ev(%"class.std::ios_base::Init"* nonnull align 1 dereferenceable(1) @_ZStL8__ioinit)
  %1 = call i32 @__cxa_atexit(void (i8*)* bitcast (void (%"class.std::ios_base::Init"*)* @_ZNSt8ios_base4InitD1Ev to void (i8*)*), i8* getelementptr inbounds (%"class.std::ios_base::Init", %"class.std::ios_base::Init"* @_ZStL8__ioinit, i32 0, i32 0), i8* @__dso_handle) #3
  ret void
}

declare dso_local void @_ZNSt8ios_base4InitC1Ev(%"class.std::ios_base::Init"* nonnull align 1 dereferenceable(1)) unnamed_addr #1

; Function Attrs: nounwind
declare dso_local void @_ZNSt8ios_base4InitD1Ev(%"class.std::ios_base::Init"* nonnull align 1 dereferenceable(1)) unnamed_addr #2

; Function Attrs: nounwind
declare dso_local i32 @__cxa_atexit(void (i8*)*, i8*, i8*) #3

; Function Attrs: mustprogress noinline optnone uwtable
define dso_local void @_Z32single_query_cached_kv_attentionRN2at6TensorES1_S1_S1_fS1_S1_ii(%"class.at::Tensor"* nonnull align 8 dereferenceable(8) %0, %"class.at::Tensor"* nonnull align 8 dereferenceable(8) %1, %"class.at::Tensor"* nonnull align 8 dereferenceable(8) %2, %"class.at::Tensor"* nonnull align 8 dereferenceable(8) %3, float %4, %"class.at::Tensor"* nonnull align 8 dereferenceable(8) %5, %"class.at::Tensor"* nonnull align 8 dereferenceable(8) %6, i32 %7, i32 %8) #4 personality i8* bitcast (i32 (...)* @__gxx_personality_v0 to i8*) {
  %10 = alloca %"class.at::Tensor"*, align 8
  %11 = alloca %"class.at::Tensor"*, align 8
  %12 = alloca %"class.at::Tensor"*, align 8
  %13 = alloca %"class.at::Tensor"*, align 8
  %14 = alloca float, align 4
  %15 = alloca %"class.at::Tensor"*, align 8
  %16 = alloca %"class.at::Tensor"*, align 8
  %17 = alloca i32, align 4
  %18 = alloca i32, align 4
  %19 = alloca %"class.caffe2::TypeMeta", align 2
  %20 = alloca %"class.std::__cxx11::basic_string", align 8
  %21 = alloca i8*, align 8
  %22 = alloca i32, align 4
  %23 = alloca %"class.std::__cxx11::basic_string", align 8
  %24 = alloca %"class.caffe2::TypeMeta", align 2
  store %"class.at::Tensor"* %0, %"class.at::Tensor"** %10, align 8
  store %"class.at::Tensor"* %1, %"class.at::Tensor"** %11, align 8
  store %"class.at::Tensor"* %2, %"class.at::Tensor"** %12, align 8
  store %"class.at::Tensor"* %3, %"class.at::Tensor"** %13, align 8
  store float %4, float* %14, align 4
  store %"class.at::Tensor"* %5, %"class.at::Tensor"** %15, align 8
  store %"class.at::Tensor"* %6, %"class.at::Tensor"** %16, align 8
  store i32 %7, i32* %17, align 4
  store i32 %8, i32* %18, align 4
  %25 = load %"class.at::Tensor"*, %"class.at::Tensor"** %11, align 8
  %26 = bitcast %"class.at::Tensor"* %25 to %"class.at::TensorBase"*
  %27 = call i16 @_ZNK2at10TensorBase5dtypeEv(%"class.at::TensorBase"* nonnull align 8 dereferenceable(8) %26)
  %28 = getelementptr inbounds %"class.caffe2::TypeMeta", %"class.caffe2::TypeMeta"* %19, i32 0, i32 0
  store i16 %27, i16* %28, align 2
  %29 = getelementptr inbounds %"class.caffe2::TypeMeta", %"class.caffe2::TypeMeta"* %19, i32 0, i32 0
  %30 = load i16, i16* %29, align 2
  %31 = call zeroext i1 @_ZN3c10eqEN6caffe28TypeMetaENS_10ScalarTypeE(i16 %30, i8 signext 5)
  br i1 %31, label %32, label %122

32:                                               ; preds = %9
  %33 = load i32, i32* %17, align 4
  switch i32 %33, label %115 [
    i32 1, label %34
    i32 2, label %43
    i32 4, label %52
    i32 8, label %61
    i32 16, label %70
    i32 32, label %79
    i32 64, label %88
    i32 128, label %97
    i32 256, label %106
  ]

34:                                               ; preds = %32
  %35 = load %"class.at::Tensor"*, %"class.at::Tensor"** %10, align 8
  %36 = load %"class.at::Tensor"*, %"class.at::Tensor"** %11, align 8
  %37 = load %"class.at::Tensor"*, %"class.at::Tensor"** %12, align 8
  %38 = load %"class.at::Tensor"*, %"class.at::Tensor"** %13, align 8
  %39 = load float, float* %14, align 4
  %40 = load %"class.at::Tensor"*, %"class.at::Tensor"** %15, align 8
  %41 = load %"class.at::Tensor"*, %"class.at::Tensor"** %16, align 8
  %42 = load i32, i32* %18, align 4
  call void @_Z41single_query_cached_kv_attention_launcherItLi1ELi128EEvRN2at6TensorES2_S2_S2_fS2_S2_i(%"class.at::Tensor"* nonnull align 8 dereferenceable(8) %35, %"class.at::Tensor"* nonnull align 8 dereferenceable(8) %36, %"class.at::Tensor"* nonnull align 8 dereferenceable(8) %37, %"class.at::Tensor"* nonnull align 8 dereferenceable(8) %38, float %39, %"class.at::Tensor"* nonnull align 8 dereferenceable(8) %40, %"class.at::Tensor"* nonnull align 8 dereferenceable(8) %41, i32 %42)
  br label %121

43:                                               ; preds = %32
  %44 = load %"class.at::Tensor"*, %"class.at::Tensor"** %10, align 8
  %45 = load %"class.at::Tensor"*, %"class.at::Tensor"** %11, align 8
  %46 = load %"class.at::Tensor"*, %"class.at::Tensor"** %12, align 8
  %47 = load %"class.at::Tensor"*, %"class.at::Tensor"** %13, align 8
  %48 = load float, float* %14, align 4
  %49 = load %"class.at::Tensor"*, %"class.at::Tensor"** %15, align 8
  %50 = load %"class.at::Tensor"*, %"class.at::Tensor"** %16, align 8
  %51 = load i32, i32* %18, align 4
  call void @_Z41single_query_cached_kv_attention_launcherItLi2ELi128EEvRN2at6TensorES2_S2_S2_fS2_S2_i(%"class.at::Tensor"* nonnull align 8 dereferenceable(8) %44, %"class.at::Tensor"* nonnull align 8 dereferenceable(8) %45, %"class.at::Tensor"* nonnull align 8 dereferenceable(8) %46, %"class.at::Tensor"* nonnull align 8 dereferenceable(8) %47, float %48, %"class.at::Tensor"* nonnull align 8 dereferenceable(8) %49, %"class.at::Tensor"* nonnull align 8 dereferenceable(8) %50, i32 %51)
  br label %121

52:                                               ; preds = %32
  %53 = load %"class.at::Tensor"*, %"class.at::Tensor"** %10, align 8
  %54 = load %"class.at::Tensor"*, %"class.at::Tensor"** %11, align 8
  %55 = load %"class.at::Tensor"*, %"class.at::Tensor"** %12, align 8
  %56 = load %"class.at::Tensor"*, %"class.at::Tensor"** %13, align 8
  %57 = load float, float* %14, align 4
  %58 = load %"class.at::Tensor"*, %"class.at::Tensor"** %15, align 8
  %59 = load %"class.at::Tensor"*, %"class.at::Tensor"** %16, align 8
  %60 = load i32, i32* %18, align 4
  call void @_Z41single_query_cached_kv_attention_launcherItLi4ELi128EEvRN2at6TensorES2_S2_S2_fS2_S2_i(%"class.at::Tensor"* nonnull align 8 dereferenceable(8) %53, %"class.at::Tensor"* nonnull align 8 dereferenceable(8) %54, %"class.at::Tensor"* nonnull align 8 dereferenceable(8) %55, %"class.at::Tensor"* nonnull align 8 dereferenceable(8) %56, float %57, %"class.at::Tensor"* nonnull align 8 dereferenceable(8) %58, %"class.at::Tensor"* nonnull align 8 dereferenceable(8) %59, i32 %60)
  br label %121

61:                                               ; preds = %32
  %62 = load %"class.at::Tensor"*, %"class.at::Tensor"** %10, align 8
  %63 = load %"class.at::Tensor"*, %"class.at::Tensor"** %11, align 8
  %64 = load %"class.at::Tensor"*, %"class.at::Tensor"** %12, align 8
  %65 = load %"class.at::Tensor"*, %"class.at::Tensor"** %13, align 8
  %66 = load float, float* %14, align 4
  %67 = load %"class.at::Tensor"*, %"class.at::Tensor"** %15, align 8
  %68 = load %"class.at::Tensor"*, %"class.at::Tensor"** %16, align 8
  %69 = load i32, i32* %18, align 4
  call void @_Z41single_query_cached_kv_attention_launcherItLi8ELi128EEvRN2at6TensorES2_S2_S2_fS2_S2_i(%"class.at::Tensor"* nonnull align 8 dereferenceable(8) %62, %"class.at::Tensor"* nonnull align 8 dereferenceable(8) %63, %"class.at::Tensor"* nonnull align 8 dereferenceable(8) %64, %"class.at::Tensor"* nonnull align 8 dereferenceable(8) %65, float %66, %"class.at::Tensor"* nonnull align 8 dereferenceable(8) %67, %"class.at::Tensor"* nonnull align 8 dereferenceable(8) %68, i32 %69)
  br label %121

70:                                               ; preds = %32
  %71 = load %"class.at::Tensor"*, %"class.at::Tensor"** %10, align 8
  %72 = load %"class.at::Tensor"*, %"class.at::Tensor"** %11, align 8
  %73 = load %"class.at::Tensor"*, %"class.at::Tensor"** %12, align 8
  %74 = load %"class.at::Tensor"*, %"class.at::Tensor"** %13, align 8
  %75 = load float, float* %14, align 4
  %76 = load %"class.at::Tensor"*, %"class.at::Tensor"** %15, align 8
  %77 = load %"class.at::Tensor"*, %"class.at::Tensor"** %16, align 8
  %78 = load i32, i32* %18, align 4
  call void @_Z41single_query_cached_kv_attention_launcherItLi16ELi128EEvRN2at6TensorES2_S2_S2_fS2_S2_i(%"class.at::Tensor"* nonnull align 8 dereferenceable(8) %71, %"class.at::Tensor"* nonnull align 8 dereferenceable(8) %72, %"class.at::Tensor"* nonnull align 8 dereferenceable(8) %73, %"class.at::Tensor"* nonnull align 8 dereferenceable(8) %74, float %75, %"class.at::Tensor"* nonnull align 8 dereferenceable(8) %76, %"class.at::Tensor"* nonnull align 8 dereferenceable(8) %77, i32 %78)
  br label %121

79:                                               ; preds = %32
  %80 = load %"class.at::Tensor"*, %"class.at::Tensor"** %10, align 8
  %81 = load %"class.at::Tensor"*, %"class.at::Tensor"** %11, align 8
  %82 = load %"class.at::Tensor"*, %"class.at::Tensor"** %12, align 8
  %83 = load %"class.at::Tensor"*, %"class.at::Tensor"** %13, align 8
  %84 = load float, float* %14, align 4
  %85 = load %"class.at::Tensor"*, %"class.at::Tensor"** %15, align 8
  %86 = load %"class.at::Tensor"*, %"class.at::Tensor"** %16, align 8
  %87 = load i32, i32* %18, align 4
  call void @_Z41single_query_cached_kv_attention_launcherItLi32ELi128EEvRN2at6TensorES2_S2_S2_fS2_S2_i(%"class.at::Tensor"* nonnull align 8 dereferenceable(8) %80, %"class.at::Tensor"* nonnull align 8 dereferenceable(8) %81, %"class.at::Tensor"* nonnull align 8 dereferenceable(8) %82, %"class.at::Tensor"* nonnull align 8 dereferenceable(8) %83, float %84, %"class.at::Tensor"* nonnull align 8 dereferenceable(8) %85, %"class.at::Tensor"* nonnull align 8 dereferenceable(8) %86, i32 %87)
  br label %121

88:                                               ; preds = %32
  %89 = load %"class.at::Tensor"*, %"class.at::Tensor"** %10, align 8
  %90 = load %"class.at::Tensor"*, %"class.at::Tensor"** %11, align 8
  %91 = load %"class.at::Tensor"*, %"class.at::Tensor"** %12, align 8
  %92 = load %"class.at::Tensor"*, %"class.at::Tensor"** %13, align 8
  %93 = load float, float* %14, align 4
  %94 = load %"class.at::Tensor"*, %"class.at::Tensor"** %15, align 8
  %95 = load %"class.at::Tensor"*, %"class.at::Tensor"** %16, align 8
  %96 = load i32, i32* %18, align 4
  call void @_Z41single_query_cached_kv_attention_launcherItLi64ELi128EEvRN2at6TensorES2_S2_S2_fS2_S2_i(%"class.at::Tensor"* nonnull align 8 dereferenceable(8) %89, %"class.at::Tensor"* nonnull align 8 dereferenceable(8) %90, %"class.at::Tensor"* nonnull align 8 dereferenceable(8) %91, %"class.at::Tensor"* nonnull align 8 dereferenceable(8) %92, float %93, %"class.at::Tensor"* nonnull align 8 dereferenceable(8) %94, %"class.at::Tensor"* nonnull align 8 dereferenceable(8) %95, i32 %96)
  br label %121

97:                                               ; preds = %32
  %98 = load %"class.at::Tensor"*, %"class.at::Tensor"** %10, align 8
  %99 = load %"class.at::Tensor"*, %"class.at::Tensor"** %11, align 8
  %100 = load %"class.at::Tensor"*, %"class.at::Tensor"** %12, align 8
  %101 = load %"class.at::Tensor"*, %"class.at::Tensor"** %13, align 8
  %102 = load float, float* %14, align 4
  %103 = load %"class.at::Tensor"*, %"class.at::Tensor"** %15, align 8
  %104 = load %"class.at::Tensor"*, %"class.at::Tensor"** %16, align 8
  %105 = load i32, i32* %18, align 4
  call void @_Z41single_query_cached_kv_attention_launcherItLi128ELi128EEvRN2at6TensorES2_S2_S2_fS2_S2_i(%"class.at::Tensor"* nonnull align 8 dereferenceable(8) %98, %"class.at::Tensor"* nonnull align 8 dereferenceable(8) %99, %"class.at::Tensor"* nonnull align 8 dereferenceable(8) %100, %"class.at::Tensor"* nonnull align 8 dereferenceable(8) %101, float %102, %"class.at::Tensor"* nonnull align 8 dereferenceable(8) %103, %"class.at::Tensor"* nonnull align 8 dereferenceable(8) %104, i32 %105)
  br label %121

106:                                              ; preds = %32
  %107 = load %"class.at::Tensor"*, %"class.at::Tensor"** %10, align 8
  %108 = load %"class.at::Tensor"*, %"class.at::Tensor"** %11, align 8
  %109 = load %"class.at::Tensor"*, %"class.at::Tensor"** %12, align 8
  %110 = load %"class.at::Tensor"*, %"class.at::Tensor"** %13, align 8
  %111 = load float, float* %14, align 4
  %112 = load %"class.at::Tensor"*, %"class.at::Tensor"** %15, align 8
  %113 = load %"class.at::Tensor"*, %"class.at::Tensor"** %16, align 8
  %114 = load i32, i32* %18, align 4
  call void @_Z41single_query_cached_kv_attention_launcherItLi256ELi128EEvRN2at6TensorES2_S2_S2_fS2_S2_i(%"class.at::Tensor"* nonnull align 8 dereferenceable(8) %107, %"class.at::Tensor"* nonnull align 8 dereferenceable(8) %108, %"class.at::Tensor"* nonnull align 8 dereferenceable(8) %109, %"class.at::Tensor"* nonnull align 8 dereferenceable(8) %110, float %111, %"class.at::Tensor"* nonnull align 8 dereferenceable(8) %112, %"class.at::Tensor"* nonnull align 8 dereferenceable(8) %113, i32 %114)
  br label %121

115:                                              ; preds = %32
  call void @_ZN3c106detail17torchCheckMsgImplIJA25_ciEEEDcPKcDpRKT_(%"class.std::__cxx11::basic_string"* sret(%"class.std::__cxx11::basic_string") align 8 %20, i8* getelementptr inbounds ([140 x i8], [140 x i8]* @.str.1, i64 0, i64 0), [25 x i8]* nonnull align 1 dereferenceable(25) @.str.2, i32* nonnull align 4 dereferenceable(4) %17)
  invoke void @_ZN3c106detail14torchCheckFailEPKcS2_jRKNSt7__cxx1112basic_stringIcSt11char_traitsIcESaIcEEE(i8* getelementptr inbounds ([33 x i8], [33 x i8]* @__func__._Z32single_query_cached_kv_attentionRN2at6TensorES1_S1_S1_fS1_S1_ii, i64 0, i64 0), i8* getelementptr inbounds ([65 x i8], [65 x i8]* @.str, i64 0, i64 0), i32 443, %"class.std::__cxx11::basic_string"* nonnull align 8 dereferenceable(32) %20) #18
          to label %116 unwind label %117

116:                                              ; preds = %115
  unreachable

117:                                              ; preds = %115
  %118 = landingpad { i8*, i32 }
          cleanup
  %119 = extractvalue { i8*, i32 } %118, 0
  store i8* %119, i8** %21, align 8
  %120 = extractvalue { i8*, i32 } %118, 1
  store i32 %120, i32* %22, align 4
  call void @_ZNSt7__cxx1112basic_stringIcSt11char_traitsIcESaIcEED1Ev(%"class.std::__cxx11::basic_string"* nonnull align 8 dereferenceable(32) %20) #3
  br label %133

121:                                              ; preds = %106, %97, %88, %79, %70, %61, %52, %43, %34
  br label %132

122:                                              ; preds = %9
  %123 = load %"class.at::Tensor"*, %"class.at::Tensor"** %11, align 8
  %124 = bitcast %"class.at::Tensor"* %123 to %"class.at::TensorBase"*
  %125 = call i16 @_ZNK2at10TensorBase5dtypeEv(%"class.at::TensorBase"* nonnull align 8 dereferenceable(8) %124)
  %126 = getelementptr inbounds %"class.caffe2::TypeMeta", %"class.caffe2::TypeMeta"* %24, i32 0, i32 0
  store i16 %125, i16* %126, align 2
  call void @_ZN3c106detail17torchCheckMsgImplIJA24_cN6caffe28TypeMetaEEEEDcPKcDpRKT_(%"class.std::__cxx11::basic_string"* sret(%"class.std::__cxx11::basic_string") align 8 %23, i8* getelementptr inbounds ([140 x i8], [140 x i8]* @.str.1, i64 0, i64 0), [24 x i8]* nonnull align 1 dereferenceable(24) @.str.3, %"class.caffe2::TypeMeta"* nonnull align 2 dereferenceable(2) %24)
  invoke void @_ZN3c106detail14torchCheckFailEPKcS2_jRKNSt7__cxx1112basic_stringIcSt11char_traitsIcESaIcEEE(i8* getelementptr inbounds ([33 x i8], [33 x i8]* @__func__._Z32single_query_cached_kv_attentionRN2at6TensorES1_S1_S1_fS1_S1_ii, i64 0, i64 0), i8* getelementptr inbounds ([65 x i8], [65 x i8]* @.str, i64 0, i64 0), i32 449, %"class.std::__cxx11::basic_string"* nonnull align 8 dereferenceable(32) %23) #18
          to label %127 unwind label %128

127:                                              ; preds = %122
  unreachable

128:                                              ; preds = %122
  %129 = landingpad { i8*, i32 }
          cleanup
  %130 = extractvalue { i8*, i32 } %129, 0
  store i8* %130, i8** %21, align 8
  %131 = extractvalue { i8*, i32 } %129, 1
  store i32 %131, i32* %22, align 4
  call void @_ZNSt7__cxx1112basic_stringIcSt11char_traitsIcESaIcEED1Ev(%"class.std::__cxx11::basic_string"* nonnull align 8 dereferenceable(32) %23) #3
  br label %133

132:                                              ; preds = %121
  ret void

133:                                              ; preds = %128, %117
  %134 = load i8*, i8** %21, align 8
  %135 = load i32, i32* %22, align 4
  %136 = insertvalue { i8*, i32 } undef, i8* %134, 0
  %137 = insertvalue { i8*, i32 } %136, i32 %135, 1
  resume { i8*, i32 } %137
}

declare dso_local i32 @__gxx_personality_v0(...)

; Function Attrs: mustprogress noinline optnone uwtable
define linkonce_odr dso_local i16 @_ZNK2at10TensorBase5dtypeEv(%"class.at::TensorBase"* nonnull align 8 dereferenceable(8) %0) #4 comdat align 2 {
  %2 = alloca %"class.caffe2::TypeMeta", align 2
  %3 = alloca %"class.at::TensorBase"*, align 8
  store %"class.at::TensorBase"* %0, %"class.at::TensorBase"** %3, align 8
  %4 = load %"class.at::TensorBase"*, %"class.at::TensorBase"** %3, align 8
  %5 = getelementptr inbounds %"class.at::TensorBase", %"class.at::TensorBase"* %4, i32 0, i32 0
  %6 = call %"struct.c10::TensorImpl"* @_ZNK3c1013intrusive_ptrINS_10TensorImplENS_19UndefinedTensorImplEEptEv(%"class.c10::intrusive_ptr"* nonnull align 8 dereferenceable(8) %5) #3
  %7 = call i16 @_ZNK3c1010TensorImpl5dtypeEv(%"struct.c10::TensorImpl"* nonnull align 8 dereferenceable(184) %6)
  %8 = getelementptr inbounds %"class.caffe2::TypeMeta", %"class.caffe2::TypeMeta"* %2, i32 0, i32 0
  store i16 %7, i16* %8, align 2
  %9 = getelementptr inbounds %"class.caffe2::TypeMeta", %"class.caffe2::TypeMeta"* %2, i32 0, i32 0
  %10 = load i16, i16* %9, align 2
  ret i16 %10
}

; Function Attrs: mustprogress noinline optnone uwtable
define linkonce_odr dso_local zeroext i1 @_ZN3c10eqEN6caffe28TypeMetaENS_10ScalarTypeE(i16 %0, i8 signext %1) #4 comdat {
  %3 = alloca %"class.caffe2::TypeMeta", align 2
  %4 = alloca i8, align 1
  %5 = alloca %"class.caffe2::TypeMeta", align 2
  %6 = getelementptr inbounds %"class.caffe2::TypeMeta", %"class.caffe2::TypeMeta"* %3, i32 0, i32 0
  store i16 %0, i16* %6, align 2
  store i8 %1, i8* %4, align 1
  %7 = load i8, i8* %4, align 1
  %8 = bitcast %"class.caffe2::TypeMeta"* %5 to i8*
  %9 = bitcast %"class.caffe2::TypeMeta"* %3 to i8*
  call void @llvm.memcpy.p0i8.p0i8.i64(i8* align 2 %8, i8* align 2 %9, i64 2, i1 false)
  %10 = getelementptr inbounds %"class.caffe2::TypeMeta", %"class.caffe2::TypeMeta"* %5, i32 0, i32 0
  %11 = load i16, i16* %10, align 2
  %12 = call zeroext i1 @_ZN3c10eqENS_10ScalarTypeEN6caffe28TypeMetaE(i8 signext %7, i16 %11)
  ret i1 %12
}

; Function Attrs: mustprogress noinline optnone uwtable
define linkonce_odr dso_local void @_Z41single_query_cached_kv_attention_launcherItLi1ELi128EEvRN2at6TensorES2_S2_S2_fS2_S2_i(%"class.at::Tensor"* nonnull align 8 dereferenceable(8) %0, %"class.at::Tensor"* nonnull align 8 dereferenceable(8) %1, %"class.at::Tensor"* nonnull align 8 dereferenceable(8) %2, %"class.at::Tensor"* nonnull align 8 dereferenceable(8) %3, float %4, %"class.at::Tensor"* nonnull align 8 dereferenceable(8) %5, %"class.at::Tensor"* nonnull align 8 dereferenceable(8) %6, i32 %7) #4 comdat personality i8* bitcast (i32 (...)* @__gxx_personality_v0 to i8*) {
  %9 = alloca %"class.at::Tensor"*, align 8
  %10 = alloca %"class.at::Tensor"*, align 8
  %11 = alloca %"class.at::Tensor"*, align 8
  %12 = alloca %"class.at::Tensor"*, align 8
  %13 = alloca float, align 4
  %14 = alloca %"class.at::Tensor"*, align 8
  %15 = alloca %"class.at::Tensor"*, align 8
  %16 = alloca i32, align 4
  %17 = alloca i32, align 4
  %18 = alloca i32, align 4
  %19 = alloca i32, align 4
  %20 = alloca i32, align 4
  %21 = alloca i32, align 4
  %22 = alloca i32, align 4
  %23 = alloca i16*, align 8
  %24 = alloca i16*, align 8
  %25 = alloca i16*, align 8
  %26 = alloca i16*, align 8
  %27 = alloca i32*, align 8
  %28 = alloca i32*, align 8
  %29 = alloca i32, align 4
  %30 = alloca i32, align 4
  %31 = alloca i32, align 4
  %32 = alloca i32, align 4
  %33 = alloca i32, align 4
  %34 = alloca %struct.dim3, align 4
  %35 = alloca %struct.dim3, align 4
  %36 = alloca %struct.CUstream_st*, align 8
  %37 = alloca %"class.c10::cuda::CUDAStream", align 8
  %38 = alloca %struct.dim3, align 4
  %39 = alloca %struct.dim3, align 4
  %40 = alloca { i64, i32 }, align 4
  %41 = alloca { i64, i32 }, align 4
  %42 = alloca %struct.dim3, align 4
  %43 = alloca %struct.dim3, align 4
  %44 = alloca { i64, i32 }, align 4
  %45 = alloca { i64, i32 }, align 4
  %46 = alloca %struct.dim3, align 4
  %47 = alloca %struct.dim3, align 4
  %48 = alloca { i64, i32 }, align 4
  %49 = alloca { i64, i32 }, align 4
  %50 = alloca %struct.dim3, align 4
  %51 = alloca %struct.dim3, align 4
  %52 = alloca { i64, i32 }, align 4
  %53 = alloca { i64, i32 }, align 4
  %54 = alloca %struct.dim3, align 4
  %55 = alloca %struct.dim3, align 4
  %56 = alloca { i64, i32 }, align 4
  %57 = alloca { i64, i32 }, align 4
  %58 = alloca %struct.dim3, align 4
  %59 = alloca %struct.dim3, align 4
  %60 = alloca { i64, i32 }, align 4
  %61 = alloca { i64, i32 }, align 4
  %62 = alloca %struct.dim3, align 4
  %63 = alloca %struct.dim3, align 4
  %64 = alloca { i64, i32 }, align 4
  %65 = alloca { i64, i32 }, align 4
  %66 = alloca %struct.dim3, align 4
  %67 = alloca %struct.dim3, align 4
  %68 = alloca { i64, i32 }, align 4
  %69 = alloca { i64, i32 }, align 4
  %70 = alloca %"class.std::__cxx11::basic_string", align 8
  %71 = alloca i8*, align 8
  %72 = alloca i32, align 4
  store %"class.at::Tensor"* %0, %"class.at::Tensor"** %9, align 8
  store %"class.at::Tensor"* %1, %"class.at::Tensor"** %10, align 8
  store %"class.at::Tensor"* %2, %"class.at::Tensor"** %11, align 8
  store %"class.at::Tensor"* %3, %"class.at::Tensor"** %12, align 8
  store float %4, float* %13, align 4
  store %"class.at::Tensor"* %5, %"class.at::Tensor"** %14, align 8
  store %"class.at::Tensor"* %6, %"class.at::Tensor"** %15, align 8
  store i32 %7, i32* %16, align 4
  %73 = load %"class.at::Tensor"*, %"class.at::Tensor"** %10, align 8
  %74 = bitcast %"class.at::Tensor"* %73 to %"class.at::TensorBase"*
  %75 = call i64 @_ZNK2at10TensorBase4sizeEl(%"class.at::TensorBase"* nonnull align 8 dereferenceable(8) %74, i64 0)
  %76 = trunc i64 %75 to i32
  store i32 %76, i32* %17, align 4
  %77 = load %"class.at::Tensor"*, %"class.at::Tensor"** %10, align 8
  %78 = bitcast %"class.at::Tensor"* %77 to %"class.at::TensorBase"*
  %79 = call i64 @_ZNK2at10TensorBase4sizeEl(%"class.at::TensorBase"* nonnull align 8 dereferenceable(8) %78, i64 1)
  %80 = trunc i64 %79 to i32
  store i32 %80, i32* %18, align 4
  %81 = load %"class.at::Tensor"*, %"class.at::Tensor"** %10, align 8
  %82 = bitcast %"class.at::Tensor"* %81 to %"class.at::TensorBase"*
  %83 = call i64 @_ZNK2at10TensorBase4sizeEl(%"class.at::TensorBase"* nonnull align 8 dereferenceable(8) %82, i64 2)
  %84 = trunc i64 %83 to i32
  store i32 %84, i32* %19, align 4
  %85 = load %"class.at::Tensor"*, %"class.at::Tensor"** %14, align 8
  %86 = bitcast %"class.at::Tensor"* %85 to %"class.at::TensorBase"*
  %87 = call i64 @_ZNK2at10TensorBase4sizeEl(%"class.at::TensorBase"* nonnull align 8 dereferenceable(8) %86, i64 1)
  %88 = trunc i64 %87 to i32
  store i32 %88, i32* %20, align 4
  %89 = load %"class.at::Tensor"*, %"class.at::Tensor"** %10, align 8
  %90 = bitcast %"class.at::Tensor"* %89 to %"class.at::TensorBase"*
  %91 = call i64 @_ZNK2at10TensorBase6strideEl(%"class.at::TensorBase"* nonnull align 8 dereferenceable(8) %90, i64 0)
  %92 = trunc i64 %91 to i32
  store i32 %92, i32* %21, align 4
  store i32 32, i32* %22, align 4
  %93 = load i32, i32* %19, align 4
  %94 = load i32, i32* %22, align 4
  %95 = srem i32 %93, %94
  %96 = icmp eq i32 %95, 0
  br i1 %96, label %97, label %98

97:                                               ; preds = %8
  br label %100

98:                                               ; preds = %8
  call void @__assert_fail(i8* getelementptr inbounds ([35 x i8], [35 x i8]* @.str.153, i64 0, i64 0), i8* getelementptr inbounds ([65 x i8], [65 x i8]* @.str, i64 0, i64 0), i32 337, i8* getelementptr inbounds ([217 x i8], [217 x i8]* @__PRETTY_FUNCTION__._Z41single_query_cached_kv_attention_launcherItLi1ELi128EEvRN2at6TensorES2_S2_S2_fS2_S2_i, i64 0, i64 0)) #19
  unreachable

99:                                               ; No predecessors!
  br label %100

100:                                              ; preds = %99, %97
  %101 = load %"class.at::Tensor"*, %"class.at::Tensor"** %9, align 8
  %102 = bitcast %"class.at::Tensor"* %101 to %"class.at::TensorBase"*
  %103 = call i8* @_ZNK2at10TensorBase8data_ptrEv(%"class.at::TensorBase"* nonnull align 8 dereferenceable(8) %102)
  %104 = bitcast i8* %103 to i16*
  store i16* %104, i16** %23, align 8
  %105 = load %"class.at::Tensor"*, %"class.at::Tensor"** %10, align 8
  %106 = bitcast %"class.at::Tensor"* %105 to %"class.at::TensorBase"*
  %107 = call i8* @_ZNK2at10TensorBase8data_ptrEv(%"class.at::TensorBase"* nonnull align 8 dereferenceable(8) %106)
  %108 = bitcast i8* %107 to i16*
  store i16* %108, i16** %24, align 8
  %109 = load %"class.at::Tensor"*, %"class.at::Tensor"** %11, align 8
  %110 = bitcast %"class.at::Tensor"* %109 to %"class.at::TensorBase"*
  %111 = call i8* @_ZNK2at10TensorBase8data_ptrEv(%"class.at::TensorBase"* nonnull align 8 dereferenceable(8) %110)
  %112 = bitcast i8* %111 to i16*
  store i16* %112, i16** %25, align 8
  %113 = load %"class.at::Tensor"*, %"class.at::Tensor"** %12, align 8
  %114 = bitcast %"class.at::Tensor"* %113 to %"class.at::TensorBase"*
  %115 = call i8* @_ZNK2at10TensorBase8data_ptrEv(%"class.at::TensorBase"* nonnull align 8 dereferenceable(8) %114)
  %116 = bitcast i8* %115 to i16*
  store i16* %116, i16** %26, align 8
  %117 = load %"class.at::Tensor"*, %"class.at::Tensor"** %14, align 8
  %118 = bitcast %"class.at::Tensor"* %117 to %"class.at::TensorBase"*
  %119 = call i32* @_ZNK2at10TensorBase8data_ptrIiEEPT_v(%"class.at::TensorBase"* nonnull align 8 dereferenceable(8) %118)
  store i32* %119, i32** %27, align 8
  %120 = load %"class.at::Tensor"*, %"class.at::Tensor"** %15, align 8
  %121 = bitcast %"class.at::Tensor"* %120 to %"class.at::TensorBase"*
  %122 = call i32* @_ZNK2at10TensorBase8data_ptrIiEEPT_v(%"class.at::TensorBase"* nonnull align 8 dereferenceable(8) %121)
  store i32* %122, i32** %28, align 8
  store i32 4, i32* %29, align 4
  %123 = load i32, i32* %16, align 4
  %124 = add nsw i32 %123, 1
  %125 = sub nsw i32 %124, 1
  %126 = sdiv i32 %125, 1
  %127 = mul nsw i32 %126, 1
  store i32 %127, i32* %30, align 4
  %128 = load i32, i32* %30, align 4
  %129 = sext i32 %128 to i64
  %130 = mul i64 %129, 2
  %131 = trunc i64 %130 to i32
  store i32 %131, i32* %31, align 4
  %132 = load i32, i32* %19, align 4
  %133 = mul nsw i32 2, %132
  %134 = sext i32 %133 to i64
  %135 = mul i64 %134, 4
  %136 = trunc i64 %135 to i32
  store i32 %136, i32* %32, align 4
  %137 = call nonnull align 4 dereferenceable(4) i32* @_ZSt3maxIiEUa9enable_ifILb1EERKT_S2_S2_(i32* nonnull align 4 dereferenceable(4) %31, i32* nonnull align 4 dereferenceable(4) %32)
  %138 = load i32, i32* %137, align 4
  store i32 %138, i32* %33, align 4
  %139 = load i32, i32* %18, align 4
  %140 = load i32, i32* %17, align 4
  call void @_ZN4dim3C2Ejjj(%struct.dim3* nonnull align 4 dereferenceable(12) %34, i32 %139, i32 %140, i32 1)
  call void @_ZN4dim3C2Ejjj(%struct.dim3* nonnull align 4 dereferenceable(12) %35, i32 128, i32 1, i32 1)
  %141 = call { i64, i64 } @_ZN3c104cuda20getCurrentCUDAStreamEa(i8 signext -1)
  %142 = getelementptr inbounds %"class.c10::cuda::CUDAStream", %"class.c10::cuda::CUDAStream"* %37, i32 0, i32 0
  %143 = bitcast %"class.c10::Stream"* %142 to { i64, i64 }*
  %144 = getelementptr inbounds { i64, i64 }, { i64, i64 }* %143, i32 0, i32 0
  %145 = extractvalue { i64, i64 } %141, 0
  store i64 %145, i64* %144, align 8
  %146 = getelementptr inbounds { i64, i64 }, { i64, i64 }* %143, i32 0, i32 1
  %147 = extractvalue { i64, i64 } %141, 1
  store i64 %147, i64* %146, align 8
  %148 = call %struct.CUstream_st* @_ZNK3c104cuda10CUDAStreamcvP11CUstream_stEv(%"class.c10::cuda::CUDAStream"* nonnull align 8 dereferenceable(16) %37)
  store %struct.CUstream_st* %148, %struct.CUstream_st** %36, align 8
  %149 = load i32, i32* %19, align 4
  switch i32 %149, label %422 [
    i32 32, label %150
    i32 64, label %184
    i32 80, label %218
    i32 96, label %252
    i32 128, label %286
    i32 160, label %320
    i32 192, label %354
    i32 256, label %388
  ]

150:                                              ; preds = %100
  %151 = bitcast %struct.dim3* %38 to i8*
  %152 = bitcast %struct.dim3* %34 to i8*
  call void @llvm.memcpy.p0i8.p0i8.i64(i8* align 4 %151, i8* align 4 %152, i64 12, i1 false)
  %153 = bitcast %struct.dim3* %39 to i8*
  %154 = bitcast %struct.dim3* %35 to i8*
  call void @llvm.memcpy.p0i8.p0i8.i64(i8* align 4 %153, i8* align 4 %154, i64 12, i1 false)
  %155 = load i32, i32* %33, align 4
  %156 = sext i32 %155 to i64
  %157 = load %struct.CUstream_st*, %struct.CUstream_st** %36, align 8
  %158 = bitcast %struct.CUstream_st* %157 to i8*
  %159 = bitcast { i64, i32 }* %40 to i8*
  %160 = bitcast %struct.dim3* %38 to i8*
  call void @llvm.memcpy.p0i8.p0i8.i64(i8* align 4 %159, i8* align 4 %160, i64 12, i1 false)
  %161 = getelementptr inbounds { i64, i32 }, { i64, i32 }* %40, i32 0, i32 0
  %162 = load i64, i64* %161, align 4
  %163 = getelementptr inbounds { i64, i32 }, { i64, i32 }* %40, i32 0, i32 1
  %164 = load i32, i32* %163, align 4
  %165 = bitcast { i64, i32 }* %41 to i8*
  %166 = bitcast %struct.dim3* %39 to i8*
  call void @llvm.memcpy.p0i8.p0i8.i64(i8* align 4 %165, i8* align 4 %166, i64 12, i1 false)
  %167 = getelementptr inbounds { i64, i32 }, { i64, i32 }* %41, i32 0, i32 0
  %168 = load i64, i64* %167, align 4
  %169 = getelementptr inbounds { i64, i32 }, { i64, i32 }* %41, i32 0, i32 1
  %170 = load i32, i32* %169, align 4
  %171 = call i32 @__cudaPushCallConfiguration(i64 %162, i32 %164, i64 %168, i32 %170, i64 %156, i8* %158)
  %172 = icmp ne i32 %171, 0
  br i1 %172, label %183, label %173

173:                                              ; preds = %150
  %174 = load i16*, i16** %23, align 8
  %175 = load i16*, i16** %24, align 8
  %176 = load i16*, i16** %25, align 8
  %177 = load i16*, i16** %26, align 8
  %178 = load float, float* %13, align 4
  %179 = load i32*, i32** %27, align 8
  %180 = load i32*, i32** %28, align 8
  %181 = load i32, i32* %20, align 4
  %182 = load i32, i32* %21, align 4
  call void @_ZN9cacheflow54__device_stub__single_query_cached_kv_attention_kernelItLi32ELi1ELi128EEEvPT_PKS1_S4_S4_fPKiS6_ii(i16* %174, i16* %175, i16* %176, i16* %177, float %178, i32* %179, i32* %180, i32 %181, i32 %182)
  br label %183

183:                                              ; preds = %173, %150
  br label %428

184:                                              ; preds = %100
  %185 = bitcast %struct.dim3* %42 to i8*
  %186 = bitcast %struct.dim3* %34 to i8*
  call void @llvm.memcpy.p0i8.p0i8.i64(i8* align 4 %185, i8* align 4 %186, i64 12, i1 false)
  %187 = bitcast %struct.dim3* %43 to i8*
  %188 = bitcast %struct.dim3* %35 to i8*
  call void @llvm.memcpy.p0i8.p0i8.i64(i8* align 4 %187, i8* align 4 %188, i64 12, i1 false)
  %189 = load i32, i32* %33, align 4
  %190 = sext i32 %189 to i64
  %191 = load %struct.CUstream_st*, %struct.CUstream_st** %36, align 8
  %192 = bitcast %struct.CUstream_st* %191 to i8*
  %193 = bitcast { i64, i32 }* %44 to i8*
  %194 = bitcast %struct.dim3* %42 to i8*
  call void @llvm.memcpy.p0i8.p0i8.i64(i8* align 4 %193, i8* align 4 %194, i64 12, i1 false)
  %195 = getelementptr inbounds { i64, i32 }, { i64, i32 }* %44, i32 0, i32 0
  %196 = load i64, i64* %195, align 4
  %197 = getelementptr inbounds { i64, i32 }, { i64, i32 }* %44, i32 0, i32 1
  %198 = load i32, i32* %197, align 4
  %199 = bitcast { i64, i32 }* %45 to i8*
  %200 = bitcast %struct.dim3* %43 to i8*
  call void @llvm.memcpy.p0i8.p0i8.i64(i8* align 4 %199, i8* align 4 %200, i64 12, i1 false)
  %201 = getelementptr inbounds { i64, i32 }, { i64, i32 }* %45, i32 0, i32 0
  %202 = load i64, i64* %201, align 4
  %203 = getelementptr inbounds { i64, i32 }, { i64, i32 }* %45, i32 0, i32 1
  %204 = load i32, i32* %203, align 4
  %205 = call i32 @__cudaPushCallConfiguration(i64 %196, i32 %198, i64 %202, i32 %204, i64 %190, i8* %192)
  %206 = icmp ne i32 %205, 0
  br i1 %206, label %217, label %207

207:                                              ; preds = %184
  %208 = load i16*, i16** %23, align 8
  %209 = load i16*, i16** %24, align 8
  %210 = load i16*, i16** %25, align 8
  %211 = load i16*, i16** %26, align 8
  %212 = load float, float* %13, align 4
  %213 = load i32*, i32** %27, align 8
  %214 = load i32*, i32** %28, align 8
  %215 = load i32, i32* %20, align 4
  %216 = load i32, i32* %21, align 4
  call void @_ZN9cacheflow54__device_stub__single_query_cached_kv_attention_kernelItLi64ELi1ELi128EEEvPT_PKS1_S4_S4_fPKiS6_ii(i16* %208, i16* %209, i16* %210, i16* %211, float %212, i32* %213, i32* %214, i32 %215, i32 %216)
  br label %217

217:                                              ; preds = %207, %184
  br label %428

218:                                              ; preds = %100
  %219 = bitcast %struct.dim3* %46 to i8*
  %220 = bitcast %struct.dim3* %34 to i8*
  call void @llvm.memcpy.p0i8.p0i8.i64(i8* align 4 %219, i8* align 4 %220, i64 12, i1 false)
  %221 = bitcast %struct.dim3* %47 to i8*
  %222 = bitcast %struct.dim3* %35 to i8*
  call void @llvm.memcpy.p0i8.p0i8.i64(i8* align 4 %221, i8* align 4 %222, i64 12, i1 false)
  %223 = load i32, i32* %33, align 4
  %224 = sext i32 %223 to i64
  %225 = load %struct.CUstream_st*, %struct.CUstream_st** %36, align 8
  %226 = bitcast %struct.CUstream_st* %225 to i8*
  %227 = bitcast { i64, i32 }* %48 to i8*
  %228 = bitcast %struct.dim3* %46 to i8*
  call void @llvm.memcpy.p0i8.p0i8.i64(i8* align 4 %227, i8* align 4 %228, i64 12, i1 false)
  %229 = getelementptr inbounds { i64, i32 }, { i64, i32 }* %48, i32 0, i32 0
  %230 = load i64, i64* %229, align 4
  %231 = getelementptr inbounds { i64, i32 }, { i64, i32 }* %48, i32 0, i32 1
  %232 = load i32, i32* %231, align 4
  %233 = bitcast { i64, i32 }* %49 to i8*
  %234 = bitcast %struct.dim3* %47 to i8*
  call void @llvm.memcpy.p0i8.p0i8.i64(i8* align 4 %233, i8* align 4 %234, i64 12, i1 false)
  %235 = getelementptr inbounds { i64, i32 }, { i64, i32 }* %49, i32 0, i32 0
  %236 = load i64, i64* %235, align 4
  %237 = getelementptr inbounds { i64, i32 }, { i64, i32 }* %49, i32 0, i32 1
  %238 = load i32, i32* %237, align 4
  %239 = call i32 @__cudaPushCallConfiguration(i64 %230, i32 %232, i64 %236, i32 %238, i64 %224, i8* %226)
  %240 = icmp ne i32 %239, 0
  br i1 %240, label %251, label %241

241:                                              ; preds = %218
  %242 = load i16*, i16** %23, align 8
  %243 = load i16*, i16** %24, align 8
  %244 = load i16*, i16** %25, align 8
  %245 = load i16*, i16** %26, align 8
  %246 = load float, float* %13, align 4
  %247 = load i32*, i32** %27, align 8
  %248 = load i32*, i32** %28, align 8
  %249 = load i32, i32* %20, align 4
  %250 = load i32, i32* %21, align 4
  call void @_ZN9cacheflow54__device_stub__single_query_cached_kv_attention_kernelItLi80ELi1ELi128EEEvPT_PKS1_S4_S4_fPKiS6_ii(i16* %242, i16* %243, i16* %244, i16* %245, float %246, i32* %247, i32* %248, i32 %249, i32 %250)
  br label %251

251:                                              ; preds = %241, %218
  br label %428

252:                                              ; preds = %100
  %253 = bitcast %struct.dim3* %50 to i8*
  %254 = bitcast %struct.dim3* %34 to i8*
  call void @llvm.memcpy.p0i8.p0i8.i64(i8* align 4 %253, i8* align 4 %254, i64 12, i1 false)
  %255 = bitcast %struct.dim3* %51 to i8*
  %256 = bitcast %struct.dim3* %35 to i8*
  call void @llvm.memcpy.p0i8.p0i8.i64(i8* align 4 %255, i8* align 4 %256, i64 12, i1 false)
  %257 = load i32, i32* %33, align 4
  %258 = sext i32 %257 to i64
  %259 = load %struct.CUstream_st*, %struct.CUstream_st** %36, align 8
  %260 = bitcast %struct.CUstream_st* %259 to i8*
  %261 = bitcast { i64, i32 }* %52 to i8*
  %262 = bitcast %struct.dim3* %50 to i8*
  call void @llvm.memcpy.p0i8.p0i8.i64(i8* align 4 %261, i8* align 4 %262, i64 12, i1 false)
  %263 = getelementptr inbounds { i64, i32 }, { i64, i32 }* %52, i32 0, i32 0
  %264 = load i64, i64* %263, align 4
  %265 = getelementptr inbounds { i64, i32 }, { i64, i32 }* %52, i32 0, i32 1
  %266 = load i32, i32* %265, align 4
  %267 = bitcast { i64, i32 }* %53 to i8*
  %268 = bitcast %struct.dim3* %51 to i8*
  call void @llvm.memcpy.p0i8.p0i8.i64(i8* align 4 %267, i8* align 4 %268, i64 12, i1 false)
  %269 = getelementptr inbounds { i64, i32 }, { i64, i32 }* %53, i32 0, i32 0
  %270 = load i64, i64* %269, align 4
  %271 = getelementptr inbounds { i64, i32 }, { i64, i32 }* %53, i32 0, i32 1
  %272 = load i32, i32* %271, align 4
  %273 = call i32 @__cudaPushCallConfiguration(i64 %264, i32 %266, i64 %270, i32 %272, i64 %258, i8* %260)
  %274 = icmp ne i32 %273, 0
  br i1 %274, label %285, label %275

275:                                              ; preds = %252
  %276 = load i16*, i16** %23, align 8
  %277 = load i16*, i16** %24, align 8
  %278 = load i16*, i16** %25, align 8
  %279 = load i16*, i16** %26, align 8
  %280 = load float, float* %13, align 4
  %281 = load i32*, i32** %27, align 8
  %282 = load i32*, i32** %28, align 8
  %283 = load i32, i32* %20, align 4
  %284 = load i32, i32* %21, align 4
  call void @_ZN9cacheflow54__device_stub__single_query_cached_kv_attention_kernelItLi96ELi1ELi128EEEvPT_PKS1_S4_S4_fPKiS6_ii(i16* %276, i16* %277, i16* %278, i16* %279, float %280, i32* %281, i32* %282, i32 %283, i32 %284)
  br label %285

285:                                              ; preds = %275, %252
  br label %428

286:                                              ; preds = %100
  %287 = bitcast %struct.dim3* %54 to i8*
  %288 = bitcast %struct.dim3* %34 to i8*
  call void @llvm.memcpy.p0i8.p0i8.i64(i8* align 4 %287, i8* align 4 %288, i64 12, i1 false)
  %289 = bitcast %struct.dim3* %55 to i8*
  %290 = bitcast %struct.dim3* %35 to i8*
  call void @llvm.memcpy.p0i8.p0i8.i64(i8* align 4 %289, i8* align 4 %290, i64 12, i1 false)
  %291 = load i32, i32* %33, align 4
  %292 = sext i32 %291 to i64
  %293 = load %struct.CUstream_st*, %struct.CUstream_st** %36, align 8
  %294 = bitcast %struct.CUstream_st* %293 to i8*
  %295 = bitcast { i64, i32 }* %56 to i8*
  %296 = bitcast %struct.dim3* %54 to i8*
  call void @llvm.memcpy.p0i8.p0i8.i64(i8* align 4 %295, i8* align 4 %296, i64 12, i1 false)
  %297 = getelementptr inbounds { i64, i32 }, { i64, i32 }* %56, i32 0, i32 0
  %298 = load i64, i64* %297, align 4
  %299 = getelementptr inbounds { i64, i32 }, { i64, i32 }* %56, i32 0, i32 1
  %300 = load i32, i32* %299, align 4
  %301 = bitcast { i64, i32 }* %57 to i8*
  %302 = bitcast %struct.dim3* %55 to i8*
  call void @llvm.memcpy.p0i8.p0i8.i64(i8* align 4 %301, i8* align 4 %302, i64 12, i1 false)
  %303 = getelementptr inbounds { i64, i32 }, { i64, i32 }* %57, i32 0, i32 0
  %304 = load i64, i64* %303, align 4
  %305 = getelementptr inbounds { i64, i32 }, { i64, i32 }* %57, i32 0, i32 1
  %306 = load i32, i32* %305, align 4
  %307 = call i32 @__cudaPushCallConfiguration(i64 %298, i32 %300, i64 %304, i32 %306, i64 %292, i8* %294)
  %308 = icmp ne i32 %307, 0
  br i1 %308, label %319, label %309

309:                                              ; preds = %286
  %310 = load i16*, i16** %23, align 8
  %311 = load i16*, i16** %24, align 8
  %312 = load i16*, i16** %25, align 8
  %313 = load i16*, i16** %26, align 8
  %314 = load float, float* %13, align 4
  %315 = load i32*, i32** %27, align 8
  %316 = load i32*, i32** %28, align 8
  %317 = load i32, i32* %20, align 4
  %318 = load i32, i32* %21, align 4
  call void @_ZN9cacheflow54__device_stub__single_query_cached_kv_attention_kernelItLi128ELi1ELi128EEEvPT_PKS1_S4_S4_fPKiS6_ii(i16* %310, i16* %311, i16* %312, i16* %313, float %314, i32* %315, i32* %316, i32 %317, i32 %318)
  br label %319

319:                                              ; preds = %309, %286
  br label %428

320:                                              ; preds = %100
  %321 = bitcast %struct.dim3* %58 to i8*
  %322 = bitcast %struct.dim3* %34 to i8*
  call void @llvm.memcpy.p0i8.p0i8.i64(i8* align 4 %321, i8* align 4 %322, i64 12, i1 false)
  %323 = bitcast %struct.dim3* %59 to i8*
  %324 = bitcast %struct.dim3* %35 to i8*
  call void @llvm.memcpy.p0i8.p0i8.i64(i8* align 4 %323, i8* align 4 %324, i64 12, i1 false)
  %325 = load i32, i32* %33, align 4
  %326 = sext i32 %325 to i64
  %327 = load %struct.CUstream_st*, %struct.CUstream_st** %36, align 8
  %328 = bitcast %struct.CUstream_st* %327 to i8*
  %329 = bitcast { i64, i32 }* %60 to i8*
  %330 = bitcast %struct.dim3* %58 to i8*
  call void @llvm.memcpy.p0i8.p0i8.i64(i8* align 4 %329, i8* align 4 %330, i64 12, i1 false)
  %331 = getelementptr inbounds { i64, i32 }, { i64, i32 }* %60, i32 0, i32 0
  %332 = load i64, i64* %331, align 4
  %333 = getelementptr inbounds { i64, i32 }, { i64, i32 }* %60, i32 0, i32 1
  %334 = load i32, i32* %333, align 4
  %335 = bitcast { i64, i32 }* %61 to i8*
  %336 = bitcast %struct.dim3* %59 to i8*
  call void @llvm.memcpy.p0i8.p0i8.i64(i8* align 4 %335, i8* align 4 %336, i64 12, i1 false)
  %337 = getelementptr inbounds { i64, i32 }, { i64, i32 }* %61, i32 0, i32 0
  %338 = load i64, i64* %337, align 4
  %339 = getelementptr inbounds { i64, i32 }, { i64, i32 }* %61, i32 0, i32 1
  %340 = load i32, i32* %339, align 4
  %341 = call i32 @__cudaPushCallConfiguration(i64 %332, i32 %334, i64 %338, i32 %340, i64 %326, i8* %328)
  %342 = icmp ne i32 %341, 0
  br i1 %342, label %353, label %343

343:                                              ; preds = %320
  %344 = load i16*, i16** %23, align 8
  %345 = load i16*, i16** %24, align 8
  %346 = load i16*, i16** %25, align 8
  %347 = load i16*, i16** %26, align 8
  %348 = load float, float* %13, align 4
  %349 = load i32*, i32** %27, align 8
  %350 = load i32*, i32** %28, align 8
  %351 = load i32, i32* %20, align 4
  %352 = load i32, i32* %21, align 4
  call void @_ZN9cacheflow54__device_stub__single_query_cached_kv_attention_kernelItLi160ELi1ELi128EEEvPT_PKS1_S4_S4_fPKiS6_ii(i16* %344, i16* %345, i16* %346, i16* %347, float %348, i32* %349, i32* %350, i32 %351, i32 %352)
  br label %353

353:                                              ; preds = %343, %320
  br label %428

354:                                              ; preds = %100
  %355 = bitcast %struct.dim3* %62 to i8*
  %356 = bitcast %struct.dim3* %34 to i8*
  call void @llvm.memcpy.p0i8.p0i8.i64(i8* align 4 %355, i8* align 4 %356, i64 12, i1 false)
  %357 = bitcast %struct.dim3* %63 to i8*
  %358 = bitcast %struct.dim3* %35 to i8*
  call void @llvm.memcpy.p0i8.p0i8.i64(i8* align 4 %357, i8* align 4 %358, i64 12, i1 false)
  %359 = load i32, i32* %33, align 4
  %360 = sext i32 %359 to i64
  %361 = load %struct.CUstream_st*, %struct.CUstream_st** %36, align 8
  %362 = bitcast %struct.CUstream_st* %361 to i8*
  %363 = bitcast { i64, i32 }* %64 to i8*
  %364 = bitcast %struct.dim3* %62 to i8*
  call void @llvm.memcpy.p0i8.p0i8.i64(i8* align 4 %363, i8* align 4 %364, i64 12, i1 false)
  %365 = getelementptr inbounds { i64, i32 }, { i64, i32 }* %64, i32 0, i32 0
  %366 = load i64, i64* %365, align 4
  %367 = getelementptr inbounds { i64, i32 }, { i64, i32 }* %64, i32 0, i32 1
  %368 = load i32, i32* %367, align 4
  %369 = bitcast { i64, i32 }* %65 to i8*
  %370 = bitcast %struct.dim3* %63 to i8*
  call void @llvm.memcpy.p0i8.p0i8.i64(i8* align 4 %369, i8* align 4 %370, i64 12, i1 false)
  %371 = getelementptr inbounds { i64, i32 }, { i64, i32 }* %65, i32 0, i32 0
  %372 = load i64, i64* %371, align 4
  %373 = getelementptr inbounds { i64, i32 }, { i64, i32 }* %65, i32 0, i32 1
  %374 = load i32, i32* %373, align 4
  %375 = call i32 @__cudaPushCallConfiguration(i64 %366, i32 %368, i64 %372, i32 %374, i64 %360, i8* %362)
  %376 = icmp ne i32 %375, 0
  br i1 %376, label %387, label %377

377:                                              ; preds = %354
  %378 = load i16*, i16** %23, align 8
  %379 = load i16*, i16** %24, align 8
  %380 = load i16*, i16** %25, align 8
  %381 = load i16*, i16** %26, align 8
  %382 = load float, float* %13, align 4
  %383 = load i32*, i32** %27, align 8
  %384 = load i32*, i32** %28, align 8
  %385 = load i32, i32* %20, align 4
  %386 = load i32, i32* %21, align 4
  call void @_ZN9cacheflow54__device_stub__single_query_cached_kv_attention_kernelItLi192ELi1ELi128EEEvPT_PKS1_S4_S4_fPKiS6_ii(i16* %378, i16* %379, i16* %380, i16* %381, float %382, i32* %383, i32* %384, i32 %385, i32 %386)
  br label %387

387:                                              ; preds = %377, %354
  br label %428

388:                                              ; preds = %100
  %389 = bitcast %struct.dim3* %66 to i8*
  %390 = bitcast %struct.dim3* %34 to i8*
  call void @llvm.memcpy.p0i8.p0i8.i64(i8* align 4 %389, i8* align 4 %390, i64 12, i1 false)
  %391 = bitcast %struct.dim3* %67 to i8*
  %392 = bitcast %struct.dim3* %35 to i8*
  call void @llvm.memcpy.p0i8.p0i8.i64(i8* align 4 %391, i8* align 4 %392, i64 12, i1 false)
  %393 = load i32, i32* %33, align 4
  %394 = sext i32 %393 to i64
  %395 = load %struct.CUstream_st*, %struct.CUstream_st** %36, align 8
  %396 = bitcast %struct.CUstream_st* %395 to i8*
  %397 = bitcast { i64, i32 }* %68 to i8*
  %398 = bitcast %struct.dim3* %66 to i8*
  call void @llvm.memcpy.p0i8.p0i8.i64(i8* align 4 %397, i8* align 4 %398, i64 12, i1 false)
  %399 = getelementptr inbounds { i64, i32 }, { i64, i32 }* %68, i32 0, i32 0
  %400 = load i64, i64* %399, align 4
  %401 = getelementptr inbounds { i64, i32 }, { i64, i32 }* %68, i32 0, i32 1
  %402 = load i32, i32* %401, align 4
  %403 = bitcast { i64, i32 }* %69 to i8*
  %404 = bitcast %struct.dim3* %67 to i8*
  call void @llvm.memcpy.p0i8.p0i8.i64(i8* align 4 %403, i8* align 4 %404, i64 12, i1 false)
  %405 = getelementptr inbounds { i64, i32 }, { i64, i32 }* %69, i32 0, i32 0
  %406 = load i64, i64* %405, align 4
  %407 = getelementptr inbounds { i64, i32 }, { i64, i32 }* %69, i32 0, i32 1
  %408 = load i32, i32* %407, align 4
  %409 = call i32 @__cudaPushCallConfiguration(i64 %400, i32 %402, i64 %406, i32 %408, i64 %394, i8* %396)
  %410 = icmp ne i32 %409, 0
  br i1 %410, label %421, label %411

411:                                              ; preds = %388
  %412 = load i16*, i16** %23, align 8
  %413 = load i16*, i16** %24, align 8
  %414 = load i16*, i16** %25, align 8
  %415 = load i16*, i16** %26, align 8
  %416 = load float, float* %13, align 4
  %417 = load i32*, i32** %27, align 8
  %418 = load i32*, i32** %28, align 8
  %419 = load i32, i32* %20, align 4
  %420 = load i32, i32* %21, align 4
  call void @_ZN9cacheflow54__device_stub__single_query_cached_kv_attention_kernelItLi256ELi1ELi128EEEvPT_PKS1_S4_S4_fPKiS6_ii(i16* %412, i16* %413, i16* %414, i16* %415, float %416, i32* %417, i32* %418, i32 %419, i32 %420)
  br label %421

421:                                              ; preds = %411, %388
  br label %428

422:                                              ; preds = %100
  call void @_ZN3c106detail17torchCheckMsgImplIJA24_ciEEEDcPKcDpRKT_(%"class.std::__cxx11::basic_string"* sret(%"class.std::__cxx11::basic_string") align 8 %70, i8* getelementptr inbounds ([140 x i8], [140 x i8]* @.str.1, i64 0, i64 0), [24 x i8]* nonnull align 1 dereferenceable(24) @.str.154, i32* nonnull align 4 dereferenceable(4) %19)
  invoke void @_ZN3c106detail14torchCheckFailEPKcS2_jRKNSt7__cxx1112basic_stringIcSt11char_traitsIcESaIcEEE(i8* getelementptr inbounds ([42 x i8], [42 x i8]* @__func__._Z41single_query_cached_kv_attention_launcherItLi1ELi128EEvRN2at6TensorES2_S2_S2_fS2_S2_i, i64 0, i64 0), i8* getelementptr inbounds ([65 x i8], [65 x i8]* @.str, i64 0, i64 0), i32 381, %"class.std::__cxx11::basic_string"* nonnull align 8 dereferenceable(32) %70) #18
          to label %423 unwind label %424

423:                                              ; preds = %422
  unreachable

424:                                              ; preds = %422
  %425 = landingpad { i8*, i32 }
          cleanup
  %426 = extractvalue { i8*, i32 } %425, 0
  store i8* %426, i8** %71, align 8
  %427 = extractvalue { i8*, i32 } %425, 1
  store i32 %427, i32* %72, align 4
  call void @_ZNSt7__cxx1112basic_stringIcSt11char_traitsIcESaIcEED1Ev(%"class.std::__cxx11::basic_string"* nonnull align 8 dereferenceable(32) %70) #3
  br label %429

428:                                              ; preds = %421, %387, %353, %319, %285, %251, %217, %183
  ret void

429:                                              ; preds = %424
  %430 = load i8*, i8** %71, align 8
  %431 = load i32, i32* %72, align 4
  %432 = insertvalue { i8*, i32 } undef, i8* %430, 0
  %433 = insertvalue { i8*, i32 } %432, i32 %431, 1
  resume { i8*, i32 } %433
}

; Function Attrs: mustprogress noinline optnone uwtable
define linkonce_odr dso_local void @_Z41single_query_cached_kv_attention_launcherItLi2ELi128EEvRN2at6TensorES2_S2_S2_fS2_S2_i(%"class.at::Tensor"* nonnull align 8 dereferenceable(8) %0, %"class.at::Tensor"* nonnull align 8 dereferenceable(8) %1, %"class.at::Tensor"* nonnull align 8 dereferenceable(8) %2, %"class.at::Tensor"* nonnull align 8 dereferenceable(8) %3, float %4, %"class.at::Tensor"* nonnull align 8 dereferenceable(8) %5, %"class.at::Tensor"* nonnull align 8 dereferenceable(8) %6, i32 %7) #4 comdat personality i8* bitcast (i32 (...)* @__gxx_personality_v0 to i8*) {
  %9 = alloca %"class.at::Tensor"*, align 8
  %10 = alloca %"class.at::Tensor"*, align 8
  %11 = alloca %"class.at::Tensor"*, align 8
  %12 = alloca %"class.at::Tensor"*, align 8
  %13 = alloca float, align 4
  %14 = alloca %"class.at::Tensor"*, align 8
  %15 = alloca %"class.at::Tensor"*, align 8
  %16 = alloca i32, align 4
  %17 = alloca i32, align 4
  %18 = alloca i32, align 4
  %19 = alloca i32, align 4
  %20 = alloca i32, align 4
  %21 = alloca i32, align 4
  %22 = alloca i32, align 4
  %23 = alloca i16*, align 8
  %24 = alloca i16*, align 8
  %25 = alloca i16*, align 8
  %26 = alloca i16*, align 8
  %27 = alloca i32*, align 8
  %28 = alloca i32*, align 8
  %29 = alloca i32, align 4
  %30 = alloca i32, align 4
  %31 = alloca i32, align 4
  %32 = alloca i32, align 4
  %33 = alloca i32, align 4
  %34 = alloca %struct.dim3, align 4
  %35 = alloca %struct.dim3, align 4
  %36 = alloca %struct.CUstream_st*, align 8
  %37 = alloca %"class.c10::cuda::CUDAStream", align 8
  %38 = alloca %struct.dim3, align 4
  %39 = alloca %struct.dim3, align 4
  %40 = alloca { i64, i32 }, align 4
  %41 = alloca { i64, i32 }, align 4
  %42 = alloca %struct.dim3, align 4
  %43 = alloca %struct.dim3, align 4
  %44 = alloca { i64, i32 }, align 4
  %45 = alloca { i64, i32 }, align 4
  %46 = alloca %struct.dim3, align 4
  %47 = alloca %struct.dim3, align 4
  %48 = alloca { i64, i32 }, align 4
  %49 = alloca { i64, i32 }, align 4
  %50 = alloca %struct.dim3, align 4
  %51 = alloca %struct.dim3, align 4
  %52 = alloca { i64, i32 }, align 4
  %53 = alloca { i64, i32 }, align 4
  %54 = alloca %struct.dim3, align 4
  %55 = alloca %struct.dim3, align 4
  %56 = alloca { i64, i32 }, align 4
  %57 = alloca { i64, i32 }, align 4
  %58 = alloca %struct.dim3, align 4
  %59 = alloca %struct.dim3, align 4
  %60 = alloca { i64, i32 }, align 4
  %61 = alloca { i64, i32 }, align 4
  %62 = alloca %struct.dim3, align 4
  %63 = alloca %struct.dim3, align 4
  %64 = alloca { i64, i32 }, align 4
  %65 = alloca { i64, i32 }, align 4
  %66 = alloca %struct.dim3, align 4
  %67 = alloca %struct.dim3, align 4
  %68 = alloca { i64, i32 }, align 4
  %69 = alloca { i64, i32 }, align 4
  %70 = alloca %"class.std::__cxx11::basic_string", align 8
  %71 = alloca i8*, align 8
  %72 = alloca i32, align 4
  store %"class.at::Tensor"* %0, %"class.at::Tensor"** %9, align 8
  store %"class.at::Tensor"* %1, %"class.at::Tensor"** %10, align 8
  store %"class.at::Tensor"* %2, %"class.at::Tensor"** %11, align 8
  store %"class.at::Tensor"* %3, %"class.at::Tensor"** %12, align 8
  store float %4, float* %13, align 4
  store %"class.at::Tensor"* %5, %"class.at::Tensor"** %14, align 8
  store %"class.at::Tensor"* %6, %"class.at::Tensor"** %15, align 8
  store i32 %7, i32* %16, align 4
  %73 = load %"class.at::Tensor"*, %"class.at::Tensor"** %10, align 8
  %74 = bitcast %"class.at::Tensor"* %73 to %"class.at::TensorBase"*
  %75 = call i64 @_ZNK2at10TensorBase4sizeEl(%"class.at::TensorBase"* nonnull align 8 dereferenceable(8) %74, i64 0)
  %76 = trunc i64 %75 to i32
  store i32 %76, i32* %17, align 4
  %77 = load %"class.at::Tensor"*, %"class.at::Tensor"** %10, align 8
  %78 = bitcast %"class.at::Tensor"* %77 to %"class.at::TensorBase"*
  %79 = call i64 @_ZNK2at10TensorBase4sizeEl(%"class.at::TensorBase"* nonnull align 8 dereferenceable(8) %78, i64 1)
  %80 = trunc i64 %79 to i32
  store i32 %80, i32* %18, align 4
  %81 = load %"class.at::Tensor"*, %"class.at::Tensor"** %10, align 8
  %82 = bitcast %"class.at::Tensor"* %81 to %"class.at::TensorBase"*
  %83 = call i64 @_ZNK2at10TensorBase4sizeEl(%"class.at::TensorBase"* nonnull align 8 dereferenceable(8) %82, i64 2)
  %84 = trunc i64 %83 to i32
  store i32 %84, i32* %19, align 4
  %85 = load %"class.at::Tensor"*, %"class.at::Tensor"** %14, align 8
  %86 = bitcast %"class.at::Tensor"* %85 to %"class.at::TensorBase"*
  %87 = call i64 @_ZNK2at10TensorBase4sizeEl(%"class.at::TensorBase"* nonnull align 8 dereferenceable(8) %86, i64 1)
  %88 = trunc i64 %87 to i32
  store i32 %88, i32* %20, align 4
  %89 = load %"class.at::Tensor"*, %"class.at::Tensor"** %10, align 8
  %90 = bitcast %"class.at::Tensor"* %89 to %"class.at::TensorBase"*
  %91 = call i64 @_ZNK2at10TensorBase6strideEl(%"class.at::TensorBase"* nonnull align 8 dereferenceable(8) %90, i64 0)
  %92 = trunc i64 %91 to i32
  store i32 %92, i32* %21, align 4
  store i32 16, i32* %22, align 4
  %93 = load i32, i32* %19, align 4
  %94 = load i32, i32* %22, align 4
  %95 = srem i32 %93, %94
  %96 = icmp eq i32 %95, 0
  br i1 %96, label %97, label %98

97:                                               ; preds = %8
  br label %100

98:                                               ; preds = %8
  call void @__assert_fail(i8* getelementptr inbounds ([35 x i8], [35 x i8]* @.str.153, i64 0, i64 0), i8* getelementptr inbounds ([65 x i8], [65 x i8]* @.str, i64 0, i64 0), i32 337, i8* getelementptr inbounds ([217 x i8], [217 x i8]* @__PRETTY_FUNCTION__._Z41single_query_cached_kv_attention_launcherItLi2ELi128EEvRN2at6TensorES2_S2_S2_fS2_S2_i, i64 0, i64 0)) #19
  unreachable

99:                                               ; No predecessors!
  br label %100

100:                                              ; preds = %99, %97
  %101 = load %"class.at::Tensor"*, %"class.at::Tensor"** %9, align 8
  %102 = bitcast %"class.at::Tensor"* %101 to %"class.at::TensorBase"*
  %103 = call i8* @_ZNK2at10TensorBase8data_ptrEv(%"class.at::TensorBase"* nonnull align 8 dereferenceable(8) %102)
  %104 = bitcast i8* %103 to i16*
  store i16* %104, i16** %23, align 8
  %105 = load %"class.at::Tensor"*, %"class.at::Tensor"** %10, align 8
  %106 = bitcast %"class.at::Tensor"* %105 to %"class.at::TensorBase"*
  %107 = call i8* @_ZNK2at10TensorBase8data_ptrEv(%"class.at::TensorBase"* nonnull align 8 dereferenceable(8) %106)
  %108 = bitcast i8* %107 to i16*
  store i16* %108, i16** %24, align 8
  %109 = load %"class.at::Tensor"*, %"class.at::Tensor"** %11, align 8
  %110 = bitcast %"class.at::Tensor"* %109 to %"class.at::TensorBase"*
  %111 = call i8* @_ZNK2at10TensorBase8data_ptrEv(%"class.at::TensorBase"* nonnull align 8 dereferenceable(8) %110)
  %112 = bitcast i8* %111 to i16*
  store i16* %112, i16** %25, align 8
  %113 = load %"class.at::Tensor"*, %"class.at::Tensor"** %12, align 8
  %114 = bitcast %"class.at::Tensor"* %113 to %"class.at::TensorBase"*
  %115 = call i8* @_ZNK2at10TensorBase8data_ptrEv(%"class.at::TensorBase"* nonnull align 8 dereferenceable(8) %114)
  %116 = bitcast i8* %115 to i16*
  store i16* %116, i16** %26, align 8
  %117 = load %"class.at::Tensor"*, %"class.at::Tensor"** %14, align 8
  %118 = bitcast %"class.at::Tensor"* %117 to %"class.at::TensorBase"*
  %119 = call i32* @_ZNK2at10TensorBase8data_ptrIiEEPT_v(%"class.at::TensorBase"* nonnull align 8 dereferenceable(8) %118)
  store i32* %119, i32** %27, align 8
  %120 = load %"class.at::Tensor"*, %"class.at::Tensor"** %15, align 8
  %121 = bitcast %"class.at::Tensor"* %120 to %"class.at::TensorBase"*
  %122 = call i32* @_ZNK2at10TensorBase8data_ptrIiEEPT_v(%"class.at::TensorBase"* nonnull align 8 dereferenceable(8) %121)
  store i32* %122, i32** %28, align 8
  store i32 4, i32* %29, align 4
  %123 = load i32, i32* %16, align 4
  %124 = add nsw i32 %123, 2
  %125 = sub nsw i32 %124, 1
  %126 = sdiv i32 %125, 2
  %127 = mul nsw i32 %126, 2
  store i32 %127, i32* %30, align 4
  %128 = load i32, i32* %30, align 4
  %129 = sext i32 %128 to i64
  %130 = mul i64 %129, 2
  %131 = trunc i64 %130 to i32
  store i32 %131, i32* %31, align 4
  %132 = load i32, i32* %19, align 4
  %133 = mul nsw i32 2, %132
  %134 = sext i32 %133 to i64
  %135 = mul i64 %134, 4
  %136 = trunc i64 %135 to i32
  store i32 %136, i32* %32, align 4
  %137 = call nonnull align 4 dereferenceable(4) i32* @_ZSt3maxIiEUa9enable_ifILb1EERKT_S2_S2_(i32* nonnull align 4 dereferenceable(4) %31, i32* nonnull align 4 dereferenceable(4) %32)
  %138 = load i32, i32* %137, align 4
  store i32 %138, i32* %33, align 4
  %139 = load i32, i32* %18, align 4
  %140 = load i32, i32* %17, align 4
  call void @_ZN4dim3C2Ejjj(%struct.dim3* nonnull align 4 dereferenceable(12) %34, i32 %139, i32 %140, i32 1)
  call void @_ZN4dim3C2Ejjj(%struct.dim3* nonnull align 4 dereferenceable(12) %35, i32 128, i32 1, i32 1)
  %141 = call { i64, i64 } @_ZN3c104cuda20getCurrentCUDAStreamEa(i8 signext -1)
  %142 = getelementptr inbounds %"class.c10::cuda::CUDAStream", %"class.c10::cuda::CUDAStream"* %37, i32 0, i32 0
  %143 = bitcast %"class.c10::Stream"* %142 to { i64, i64 }*
  %144 = getelementptr inbounds { i64, i64 }, { i64, i64 }* %143, i32 0, i32 0
  %145 = extractvalue { i64, i64 } %141, 0
  store i64 %145, i64* %144, align 8
  %146 = getelementptr inbounds { i64, i64 }, { i64, i64 }* %143, i32 0, i32 1
  %147 = extractvalue { i64, i64 } %141, 1
  store i64 %147, i64* %146, align 8
  %148 = call %struct.CUstream_st* @_ZNK3c104cuda10CUDAStreamcvP11CUstream_stEv(%"class.c10::cuda::CUDAStream"* nonnull align 8 dereferenceable(16) %37)
  store %struct.CUstream_st* %148, %struct.CUstream_st** %36, align 8
  %149 = load i32, i32* %19, align 4
  switch i32 %149, label %422 [
    i32 32, label %150
    i32 64, label %184
    i32 80, label %218
    i32 96, label %252
    i32 128, label %286
    i32 160, label %320
    i32 192, label %354
    i32 256, label %388
  ]

150:                                              ; preds = %100
  %151 = bitcast %struct.dim3* %38 to i8*
  %152 = bitcast %struct.dim3* %34 to i8*
  call void @llvm.memcpy.p0i8.p0i8.i64(i8* align 4 %151, i8* align 4 %152, i64 12, i1 false)
  %153 = bitcast %struct.dim3* %39 to i8*
  %154 = bitcast %struct.dim3* %35 to i8*
  call void @llvm.memcpy.p0i8.p0i8.i64(i8* align 4 %153, i8* align 4 %154, i64 12, i1 false)
  %155 = load i32, i32* %33, align 4
  %156 = sext i32 %155 to i64
  %157 = load %struct.CUstream_st*, %struct.CUstream_st** %36, align 8
  %158 = bitcast %struct.CUstream_st* %157 to i8*
  %159 = bitcast { i64, i32 }* %40 to i8*
  %160 = bitcast %struct.dim3* %38 to i8*
  call void @llvm.memcpy.p0i8.p0i8.i64(i8* align 4 %159, i8* align 4 %160, i64 12, i1 false)
  %161 = getelementptr inbounds { i64, i32 }, { i64, i32 }* %40, i32 0, i32 0
  %162 = load i64, i64* %161, align 4
  %163 = getelementptr inbounds { i64, i32 }, { i64, i32 }* %40, i32 0, i32 1
  %164 = load i32, i32* %163, align 4
  %165 = bitcast { i64, i32 }* %41 to i8*
  %166 = bitcast %struct.dim3* %39 to i8*
  call void @llvm.memcpy.p0i8.p0i8.i64(i8* align 4 %165, i8* align 4 %166, i64 12, i1 false)
  %167 = getelementptr inbounds { i64, i32 }, { i64, i32 }* %41, i32 0, i32 0
  %168 = load i64, i64* %167, align 4
  %169 = getelementptr inbounds { i64, i32 }, { i64, i32 }* %41, i32 0, i32 1
  %170 = load i32, i32* %169, align 4
  %171 = call i32 @__cudaPushCallConfiguration(i64 %162, i32 %164, i64 %168, i32 %170, i64 %156, i8* %158)
  %172 = icmp ne i32 %171, 0
  br i1 %172, label %183, label %173

173:                                              ; preds = %150
  %174 = load i16*, i16** %23, align 8
  %175 = load i16*, i16** %24, align 8
  %176 = load i16*, i16** %25, align 8
  %177 = load i16*, i16** %26, align 8
  %178 = load float, float* %13, align 4
  %179 = load i32*, i32** %27, align 8
  %180 = load i32*, i32** %28, align 8
  %181 = load i32, i32* %20, align 4
  %182 = load i32, i32* %21, align 4
  call void @_ZN9cacheflow54__device_stub__single_query_cached_kv_attention_kernelItLi32ELi2ELi128EEEvPT_PKS1_S4_S4_fPKiS6_ii(i16* %174, i16* %175, i16* %176, i16* %177, float %178, i32* %179, i32* %180, i32 %181, i32 %182)
  br label %183

183:                                              ; preds = %173, %150
  br label %428

184:                                              ; preds = %100
  %185 = bitcast %struct.dim3* %42 to i8*
  %186 = bitcast %struct.dim3* %34 to i8*
  call void @llvm.memcpy.p0i8.p0i8.i64(i8* align 4 %185, i8* align 4 %186, i64 12, i1 false)
  %187 = bitcast %struct.dim3* %43 to i8*
  %188 = bitcast %struct.dim3* %35 to i8*
  call void @llvm.memcpy.p0i8.p0i8.i64(i8* align 4 %187, i8* align 4 %188, i64 12, i1 false)
  %189 = load i32, i32* %33, align 4
  %190 = sext i32 %189 to i64
  %191 = load %struct.CUstream_st*, %struct.CUstream_st** %36, align 8
  %192 = bitcast %struct.CUstream_st* %191 to i8*
  %193 = bitcast { i64, i32 }* %44 to i8*
  %194 = bitcast %struct.dim3* %42 to i8*
  call void @llvm.memcpy.p0i8.p0i8.i64(i8* align 4 %193, i8* align 4 %194, i64 12, i1 false)
  %195 = getelementptr inbounds { i64, i32 }, { i64, i32 }* %44, i32 0, i32 0
  %196 = load i64, i64* %195, align 4
  %197 = getelementptr inbounds { i64, i32 }, { i64, i32 }* %44, i32 0, i32 1
  %198 = load i32, i32* %197, align 4
  %199 = bitcast { i64, i32 }* %45 to i8*
  %200 = bitcast %struct.dim3* %43 to i8*
  call void @llvm.memcpy.p0i8.p0i8.i64(i8* align 4 %199, i8* align 4 %200, i64 12, i1 false)
  %201 = getelementptr inbounds { i64, i32 }, { i64, i32 }* %45, i32 0, i32 0
  %202 = load i64, i64* %201, align 4
  %203 = getelementptr inbounds { i64, i32 }, { i64, i32 }* %45, i32 0, i32 1
  %204 = load i32, i32* %203, align 4
  %205 = call i32 @__cudaPushCallConfiguration(i64 %196, i32 %198, i64 %202, i32 %204, i64 %190, i8* %192)
  %206 = icmp ne i32 %205, 0
  br i1 %206, label %217, label %207

207:                                              ; preds = %184
  %208 = load i16*, i16** %23, align 8
  %209 = load i16*, i16** %24, align 8
  %210 = load i16*, i16** %25, align 8
  %211 = load i16*, i16** %26, align 8
  %212 = load float, float* %13, align 4
  %213 = load i32*, i32** %27, align 8
  %214 = load i32*, i32** %28, align 8
  %215 = load i32, i32* %20, align 4
  %216 = load i32, i32* %21, align 4
  call void @_ZN9cacheflow54__device_stub__single_query_cached_kv_attention_kernelItLi64ELi2ELi128EEEvPT_PKS1_S4_S4_fPKiS6_ii(i16* %208, i16* %209, i16* %210, i16* %211, float %212, i32* %213, i32* %214, i32 %215, i32 %216)
  br label %217

217:                                              ; preds = %207, %184
  br label %428

218:                                              ; preds = %100
  %219 = bitcast %struct.dim3* %46 to i8*
  %220 = bitcast %struct.dim3* %34 to i8*
  call void @llvm.memcpy.p0i8.p0i8.i64(i8* align 4 %219, i8* align 4 %220, i64 12, i1 false)
  %221 = bitcast %struct.dim3* %47 to i8*
  %222 = bitcast %struct.dim3* %35 to i8*
  call void @llvm.memcpy.p0i8.p0i8.i64(i8* align 4 %221, i8* align 4 %222, i64 12, i1 false)
  %223 = load i32, i32* %33, align 4
  %224 = sext i32 %223 to i64
  %225 = load %struct.CUstream_st*, %struct.CUstream_st** %36, align 8
  %226 = bitcast %struct.CUstream_st* %225 to i8*
  %227 = bitcast { i64, i32 }* %48 to i8*
  %228 = bitcast %struct.dim3* %46 to i8*
  call void @llvm.memcpy.p0i8.p0i8.i64(i8* align 4 %227, i8* align 4 %228, i64 12, i1 false)
  %229 = getelementptr inbounds { i64, i32 }, { i64, i32 }* %48, i32 0, i32 0
  %230 = load i64, i64* %229, align 4
  %231 = getelementptr inbounds { i64, i32 }, { i64, i32 }* %48, i32 0, i32 1
  %232 = load i32, i32* %231, align 4
  %233 = bitcast { i64, i32 }* %49 to i8*
  %234 = bitcast %struct.dim3* %47 to i8*
  call void @llvm.memcpy.p0i8.p0i8.i64(i8* align 4 %233, i8* align 4 %234, i64 12, i1 false)
  %235 = getelementptr inbounds { i64, i32 }, { i64, i32 }* %49, i32 0, i32 0
  %236 = load i64, i64* %235, align 4
  %237 = getelementptr inbounds { i64, i32 }, { i64, i32 }* %49, i32 0, i32 1
  %238 = load i32, i32* %237, align 4
  %239 = call i32 @__cudaPushCallConfiguration(i64 %230, i32 %232, i64 %236, i32 %238, i64 %224, i8* %226)
  %240 = icmp ne i32 %239, 0
  br i1 %240, label %251, label %241

241:                                              ; preds = %218
  %242 = load i16*, i16** %23, align 8
  %243 = load i16*, i16** %24, align 8
  %244 = load i16*, i16** %25, align 8
  %245 = load i16*, i16** %26, align 8
  %246 = load float, float* %13, align 4
  %247 = load i32*, i32** %27, align 8
  %248 = load i32*, i32** %28, align 8
  %249 = load i32, i32* %20, align 4
  %250 = load i32, i32* %21, align 4
  call void @_ZN9cacheflow54__device_stub__single_query_cached_kv_attention_kernelItLi80ELi2ELi128EEEvPT_PKS1_S4_S4_fPKiS6_ii(i16* %242, i16* %243, i16* %244, i16* %245, float %246, i32* %247, i32* %248, i32 %249, i32 %250)
  br label %251

251:                                              ; preds = %241, %218
  br label %428

252:                                              ; preds = %100
  %253 = bitcast %struct.dim3* %50 to i8*
  %254 = bitcast %struct.dim3* %34 to i8*
  call void @llvm.memcpy.p0i8.p0i8.i64(i8* align 4 %253, i8* align 4 %254, i64 12, i1 false)
  %255 = bitcast %struct.dim3* %51 to i8*
  %256 = bitcast %struct.dim3* %35 to i8*
  call void @llvm.memcpy.p0i8.p0i8.i64(i8* align 4 %255, i8* align 4 %256, i64 12, i1 false)
  %257 = load i32, i32* %33, align 4
  %258 = sext i32 %257 to i64
  %259 = load %struct.CUstream_st*, %struct.CUstream_st** %36, align 8
  %260 = bitcast %struct.CUstream_st* %259 to i8*
  %261 = bitcast { i64, i32 }* %52 to i8*
  %262 = bitcast %struct.dim3* %50 to i8*
  call void @llvm.memcpy.p0i8.p0i8.i64(i8* align 4 %261, i8* align 4 %262, i64 12, i1 false)
  %263 = getelementptr inbounds { i64, i32 }, { i64, i32 }* %52, i32 0, i32 0
  %264 = load i64, i64* %263, align 4
  %265 = getelementptr inbounds { i64, i32 }, { i64, i32 }* %52, i32 0, i32 1
  %266 = load i32, i32* %265, align 4
  %267 = bitcast { i64, i32 }* %53 to i8*
  %268 = bitcast %struct.dim3* %51 to i8*
  call void @llvm.memcpy.p0i8.p0i8.i64(i8* align 4 %267, i8* align 4 %268, i64 12, i1 false)
  %269 = getelementptr inbounds { i64, i32 }, { i64, i32 }* %53, i32 0, i32 0
  %270 = load i64, i64* %269, align 4
  %271 = getelementptr inbounds { i64, i32 }, { i64, i32 }* %53, i32 0, i32 1
  %272 = load i32, i32* %271, align 4
  %273 = call i32 @__cudaPushCallConfiguration(i64 %264, i32 %266, i64 %270, i32 %272, i64 %258, i8* %260)
  %274 = icmp ne i32 %273, 0
  br i1 %274, label %285, label %275

275:                                              ; preds = %252
  %276 = load i16*, i16** %23, align 8
  %277 = load i16*, i16** %24, align 8
  %278 = load i16*, i16** %25, align 8
  %279 = load i16*, i16** %26, align 8
  %280 = load float, float* %13, align 4
  %281 = load i32*, i32** %27, align 8
  %282 = load i32*, i32** %28, align 8
  %283 = load i32, i32* %20, align 4
  %284 = load i32, i32* %21, align 4
  call void @_ZN9cacheflow54__device_stub__single_query_cached_kv_attention_kernelItLi96ELi2ELi128EEEvPT_PKS1_S4_S4_fPKiS6_ii(i16* %276, i16* %277, i16* %278, i16* %279, float %280, i32* %281, i32* %282, i32 %283, i32 %284)
  br label %285

285:                                              ; preds = %275, %252
  br label %428

286:                                              ; preds = %100
  %287 = bitcast %struct.dim3* %54 to i8*
  %288 = bitcast %struct.dim3* %34 to i8*
  call void @llvm.memcpy.p0i8.p0i8.i64(i8* align 4 %287, i8* align 4 %288, i64 12, i1 false)
  %289 = bitcast %struct.dim3* %55 to i8*
  %290 = bitcast %struct.dim3* %35 to i8*
  call void @llvm.memcpy.p0i8.p0i8.i64(i8* align 4 %289, i8* align 4 %290, i64 12, i1 false)
  %291 = load i32, i32* %33, align 4
  %292 = sext i32 %291 to i64
  %293 = load %struct.CUstream_st*, %struct.CUstream_st** %36, align 8
  %294 = bitcast %struct.CUstream_st* %293 to i8*
  %295 = bitcast { i64, i32 }* %56 to i8*
  %296 = bitcast %struct.dim3* %54 to i8*
  call void @llvm.memcpy.p0i8.p0i8.i64(i8* align 4 %295, i8* align 4 %296, i64 12, i1 false)
  %297 = getelementptr inbounds { i64, i32 }, { i64, i32 }* %56, i32 0, i32 0
  %298 = load i64, i64* %297, align 4
  %299 = getelementptr inbounds { i64, i32 }, { i64, i32 }* %56, i32 0, i32 1
  %300 = load i32, i32* %299, align 4
  %301 = bitcast { i64, i32 }* %57 to i8*
  %302 = bitcast %struct.dim3* %55 to i8*
  call void @llvm.memcpy.p0i8.p0i8.i64(i8* align 4 %301, i8* align 4 %302, i64 12, i1 false)
  %303 = getelementptr inbounds { i64, i32 }, { i64, i32 }* %57, i32 0, i32 0
  %304 = load i64, i64* %303, align 4
  %305 = getelementptr inbounds { i64, i32 }, { i64, i32 }* %57, i32 0, i32 1
  %306 = load i32, i32* %305, align 4
  %307 = call i32 @__cudaPushCallConfiguration(i64 %298, i32 %300, i64 %304, i32 %306, i64 %292, i8* %294)
  %308 = icmp ne i32 %307, 0
  br i1 %308, label %319, label %309

309:                                              ; preds = %286
  %310 = load i16*, i16** %23, align 8
  %311 = load i16*, i16** %24, align 8
  %312 = load i16*, i16** %25, align 8
  %313 = load i16*, i16** %26, align 8
  %314 = load float, float* %13, align 4
  %315 = load i32*, i32** %27, align 8
  %316 = load i32*, i32** %28, align 8
  %317 = load i32, i32* %20, align 4
  %318 = load i32, i32* %21, align 4
  call void @_ZN9cacheflow54__device_stub__single_query_cached_kv_attention_kernelItLi128ELi2ELi128EEEvPT_PKS1_S4_S4_fPKiS6_ii(i16* %310, i16* %311, i16* %312, i16* %313, float %314, i32* %315, i32* %316, i32 %317, i32 %318)
  br label %319

319:                                              ; preds = %309, %286
  br label %428

320:                                              ; preds = %100
  %321 = bitcast %struct.dim3* %58 to i8*
  %322 = bitcast %struct.dim3* %34 to i8*
  call void @llvm.memcpy.p0i8.p0i8.i64(i8* align 4 %321, i8* align 4 %322, i64 12, i1 false)
  %323 = bitcast %struct.dim3* %59 to i8*
  %324 = bitcast %struct.dim3* %35 to i8*
  call void @llvm.memcpy.p0i8.p0i8.i64(i8* align 4 %323, i8* align 4 %324, i64 12, i1 false)
  %325 = load i32, i32* %33, align 4
  %326 = sext i32 %325 to i64
  %327 = load %struct.CUstream_st*, %struct.CUstream_st** %36, align 8
  %328 = bitcast %struct.CUstream_st* %327 to i8*
  %329 = bitcast { i64, i32 }* %60 to i8*
  %330 = bitcast %struct.dim3* %58 to i8*
  call void @llvm.memcpy.p0i8.p0i8.i64(i8* align 4 %329, i8* align 4 %330, i64 12, i1 false)
  %331 = getelementptr inbounds { i64, i32 }, { i64, i32 }* %60, i32 0, i32 0
  %332 = load i64, i64* %331, align 4
  %333 = getelementptr inbounds { i64, i32 }, { i64, i32 }* %60, i32 0, i32 1
  %334 = load i32, i32* %333, align 4
  %335 = bitcast { i64, i32 }* %61 to i8*
  %336 = bitcast %struct.dim3* %59 to i8*
  call void @llvm.memcpy.p0i8.p0i8.i64(i8* align 4 %335, i8* align 4 %336, i64 12, i1 false)
  %337 = getelementptr inbounds { i64, i32 }, { i64, i32 }* %61, i32 0, i32 0
  %338 = load i64, i64* %337, align 4
  %339 = getelementptr inbounds { i64, i32 }, { i64, i32 }* %61, i32 0, i32 1
  %340 = load i32, i32* %339, align 4
  %341 = call i32 @__cudaPushCallConfiguration(i64 %332, i32 %334, i64 %338, i32 %340, i64 %326, i8* %328)
  %342 = icmp ne i32 %341, 0
  br i1 %342, label %353, label %343

343:                                              ; preds = %320
  %344 = load i16*, i16** %23, align 8
  %345 = load i16*, i16** %24, align 8
  %346 = load i16*, i16** %25, align 8
  %347 = load i16*, i16** %26, align 8
  %348 = load float, float* %13, align 4
  %349 = load i32*, i32** %27, align 8
  %350 = load i32*, i32** %28, align 8
  %351 = load i32, i32* %20, align 4
  %352 = load i32, i32* %21, align 4
  call void @_ZN9cacheflow54__device_stub__single_query_cached_kv_attention_kernelItLi160ELi2ELi128EEEvPT_PKS1_S4_S4_fPKiS6_ii(i16* %344, i16* %345, i16* %346, i16* %347, float %348, i32* %349, i32* %350, i32 %351, i32 %352)
  br label %353

353:                                              ; preds = %343, %320
  br label %428

354:                                              ; preds = %100
  %355 = bitcast %struct.dim3* %62 to i8*
  %356 = bitcast %struct.dim3* %34 to i8*
  call void @llvm.memcpy.p0i8.p0i8.i64(i8* align 4 %355, i8* align 4 %356, i64 12, i1 false)
  %357 = bitcast %struct.dim3* %63 to i8*
  %358 = bitcast %struct.dim3* %35 to i8*
  call void @llvm.memcpy.p0i8.p0i8.i64(i8* align 4 %357, i8* align 4 %358, i64 12, i1 false)
  %359 = load i32, i32* %33, align 4
  %360 = sext i32 %359 to i64
  %361 = load %struct.CUstream_st*, %struct.CUstream_st** %36, align 8
  %362 = bitcast %struct.CUstream_st* %361 to i8*
  %363 = bitcast { i64, i32 }* %64 to i8*
  %364 = bitcast %struct.dim3* %62 to i8*
  call void @llvm.memcpy.p0i8.p0i8.i64(i8* align 4 %363, i8* align 4 %364, i64 12, i1 false)
  %365 = getelementptr inbounds { i64, i32 }, { i64, i32 }* %64, i32 0, i32 0
  %366 = load i64, i64* %365, align 4
  %367 = getelementptr inbounds { i64, i32 }, { i64, i32 }* %64, i32 0, i32 1
  %368 = load i32, i32* %367, align 4
  %369 = bitcast { i64, i32 }* %65 to i8*
  %370 = bitcast %struct.dim3* %63 to i8*
  call void @llvm.memcpy.p0i8.p0i8.i64(i8* align 4 %369, i8* align 4 %370, i64 12, i1 false)
  %371 = getelementptr inbounds { i64, i32 }, { i64, i32 }* %65, i32 0, i32 0
  %372 = load i64, i64* %371, align 4
  %373 = getelementptr inbounds { i64, i32 }, { i64, i32 }* %65, i32 0, i32 1
  %374 = load i32, i32* %373, align 4
  %375 = call i32 @__cudaPushCallConfiguration(i64 %366, i32 %368, i64 %372, i32 %374, i64 %360, i8* %362)
  %376 = icmp ne i32 %375, 0
  br i1 %376, label %387, label %377

377:                                              ; preds = %354
  %378 = load i16*, i16** %23, align 8
  %379 = load i16*, i16** %24, align 8
  %380 = load i16*, i16** %25, align 8
  %381 = load i16*, i16** %26, align 8
  %382 = load float, float* %13, align 4
  %383 = load i32*, i32** %27, align 8
  %384 = load i32*, i32** %28, align 8
  %385 = load i32, i32* %20, align 4
  %386 = load i32, i32* %21, align 4
  call void @_ZN9cacheflow54__device_stub__single_query_cached_kv_attention_kernelItLi192ELi2ELi128EEEvPT_PKS1_S4_S4_fPKiS6_ii(i16* %378, i16* %379, i16* %380, i16* %381, float %382, i32* %383, i32* %384, i32 %385, i32 %386)
  br label %387

387:                                              ; preds = %377, %354
  br label %428

388:                                              ; preds = %100
  %389 = bitcast %struct.dim3* %66 to i8*
  %390 = bitcast %struct.dim3* %34 to i8*
  call void @llvm.memcpy.p0i8.p0i8.i64(i8* align 4 %389, i8* align 4 %390, i64 12, i1 false)
  %391 = bitcast %struct.dim3* %67 to i8*
  %392 = bitcast %struct.dim3* %35 to i8*
  call void @llvm.memcpy.p0i8.p0i8.i64(i8* align 4 %391, i8* align 4 %392, i64 12, i1 false)
  %393 = load i32, i32* %33, align 4
  %394 = sext i32 %393 to i64
  %395 = load %struct.CUstream_st*, %struct.CUstream_st** %36, align 8
  %396 = bitcast %struct.CUstream_st* %395 to i8*
  %397 = bitcast { i64, i32 }* %68 to i8*
  %398 = bitcast %struct.dim3* %66 to i8*
  call void @llvm.memcpy.p0i8.p0i8.i64(i8* align 4 %397, i8* align 4 %398, i64 12, i1 false)
  %399 = getelementptr inbounds { i64, i32 }, { i64, i32 }* %68, i32 0, i32 0
  %400 = load i64, i64* %399, align 4
  %401 = getelementptr inbounds { i64, i32 }, { i64, i32 }* %68, i32 0, i32 1
  %402 = load i32, i32* %401, align 4
  %403 = bitcast { i64, i32 }* %69 to i8*
  %404 = bitcast %struct.dim3* %67 to i8*
  call void @llvm.memcpy.p0i8.p0i8.i64(i8* align 4 %403, i8* align 4 %404, i64 12, i1 false)
  %405 = getelementptr inbounds { i64, i32 }, { i64, i32 }* %69, i32 0, i32 0
  %406 = load i64, i64* %405, align 4
  %407 = getelementptr inbounds { i64, i32 }, { i64, i32 }* %69, i32 0, i32 1
  %408 = load i32, i32* %407, align 4
  %409 = call i32 @__cudaPushCallConfiguration(i64 %400, i32 %402, i64 %406, i32 %408, i64 %394, i8* %396)
  %410 = icmp ne i32 %409, 0
  br i1 %410, label %421, label %411

411:                                              ; preds = %388
  %412 = load i16*, i16** %23, align 8
  %413 = load i16*, i16** %24, align 8
  %414 = load i16*, i16** %25, align 8
  %415 = load i16*, i16** %26, align 8
  %416 = load float, float* %13, align 4
  %417 = load i32*, i32** %27, align 8
  %418 = load i32*, i32** %28, align 8
  %419 = load i32, i32* %20, align 4
  %420 = load i32, i32* %21, align 4
  call void @_ZN9cacheflow54__device_stub__single_query_cached_kv_attention_kernelItLi256ELi2ELi128EEEvPT_PKS1_S4_S4_fPKiS6_ii(i16* %412, i16* %413, i16* %414, i16* %415, float %416, i32* %417, i32* %418, i32 %419, i32 %420)
  br label %421

421:                                              ; preds = %411, %388
  br label %428

422:                                              ; preds = %100
  call void @_ZN3c106detail17torchCheckMsgImplIJA24_ciEEEDcPKcDpRKT_(%"class.std::__cxx11::basic_string"* sret(%"class.std::__cxx11::basic_string") align 8 %70, i8* getelementptr inbounds ([140 x i8], [140 x i8]* @.str.1, i64 0, i64 0), [24 x i8]* nonnull align 1 dereferenceable(24) @.str.154, i32* nonnull align 4 dereferenceable(4) %19)
  invoke void @_ZN3c106detail14torchCheckFailEPKcS2_jRKNSt7__cxx1112basic_stringIcSt11char_traitsIcESaIcEEE(i8* getelementptr inbounds ([42 x i8], [42 x i8]* @__func__._Z41single_query_cached_kv_attention_launcherItLi1ELi128EEvRN2at6TensorES2_S2_S2_fS2_S2_i, i64 0, i64 0), i8* getelementptr inbounds ([65 x i8], [65 x i8]* @.str, i64 0, i64 0), i32 381, %"class.std::__cxx11::basic_string"* nonnull align 8 dereferenceable(32) %70) #18
          to label %423 unwind label %424

423:                                              ; preds = %422
  unreachable

424:                                              ; preds = %422
  %425 = landingpad { i8*, i32 }
          cleanup
  %426 = extractvalue { i8*, i32 } %425, 0
  store i8* %426, i8** %71, align 8
  %427 = extractvalue { i8*, i32 } %425, 1
  store i32 %427, i32* %72, align 4
  call void @_ZNSt7__cxx1112basic_stringIcSt11char_traitsIcESaIcEED1Ev(%"class.std::__cxx11::basic_string"* nonnull align 8 dereferenceable(32) %70) #3
  br label %429

428:                                              ; preds = %421, %387, %353, %319, %285, %251, %217, %183
  ret void

429:                                              ; preds = %424
  %430 = load i8*, i8** %71, align 8
  %431 = load i32, i32* %72, align 4
  %432 = insertvalue { i8*, i32 } undef, i8* %430, 0
  %433 = insertvalue { i8*, i32 } %432, i32 %431, 1
  resume { i8*, i32 } %433
}

; Function Attrs: mustprogress noinline optnone uwtable
define linkonce_odr dso_local void @_Z41single_query_cached_kv_attention_launcherItLi4ELi128EEvRN2at6TensorES2_S2_S2_fS2_S2_i(%"class.at::Tensor"* nonnull align 8 dereferenceable(8) %0, %"class.at::Tensor"* nonnull align 8 dereferenceable(8) %1, %"class.at::Tensor"* nonnull align 8 dereferenceable(8) %2, %"class.at::Tensor"* nonnull align 8 dereferenceable(8) %3, float %4, %"class.at::Tensor"* nonnull align 8 dereferenceable(8) %5, %"class.at::Tensor"* nonnull align 8 dereferenceable(8) %6, i32 %7) #4 comdat personality i8* bitcast (i32 (...)* @__gxx_personality_v0 to i8*) {
  %9 = alloca %"class.at::Tensor"*, align 8
  %10 = alloca %"class.at::Tensor"*, align 8
  %11 = alloca %"class.at::Tensor"*, align 8
  %12 = alloca %"class.at::Tensor"*, align 8
  %13 = alloca float, align 4
  %14 = alloca %"class.at::Tensor"*, align 8
  %15 = alloca %"class.at::Tensor"*, align 8
  %16 = alloca i32, align 4
  %17 = alloca i32, align 4
  %18 = alloca i32, align 4
  %19 = alloca i32, align 4
  %20 = alloca i32, align 4
  %21 = alloca i32, align 4
  %22 = alloca i32, align 4
  %23 = alloca i16*, align 8
  %24 = alloca i16*, align 8
  %25 = alloca i16*, align 8
  %26 = alloca i16*, align 8
  %27 = alloca i32*, align 8
  %28 = alloca i32*, align 8
  %29 = alloca i32, align 4
  %30 = alloca i32, align 4
  %31 = alloca i32, align 4
  %32 = alloca i32, align 4
  %33 = alloca i32, align 4
  %34 = alloca %struct.dim3, align 4
  %35 = alloca %struct.dim3, align 4
  %36 = alloca %struct.CUstream_st*, align 8
  %37 = alloca %"class.c10::cuda::CUDAStream", align 8
  %38 = alloca %struct.dim3, align 4
  %39 = alloca %struct.dim3, align 4
  %40 = alloca { i64, i32 }, align 4
  %41 = alloca { i64, i32 }, align 4
  %42 = alloca %struct.dim3, align 4
  %43 = alloca %struct.dim3, align 4
  %44 = alloca { i64, i32 }, align 4
  %45 = alloca { i64, i32 }, align 4
  %46 = alloca %struct.dim3, align 4
  %47 = alloca %struct.dim3, align 4
  %48 = alloca { i64, i32 }, align 4
  %49 = alloca { i64, i32 }, align 4
  %50 = alloca %struct.dim3, align 4
  %51 = alloca %struct.dim3, align 4
  %52 = alloca { i64, i32 }, align 4
  %53 = alloca { i64, i32 }, align 4
  %54 = alloca %struct.dim3, align 4
  %55 = alloca %struct.dim3, align 4
  %56 = alloca { i64, i32 }, align 4
  %57 = alloca { i64, i32 }, align 4
  %58 = alloca %struct.dim3, align 4
  %59 = alloca %struct.dim3, align 4
  %60 = alloca { i64, i32 }, align 4
  %61 = alloca { i64, i32 }, align 4
  %62 = alloca %struct.dim3, align 4
  %63 = alloca %struct.dim3, align 4
  %64 = alloca { i64, i32 }, align 4
  %65 = alloca { i64, i32 }, align 4
  %66 = alloca %struct.dim3, align 4
  %67 = alloca %struct.dim3, align 4
  %68 = alloca { i64, i32 }, align 4
  %69 = alloca { i64, i32 }, align 4
  %70 = alloca %"class.std::__cxx11::basic_string", align 8
  %71 = alloca i8*, align 8
  %72 = alloca i32, align 4
  store %"class.at::Tensor"* %0, %"class.at::Tensor"** %9, align 8
  store %"class.at::Tensor"* %1, %"class.at::Tensor"** %10, align 8
  store %"class.at::Tensor"* %2, %"class.at::Tensor"** %11, align 8
  store %"class.at::Tensor"* %3, %"class.at::Tensor"** %12, align 8
  store float %4, float* %13, align 4
  store %"class.at::Tensor"* %5, %"class.at::Tensor"** %14, align 8
  store %"class.at::Tensor"* %6, %"class.at::Tensor"** %15, align 8
  store i32 %7, i32* %16, align 4
  %73 = load %"class.at::Tensor"*, %"class.at::Tensor"** %10, align 8
  %74 = bitcast %"class.at::Tensor"* %73 to %"class.at::TensorBase"*
  %75 = call i64 @_ZNK2at10TensorBase4sizeEl(%"class.at::TensorBase"* nonnull align 8 dereferenceable(8) %74, i64 0)
  %76 = trunc i64 %75 to i32
  store i32 %76, i32* %17, align 4
  %77 = load %"class.at::Tensor"*, %"class.at::Tensor"** %10, align 8
  %78 = bitcast %"class.at::Tensor"* %77 to %"class.at::TensorBase"*
  %79 = call i64 @_ZNK2at10TensorBase4sizeEl(%"class.at::TensorBase"* nonnull align 8 dereferenceable(8) %78, i64 1)
  %80 = trunc i64 %79 to i32
  store i32 %80, i32* %18, align 4
  %81 = load %"class.at::Tensor"*, %"class.at::Tensor"** %10, align 8
  %82 = bitcast %"class.at::Tensor"* %81 to %"class.at::TensorBase"*
  %83 = call i64 @_ZNK2at10TensorBase4sizeEl(%"class.at::TensorBase"* nonnull align 8 dereferenceable(8) %82, i64 2)
  %84 = trunc i64 %83 to i32
  store i32 %84, i32* %19, align 4
  %85 = load %"class.at::Tensor"*, %"class.at::Tensor"** %14, align 8
  %86 = bitcast %"class.at::Tensor"* %85 to %"class.at::TensorBase"*
  %87 = call i64 @_ZNK2at10TensorBase4sizeEl(%"class.at::TensorBase"* nonnull align 8 dereferenceable(8) %86, i64 1)
  %88 = trunc i64 %87 to i32
  store i32 %88, i32* %20, align 4
  %89 = load %"class.at::Tensor"*, %"class.at::Tensor"** %10, align 8
  %90 = bitcast %"class.at::Tensor"* %89 to %"class.at::TensorBase"*
  %91 = call i64 @_ZNK2at10TensorBase6strideEl(%"class.at::TensorBase"* nonnull align 8 dereferenceable(8) %90, i64 0)
  %92 = trunc i64 %91 to i32
  store i32 %92, i32* %21, align 4
  store i32 8, i32* %22, align 4
  %93 = load i32, i32* %19, align 4
  %94 = load i32, i32* %22, align 4
  %95 = srem i32 %93, %94
  %96 = icmp eq i32 %95, 0
  br i1 %96, label %97, label %98

97:                                               ; preds = %8
  br label %100

98:                                               ; preds = %8
  call void @__assert_fail(i8* getelementptr inbounds ([35 x i8], [35 x i8]* @.str.153, i64 0, i64 0), i8* getelementptr inbounds ([65 x i8], [65 x i8]* @.str, i64 0, i64 0), i32 337, i8* getelementptr inbounds ([217 x i8], [217 x i8]* @__PRETTY_FUNCTION__._Z41single_query_cached_kv_attention_launcherItLi4ELi128EEvRN2at6TensorES2_S2_S2_fS2_S2_i, i64 0, i64 0)) #19
  unreachable

99:                                               ; No predecessors!
  br label %100

100:                                              ; preds = %99, %97
  %101 = load %"class.at::Tensor"*, %"class.at::Tensor"** %9, align 8
  %102 = bitcast %"class.at::Tensor"* %101 to %"class.at::TensorBase"*
  %103 = call i8* @_ZNK2at10TensorBase8data_ptrEv(%"class.at::TensorBase"* nonnull align 8 dereferenceable(8) %102)
  %104 = bitcast i8* %103 to i16*
  store i16* %104, i16** %23, align 8
  %105 = load %"class.at::Tensor"*, %"class.at::Tensor"** %10, align 8
  %106 = bitcast %"class.at::Tensor"* %105 to %"class.at::TensorBase"*
  %107 = call i8* @_ZNK2at10TensorBase8data_ptrEv(%"class.at::TensorBase"* nonnull align 8 dereferenceable(8) %106)
  %108 = bitcast i8* %107 to i16*
  store i16* %108, i16** %24, align 8
  %109 = load %"class.at::Tensor"*, %"class.at::Tensor"** %11, align 8
  %110 = bitcast %"class.at::Tensor"* %109 to %"class.at::TensorBase"*
  %111 = call i8* @_ZNK2at10TensorBase8data_ptrEv(%"class.at::TensorBase"* nonnull align 8 dereferenceable(8) %110)
  %112 = bitcast i8* %111 to i16*
  store i16* %112, i16** %25, align 8
  %113 = load %"class.at::Tensor"*, %"class.at::Tensor"** %12, align 8
  %114 = bitcast %"class.at::Tensor"* %113 to %"class.at::TensorBase"*
  %115 = call i8* @_ZNK2at10TensorBase8data_ptrEv(%"class.at::TensorBase"* nonnull align 8 dereferenceable(8) %114)
  %116 = bitcast i8* %115 to i16*
  store i16* %116, i16** %26, align 8
  %117 = load %"class.at::Tensor"*, %"class.at::Tensor"** %14, align 8
  %118 = bitcast %"class.at::Tensor"* %117 to %"class.at::TensorBase"*
  %119 = call i32* @_ZNK2at10TensorBase8data_ptrIiEEPT_v(%"class.at::TensorBase"* nonnull align 8 dereferenceable(8) %118)
  store i32* %119, i32** %27, align 8
  %120 = load %"class.at::Tensor"*, %"class.at::Tensor"** %15, align 8
  %121 = bitcast %"class.at::Tensor"* %120 to %"class.at::TensorBase"*
  %122 = call i32* @_ZNK2at10TensorBase8data_ptrIiEEPT_v(%"class.at::TensorBase"* nonnull align 8 dereferenceable(8) %121)
  store i32* %122, i32** %28, align 8
  store i32 4, i32* %29, align 4
  %123 = load i32, i32* %16, align 4
  %124 = add nsw i32 %123, 4
  %125 = sub nsw i32 %124, 1
  %126 = sdiv i32 %125, 4
  %127 = mul nsw i32 %126, 4
  store i32 %127, i32* %30, align 4
  %128 = load i32, i32* %30, align 4
  %129 = sext i32 %128 to i64
  %130 = mul i64 %129, 2
  %131 = trunc i64 %130 to i32
  store i32 %131, i32* %31, align 4
  %132 = load i32, i32* %19, align 4
  %133 = mul nsw i32 2, %132
  %134 = sext i32 %133 to i64
  %135 = mul i64 %134, 4
  %136 = trunc i64 %135 to i32
  store i32 %136, i32* %32, align 4
  %137 = call nonnull align 4 dereferenceable(4) i32* @_ZSt3maxIiEUa9enable_ifILb1EERKT_S2_S2_(i32* nonnull align 4 dereferenceable(4) %31, i32* nonnull align 4 dereferenceable(4) %32)
  %138 = load i32, i32* %137, align 4
  store i32 %138, i32* %33, align 4
  %139 = load i32, i32* %18, align 4
  %140 = load i32, i32* %17, align 4
  call void @_ZN4dim3C2Ejjj(%struct.dim3* nonnull align 4 dereferenceable(12) %34, i32 %139, i32 %140, i32 1)
  call void @_ZN4dim3C2Ejjj(%struct.dim3* nonnull align 4 dereferenceable(12) %35, i32 128, i32 1, i32 1)
  %141 = call { i64, i64 } @_ZN3c104cuda20getCurrentCUDAStreamEa(i8 signext -1)
  %142 = getelementptr inbounds %"class.c10::cuda::CUDAStream", %"class.c10::cuda::CUDAStream"* %37, i32 0, i32 0
  %143 = bitcast %"class.c10::Stream"* %142 to { i64, i64 }*
  %144 = getelementptr inbounds { i64, i64 }, { i64, i64 }* %143, i32 0, i32 0
  %145 = extractvalue { i64, i64 } %141, 0
  store i64 %145, i64* %144, align 8
  %146 = getelementptr inbounds { i64, i64 }, { i64, i64 }* %143, i32 0, i32 1
  %147 = extractvalue { i64, i64 } %141, 1
  store i64 %147, i64* %146, align 8
  %148 = call %struct.CUstream_st* @_ZNK3c104cuda10CUDAStreamcvP11CUstream_stEv(%"class.c10::cuda::CUDAStream"* nonnull align 8 dereferenceable(16) %37)
  store %struct.CUstream_st* %148, %struct.CUstream_st** %36, align 8
  %149 = load i32, i32* %19, align 4
  switch i32 %149, label %422 [
    i32 32, label %150
    i32 64, label %184
    i32 80, label %218
    i32 96, label %252
    i32 128, label %286
    i32 160, label %320
    i32 192, label %354
    i32 256, label %388
  ]

150:                                              ; preds = %100
  %151 = bitcast %struct.dim3* %38 to i8*
  %152 = bitcast %struct.dim3* %34 to i8*
  call void @llvm.memcpy.p0i8.p0i8.i64(i8* align 4 %151, i8* align 4 %152, i64 12, i1 false)
  %153 = bitcast %struct.dim3* %39 to i8*
  %154 = bitcast %struct.dim3* %35 to i8*
  call void @llvm.memcpy.p0i8.p0i8.i64(i8* align 4 %153, i8* align 4 %154, i64 12, i1 false)
  %155 = load i32, i32* %33, align 4
  %156 = sext i32 %155 to i64
  %157 = load %struct.CUstream_st*, %struct.CUstream_st** %36, align 8
  %158 = bitcast %struct.CUstream_st* %157 to i8*
  %159 = bitcast { i64, i32 }* %40 to i8*
  %160 = bitcast %struct.dim3* %38 to i8*
  call void @llvm.memcpy.p0i8.p0i8.i64(i8* align 4 %159, i8* align 4 %160, i64 12, i1 false)
  %161 = getelementptr inbounds { i64, i32 }, { i64, i32 }* %40, i32 0, i32 0
  %162 = load i64, i64* %161, align 4
  %163 = getelementptr inbounds { i64, i32 }, { i64, i32 }* %40, i32 0, i32 1
  %164 = load i32, i32* %163, align 4
  %165 = bitcast { i64, i32 }* %41 to i8*
  %166 = bitcast %struct.dim3* %39 to i8*
  call void @llvm.memcpy.p0i8.p0i8.i64(i8* align 4 %165, i8* align 4 %166, i64 12, i1 false)
  %167 = getelementptr inbounds { i64, i32 }, { i64, i32 }* %41, i32 0, i32 0
  %168 = load i64, i64* %167, align 4
  %169 = getelementptr inbounds { i64, i32 }, { i64, i32 }* %41, i32 0, i32 1
  %170 = load i32, i32* %169, align 4
  %171 = call i32 @__cudaPushCallConfiguration(i64 %162, i32 %164, i64 %168, i32 %170, i64 %156, i8* %158)
  %172 = icmp ne i32 %171, 0
  br i1 %172, label %183, label %173

173:                                              ; preds = %150
  %174 = load i16*, i16** %23, align 8
  %175 = load i16*, i16** %24, align 8
  %176 = load i16*, i16** %25, align 8
  %177 = load i16*, i16** %26, align 8
  %178 = load float, float* %13, align 4
  %179 = load i32*, i32** %27, align 8
  %180 = load i32*, i32** %28, align 8
  %181 = load i32, i32* %20, align 4
  %182 = load i32, i32* %21, align 4
  call void @_ZN9cacheflow54__device_stub__single_query_cached_kv_attention_kernelItLi32ELi4ELi128EEEvPT_PKS1_S4_S4_fPKiS6_ii(i16* %174, i16* %175, i16* %176, i16* %177, float %178, i32* %179, i32* %180, i32 %181, i32 %182)
  br label %183

183:                                              ; preds = %173, %150
  br label %428

184:                                              ; preds = %100
  %185 = bitcast %struct.dim3* %42 to i8*
  %186 = bitcast %struct.dim3* %34 to i8*
  call void @llvm.memcpy.p0i8.p0i8.i64(i8* align 4 %185, i8* align 4 %186, i64 12, i1 false)
  %187 = bitcast %struct.dim3* %43 to i8*
  %188 = bitcast %struct.dim3* %35 to i8*
  call void @llvm.memcpy.p0i8.p0i8.i64(i8* align 4 %187, i8* align 4 %188, i64 12, i1 false)
  %189 = load i32, i32* %33, align 4
  %190 = sext i32 %189 to i64
  %191 = load %struct.CUstream_st*, %struct.CUstream_st** %36, align 8
  %192 = bitcast %struct.CUstream_st* %191 to i8*
  %193 = bitcast { i64, i32 }* %44 to i8*
  %194 = bitcast %struct.dim3* %42 to i8*
  call void @llvm.memcpy.p0i8.p0i8.i64(i8* align 4 %193, i8* align 4 %194, i64 12, i1 false)
  %195 = getelementptr inbounds { i64, i32 }, { i64, i32 }* %44, i32 0, i32 0
  %196 = load i64, i64* %195, align 4
  %197 = getelementptr inbounds { i64, i32 }, { i64, i32 }* %44, i32 0, i32 1
  %198 = load i32, i32* %197, align 4
  %199 = bitcast { i64, i32 }* %45 to i8*
  %200 = bitcast %struct.dim3* %43 to i8*
  call void @llvm.memcpy.p0i8.p0i8.i64(i8* align 4 %199, i8* align 4 %200, i64 12, i1 false)
  %201 = getelementptr inbounds { i64, i32 }, { i64, i32 }* %45, i32 0, i32 0
  %202 = load i64, i64* %201, align 4
  %203 = getelementptr inbounds { i64, i32 }, { i64, i32 }* %45, i32 0, i32 1
  %204 = load i32, i32* %203, align 4
  %205 = call i32 @__cudaPushCallConfiguration(i64 %196, i32 %198, i64 %202, i32 %204, i64 %190, i8* %192)
  %206 = icmp ne i32 %205, 0
  br i1 %206, label %217, label %207

207:                                              ; preds = %184
  %208 = load i16*, i16** %23, align 8
  %209 = load i16*, i16** %24, align 8
  %210 = load i16*, i16** %25, align 8
  %211 = load i16*, i16** %26, align 8
  %212 = load float, float* %13, align 4
  %213 = load i32*, i32** %27, align 8
  %214 = load i32*, i32** %28, align 8
  %215 = load i32, i32* %20, align 4
  %216 = load i32, i32* %21, align 4
  call void @_ZN9cacheflow54__device_stub__single_query_cached_kv_attention_kernelItLi64ELi4ELi128EEEvPT_PKS1_S4_S4_fPKiS6_ii(i16* %208, i16* %209, i16* %210, i16* %211, float %212, i32* %213, i32* %214, i32 %215, i32 %216)
  br label %217

217:                                              ; preds = %207, %184
  br label %428

218:                                              ; preds = %100
  %219 = bitcast %struct.dim3* %46 to i8*
  %220 = bitcast %struct.dim3* %34 to i8*
  call void @llvm.memcpy.p0i8.p0i8.i64(i8* align 4 %219, i8* align 4 %220, i64 12, i1 false)
  %221 = bitcast %struct.dim3* %47 to i8*
  %222 = bitcast %struct.dim3* %35 to i8*
  call void @llvm.memcpy.p0i8.p0i8.i64(i8* align 4 %221, i8* align 4 %222, i64 12, i1 false)
  %223 = load i32, i32* %33, align 4
  %224 = sext i32 %223 to i64
  %225 = load %struct.CUstream_st*, %struct.CUstream_st** %36, align 8
  %226 = bitcast %struct.CUstream_st* %225 to i8*
  %227 = bitcast { i64, i32 }* %48 to i8*
  %228 = bitcast %struct.dim3* %46 to i8*
  call void @llvm.memcpy.p0i8.p0i8.i64(i8* align 4 %227, i8* align 4 %228, i64 12, i1 false)
  %229 = getelementptr inbounds { i64, i32 }, { i64, i32 }* %48, i32 0, i32 0
  %230 = load i64, i64* %229, align 4
  %231 = getelementptr inbounds { i64, i32 }, { i64, i32 }* %48, i32 0, i32 1
  %232 = load i32, i32* %231, align 4
  %233 = bitcast { i64, i32 }* %49 to i8*
  %234 = bitcast %struct.dim3* %47 to i8*
  call void @llvm.memcpy.p0i8.p0i8.i64(i8* align 4 %233, i8* align 4 %234, i64 12, i1 false)
  %235 = getelementptr inbounds { i64, i32 }, { i64, i32 }* %49, i32 0, i32 0
  %236 = load i64, i64* %235, align 4
  %237 = getelementptr inbounds { i64, i32 }, { i64, i32 }* %49, i32 0, i32 1
  %238 = load i32, i32* %237, align 4
  %239 = call i32 @__cudaPushCallConfiguration(i64 %230, i32 %232, i64 %236, i32 %238, i64 %224, i8* %226)
  %240 = icmp ne i32 %239, 0
  br i1 %240, label %251, label %241

241:                                              ; preds = %218
  %242 = load i16*, i16** %23, align 8
  %243 = load i16*, i16** %24, align 8
  %244 = load i16*, i16** %25, align 8
  %245 = load i16*, i16** %26, align 8
  %246 = load float, float* %13, align 4
  %247 = load i32*, i32** %27, align 8
  %248 = load i32*, i32** %28, align 8
  %249 = load i32, i32* %20, align 4
  %250 = load i32, i32* %21, align 4
  call void @_ZN9cacheflow54__device_stub__single_query_cached_kv_attention_kernelItLi80ELi4ELi128EEEvPT_PKS1_S4_S4_fPKiS6_ii(i16* %242, i16* %243, i16* %244, i16* %245, float %246, i32* %247, i32* %248, i32 %249, i32 %250)
  br label %251

251:                                              ; preds = %241, %218
  br label %428

252:                                              ; preds = %100
  %253 = bitcast %struct.dim3* %50 to i8*
  %254 = bitcast %struct.dim3* %34 to i8*
  call void @llvm.memcpy.p0i8.p0i8.i64(i8* align 4 %253, i8* align 4 %254, i64 12, i1 false)
  %255 = bitcast %struct.dim3* %51 to i8*
  %256 = bitcast %struct.dim3* %35 to i8*
  call void @llvm.memcpy.p0i8.p0i8.i64(i8* align 4 %255, i8* align 4 %256, i64 12, i1 false)
  %257 = load i32, i32* %33, align 4
  %258 = sext i32 %257 to i64
  %259 = load %struct.CUstream_st*, %struct.CUstream_st** %36, align 8
  %260 = bitcast %struct.CUstream_st* %259 to i8*
  %261 = bitcast { i64, i32 }* %52 to i8*
  %262 = bitcast %struct.dim3* %50 to i8*
  call void @llvm.memcpy.p0i8.p0i8.i64(i8* align 4 %261, i8* align 4 %262, i64 12, i1 false)
  %263 = getelementptr inbounds { i64, i32 }, { i64, i32 }* %52, i32 0, i32 0
  %264 = load i64, i64* %263, align 4
  %265 = getelementptr inbounds { i64, i32 }, { i64, i32 }* %52, i32 0, i32 1
  %266 = load i32, i32* %265, align 4
  %267 = bitcast { i64, i32 }* %53 to i8*
  %268 = bitcast %struct.dim3* %51 to i8*
  call void @llvm.memcpy.p0i8.p0i8.i64(i8* align 4 %267, i8* align 4 %268, i64 12, i1 false)
  %269 = getelementptr inbounds { i64, i32 }, { i64, i32 }* %53, i32 0, i32 0
  %270 = load i64, i64* %269, align 4
  %271 = getelementptr inbounds { i64, i32 }, { i64, i32 }* %53, i32 0, i32 1
  %272 = load i32, i32* %271, align 4
  %273 = call i32 @__cudaPushCallConfiguration(i64 %264, i32 %266, i64 %270, i32 %272, i64 %258, i8* %260)
  %274 = icmp ne i32 %273, 0
  br i1 %274, label %285, label %275

275:                                              ; preds = %252
  %276 = load i16*, i16** %23, align 8
  %277 = load i16*, i16** %24, align 8
  %278 = load i16*, i16** %25, align 8
  %279 = load i16*, i16** %26, align 8
  %280 = load float, float* %13, align 4
  %281 = load i32*, i32** %27, align 8
  %282 = load i32*, i32** %28, align 8
  %283 = load i32, i32* %20, align 4
  %284 = load i32, i32* %21, align 4
  call void @_ZN9cacheflow54__device_stub__single_query_cached_kv_attention_kernelItLi96ELi4ELi128EEEvPT_PKS1_S4_S4_fPKiS6_ii(i16* %276, i16* %277, i16* %278, i16* %279, float %280, i32* %281, i32* %282, i32 %283, i32 %284)
  br label %285

285:                                              ; preds = %275, %252
  br label %428

286:                                              ; preds = %100
  %287 = bitcast %struct.dim3* %54 to i8*
  %288 = bitcast %struct.dim3* %34 to i8*
  call void @llvm.memcpy.p0i8.p0i8.i64(i8* align 4 %287, i8* align 4 %288, i64 12, i1 false)
  %289 = bitcast %struct.dim3* %55 to i8*
  %290 = bitcast %struct.dim3* %35 to i8*
  call void @llvm.memcpy.p0i8.p0i8.i64(i8* align 4 %289, i8* align 4 %290, i64 12, i1 false)
  %291 = load i32, i32* %33, align 4
  %292 = sext i32 %291 to i64
  %293 = load %struct.CUstream_st*, %struct.CUstream_st** %36, align 8
  %294 = bitcast %struct.CUstream_st* %293 to i8*
  %295 = bitcast { i64, i32 }* %56 to i8*
  %296 = bitcast %struct.dim3* %54 to i8*
  call void @llvm.memcpy.p0i8.p0i8.i64(i8* align 4 %295, i8* align 4 %296, i64 12, i1 false)
  %297 = getelementptr inbounds { i64, i32 }, { i64, i32 }* %56, i32 0, i32 0
  %298 = load i64, i64* %297, align 4
  %299 = getelementptr inbounds { i64, i32 }, { i64, i32 }* %56, i32 0, i32 1
  %300 = load i32, i32* %299, align 4
  %301 = bitcast { i64, i32 }* %57 to i8*
  %302 = bitcast %struct.dim3* %55 to i8*
  call void @llvm.memcpy.p0i8.p0i8.i64(i8* align 4 %301, i8* align 4 %302, i64 12, i1 false)
  %303 = getelementptr inbounds { i64, i32 }, { i64, i32 }* %57, i32 0, i32 0
  %304 = load i64, i64* %303, align 4
  %305 = getelementptr inbounds { i64, i32 }, { i64, i32 }* %57, i32 0, i32 1
  %306 = load i32, i32* %305, align 4
  %307 = call i32 @__cudaPushCallConfiguration(i64 %298, i32 %300, i64 %304, i32 %306, i64 %292, i8* %294)
  %308 = icmp ne i32 %307, 0
  br i1 %308, label %319, label %309

309:                                              ; preds = %286
  %310 = load i16*, i16** %23, align 8
  %311 = load i16*, i16** %24, align 8
  %312 = load i16*, i16** %25, align 8
  %313 = load i16*, i16** %26, align 8
  %314 = load float, float* %13, align 4
  %315 = load i32*, i32** %27, align 8
  %316 = load i32*, i32** %28, align 8
  %317 = load i32, i32* %20, align 4
  %318 = load i32, i32* %21, align 4
  call void @_ZN9cacheflow54__device_stub__single_query_cached_kv_attention_kernelItLi128ELi4ELi128EEEvPT_PKS1_S4_S4_fPKiS6_ii(i16* %310, i16* %311, i16* %312, i16* %313, float %314, i32* %315, i32* %316, i32 %317, i32 %318)
  br label %319

319:                                              ; preds = %309, %286
  br label %428

320:                                              ; preds = %100
  %321 = bitcast %struct.dim3* %58 to i8*
  %322 = bitcast %struct.dim3* %34 to i8*
  call void @llvm.memcpy.p0i8.p0i8.i64(i8* align 4 %321, i8* align 4 %322, i64 12, i1 false)
  %323 = bitcast %struct.dim3* %59 to i8*
  %324 = bitcast %struct.dim3* %35 to i8*
  call void @llvm.memcpy.p0i8.p0i8.i64(i8* align 4 %323, i8* align 4 %324, i64 12, i1 false)
  %325 = load i32, i32* %33, align 4
  %326 = sext i32 %325 to i64
  %327 = load %struct.CUstream_st*, %struct.CUstream_st** %36, align 8
  %328 = bitcast %struct.CUstream_st* %327 to i8*
  %329 = bitcast { i64, i32 }* %60 to i8*
  %330 = bitcast %struct.dim3* %58 to i8*
  call void @llvm.memcpy.p0i8.p0i8.i64(i8* align 4 %329, i8* align 4 %330, i64 12, i1 false)
  %331 = getelementptr inbounds { i64, i32 }, { i64, i32 }* %60, i32 0, i32 0
  %332 = load i64, i64* %331, align 4
  %333 = getelementptr inbounds { i64, i32 }, { i64, i32 }* %60, i32 0, i32 1
  %334 = load i32, i32* %333, align 4
  %335 = bitcast { i64, i32 }* %61 to i8*
  %336 = bitcast %struct.dim3* %59 to i8*
  call void @llvm.memcpy.p0i8.p0i8.i64(i8* align 4 %335, i8* align 4 %336, i64 12, i1 false)
  %337 = getelementptr inbounds { i64, i32 }, { i64, i32 }* %61, i32 0, i32 0
  %338 = load i64, i64* %337, align 4
  %339 = getelementptr inbounds { i64, i32 }, { i64, i32 }* %61, i32 0, i32 1
  %340 = load i32, i32* %339, align 4
  %341 = call i32 @__cudaPushCallConfiguration(i64 %332, i32 %334, i64 %338, i32 %340, i64 %326, i8* %328)
  %342 = icmp ne i32 %341, 0
  br i1 %342, label %353, label %343

343:                                              ; preds = %320
  %344 = load i16*, i16** %23, align 8
  %345 = load i16*, i16** %24, align 8
  %346 = load i16*, i16** %25, align 8
  %347 = load i16*, i16** %26, align 8
  %348 = load float, float* %13, align 4
  %349 = load i32*, i32** %27, align 8
  %350 = load i32*, i32** %28, align 8
  %351 = load i32, i32* %20, align 4
  %352 = load i32, i32* %21, align 4
  call void @_ZN9cacheflow54__device_stub__single_query_cached_kv_attention_kernelItLi160ELi4ELi128EEEvPT_PKS1_S4_S4_fPKiS6_ii(i16* %344, i16* %345, i16* %346, i16* %347, float %348, i32* %349, i32* %350, i32 %351, i32 %352)
  br label %353

353:                                              ; preds = %343, %320
  br label %428

354:                                              ; preds = %100
  %355 = bitcast %struct.dim3* %62 to i8*
  %356 = bitcast %struct.dim3* %34 to i8*
  call void @llvm.memcpy.p0i8.p0i8.i64(i8* align 4 %355, i8* align 4 %356, i64 12, i1 false)
  %357 = bitcast %struct.dim3* %63 to i8*
  %358 = bitcast %struct.dim3* %35 to i8*
  call void @llvm.memcpy.p0i8.p0i8.i64(i8* align 4 %357, i8* align 4 %358, i64 12, i1 false)
  %359 = load i32, i32* %33, align 4
  %360 = sext i32 %359 to i64
  %361 = load %struct.CUstream_st*, %struct.CUstream_st** %36, align 8
  %362 = bitcast %struct.CUstream_st* %361 to i8*
  %363 = bitcast { i64, i32 }* %64 to i8*
  %364 = bitcast %struct.dim3* %62 to i8*
  call void @llvm.memcpy.p0i8.p0i8.i64(i8* align 4 %363, i8* align 4 %364, i64 12, i1 false)
  %365 = getelementptr inbounds { i64, i32 }, { i64, i32 }* %64, i32 0, i32 0
  %366 = load i64, i64* %365, align 4
  %367 = getelementptr inbounds { i64, i32 }, { i64, i32 }* %64, i32 0, i32 1
  %368 = load i32, i32* %367, align 4
  %369 = bitcast { i64, i32 }* %65 to i8*
  %370 = bitcast %struct.dim3* %63 to i8*
  call void @llvm.memcpy.p0i8.p0i8.i64(i8* align 4 %369, i8* align 4 %370, i64 12, i1 false)
  %371 = getelementptr inbounds { i64, i32 }, { i64, i32 }* %65, i32 0, i32 0
  %372 = load i64, i64* %371, align 4
  %373 = getelementptr inbounds { i64, i32 }, { i64, i32 }* %65, i32 0, i32 1
  %374 = load i32, i32* %373, align 4
  %375 = call i32 @__cudaPushCallConfiguration(i64 %366, i32 %368, i64 %372, i32 %374, i64 %360, i8* %362)
  %376 = icmp ne i32 %375, 0
  br i1 %376, label %387, label %377

377:                                              ; preds = %354
  %378 = load i16*, i16** %23, align 8
  %379 = load i16*, i16** %24, align 8
  %380 = load i16*, i16** %25, align 8
  %381 = load i16*, i16** %26, align 8
  %382 = load float, float* %13, align 4
  %383 = load i32*, i32** %27, align 8
  %384 = load i32*, i32** %28, align 8
  %385 = load i32, i32* %20, align 4
  %386 = load i32, i32* %21, align 4
  call void @_ZN9cacheflow54__device_stub__single_query_cached_kv_attention_kernelItLi192ELi4ELi128EEEvPT_PKS1_S4_S4_fPKiS6_ii(i16* %378, i16* %379, i16* %380, i16* %381, float %382, i32* %383, i32* %384, i32 %385, i32 %386)
  br label %387

387:                                              ; preds = %377, %354
  br label %428

388:                                              ; preds = %100
  %389 = bitcast %struct.dim3* %66 to i8*
  %390 = bitcast %struct.dim3* %34 to i8*
  call void @llvm.memcpy.p0i8.p0i8.i64(i8* align 4 %389, i8* align 4 %390, i64 12, i1 false)
  %391 = bitcast %struct.dim3* %67 to i8*
  %392 = bitcast %struct.dim3* %35 to i8*
  call void @llvm.memcpy.p0i8.p0i8.i64(i8* align 4 %391, i8* align 4 %392, i64 12, i1 false)
  %393 = load i32, i32* %33, align 4
  %394 = sext i32 %393 to i64
  %395 = load %struct.CUstream_st*, %struct.CUstream_st** %36, align 8
  %396 = bitcast %struct.CUstream_st* %395 to i8*
  %397 = bitcast { i64, i32 }* %68 to i8*
  %398 = bitcast %struct.dim3* %66 to i8*
  call void @llvm.memcpy.p0i8.p0i8.i64(i8* align 4 %397, i8* align 4 %398, i64 12, i1 false)
  %399 = getelementptr inbounds { i64, i32 }, { i64, i32 }* %68, i32 0, i32 0
  %400 = load i64, i64* %399, align 4
  %401 = getelementptr inbounds { i64, i32 }, { i64, i32 }* %68, i32 0, i32 1
  %402 = load i32, i32* %401, align 4
  %403 = bitcast { i64, i32 }* %69 to i8*
  %404 = bitcast %struct.dim3* %67 to i8*
  call void @llvm.memcpy.p0i8.p0i8.i64(i8* align 4 %403, i8* align 4 %404, i64 12, i1 false)
  %405 = getelementptr inbounds { i64, i32 }, { i64, i32 }* %69, i32 0, i32 0
  %406 = load i64, i64* %405, align 4
  %407 = getelementptr inbounds { i64, i32 }, { i64, i32 }* %69, i32 0, i32 1
  %408 = load i32, i32* %407, align 4
  %409 = call i32 @__cudaPushCallConfiguration(i64 %400, i32 %402, i64 %406, i32 %408, i64 %394, i8* %396)
  %410 = icmp ne i32 %409, 0
  br i1 %410, label %421, label %411

411:                                              ; preds = %388
  %412 = load i16*, i16** %23, align 8
  %413 = load i16*, i16** %24, align 8
  %414 = load i16*, i16** %25, align 8
  %415 = load i16*, i16** %26, align 8
  %416 = load float, float* %13, align 4
  %417 = load i32*, i32** %27, align 8
  %418 = load i32*, i32** %28, align 8
  %419 = load i32, i32* %20, align 4
  %420 = load i32, i32* %21, align 4
  call void @_ZN9cacheflow54__device_stub__single_query_cached_kv_attention_kernelItLi256ELi4ELi128EEEvPT_PKS1_S4_S4_fPKiS6_ii(i16* %412, i16* %413, i16* %414, i16* %415, float %416, i32* %417, i32* %418, i32 %419, i32 %420)
  br label %421

421:                                              ; preds = %411, %388
  br label %428

422:                                              ; preds = %100
  call void @_ZN3c106detail17torchCheckMsgImplIJA24_ciEEEDcPKcDpRKT_(%"class.std::__cxx11::basic_string"* sret(%"class.std::__cxx11::basic_string") align 8 %70, i8* getelementptr inbounds ([140 x i8], [140 x i8]* @.str.1, i64 0, i64 0), [24 x i8]* nonnull align 1 dereferenceable(24) @.str.154, i32* nonnull align 4 dereferenceable(4) %19)
  invoke void @_ZN3c106detail14torchCheckFailEPKcS2_jRKNSt7__cxx1112basic_stringIcSt11char_traitsIcESaIcEEE(i8* getelementptr inbounds ([42 x i8], [42 x i8]* @__func__._Z41single_query_cached_kv_attention_launcherItLi1ELi128EEvRN2at6TensorES2_S2_S2_fS2_S2_i, i64 0, i64 0), i8* getelementptr inbounds ([65 x i8], [65 x i8]* @.str, i64 0, i64 0), i32 381, %"class.std::__cxx11::basic_string"* nonnull align 8 dereferenceable(32) %70) #18
          to label %423 unwind label %424

423:                                              ; preds = %422
  unreachable

424:                                              ; preds = %422
  %425 = landingpad { i8*, i32 }
          cleanup
  %426 = extractvalue { i8*, i32 } %425, 0
  store i8* %426, i8** %71, align 8
  %427 = extractvalue { i8*, i32 } %425, 1
  store i32 %427, i32* %72, align 4
  call void @_ZNSt7__cxx1112basic_stringIcSt11char_traitsIcESaIcEED1Ev(%"class.std::__cxx11::basic_string"* nonnull align 8 dereferenceable(32) %70) #3
  br label %429

428:                                              ; preds = %421, %387, %353, %319, %285, %251, %217, %183
  ret void

429:                                              ; preds = %424
  %430 = load i8*, i8** %71, align 8
  %431 = load i32, i32* %72, align 4
  %432 = insertvalue { i8*, i32 } undef, i8* %430, 0
  %433 = insertvalue { i8*, i32 } %432, i32 %431, 1
  resume { i8*, i32 } %433
}

; Function Attrs: mustprogress noinline optnone uwtable
define linkonce_odr dso_local void @_Z41single_query_cached_kv_attention_launcherItLi8ELi128EEvRN2at6TensorES2_S2_S2_fS2_S2_i(%"class.at::Tensor"* nonnull align 8 dereferenceable(8) %0, %"class.at::Tensor"* nonnull align 8 dereferenceable(8) %1, %"class.at::Tensor"* nonnull align 8 dereferenceable(8) %2, %"class.at::Tensor"* nonnull align 8 dereferenceable(8) %3, float %4, %"class.at::Tensor"* nonnull align 8 dereferenceable(8) %5, %"class.at::Tensor"* nonnull align 8 dereferenceable(8) %6, i32 %7) #4 comdat personality i8* bitcast (i32 (...)* @__gxx_personality_v0 to i8*) {
  %9 = alloca %"class.at::Tensor"*, align 8
  %10 = alloca %"class.at::Tensor"*, align 8
  %11 = alloca %"class.at::Tensor"*, align 8
  %12 = alloca %"class.at::Tensor"*, align 8
  %13 = alloca float, align 4
  %14 = alloca %"class.at::Tensor"*, align 8
  %15 = alloca %"class.at::Tensor"*, align 8
  %16 = alloca i32, align 4
  %17 = alloca i32, align 4
  %18 = alloca i32, align 4
  %19 = alloca i32, align 4
  %20 = alloca i32, align 4
  %21 = alloca i32, align 4
  %22 = alloca i32, align 4
  %23 = alloca i16*, align 8
  %24 = alloca i16*, align 8
  %25 = alloca i16*, align 8
  %26 = alloca i16*, align 8
  %27 = alloca i32*, align 8
  %28 = alloca i32*, align 8
  %29 = alloca i32, align 4
  %30 = alloca i32, align 4
  %31 = alloca i32, align 4
  %32 = alloca i32, align 4
  %33 = alloca i32, align 4
  %34 = alloca %struct.dim3, align 4
  %35 = alloca %struct.dim3, align 4
  %36 = alloca %struct.CUstream_st*, align 8
  %37 = alloca %"class.c10::cuda::CUDAStream", align 8
  %38 = alloca %struct.dim3, align 4
  %39 = alloca %struct.dim3, align 4
  %40 = alloca { i64, i32 }, align 4
  %41 = alloca { i64, i32 }, align 4
  %42 = alloca %struct.dim3, align 4
  %43 = alloca %struct.dim3, align 4
  %44 = alloca { i64, i32 }, align 4
  %45 = alloca { i64, i32 }, align 4
  %46 = alloca %struct.dim3, align 4
  %47 = alloca %struct.dim3, align 4
  %48 = alloca { i64, i32 }, align 4
  %49 = alloca { i64, i32 }, align 4
  %50 = alloca %struct.dim3, align 4
  %51 = alloca %struct.dim3, align 4
  %52 = alloca { i64, i32 }, align 4
  %53 = alloca { i64, i32 }, align 4
  %54 = alloca %struct.dim3, align 4
  %55 = alloca %struct.dim3, align 4
  %56 = alloca { i64, i32 }, align 4
  %57 = alloca { i64, i32 }, align 4
  %58 = alloca %struct.dim3, align 4
  %59 = alloca %struct.dim3, align 4
  %60 = alloca { i64, i32 }, align 4
  %61 = alloca { i64, i32 }, align 4
  %62 = alloca %struct.dim3, align 4
  %63 = alloca %struct.dim3, align 4
  %64 = alloca { i64, i32 }, align 4
  %65 = alloca { i64, i32 }, align 4
  %66 = alloca %struct.dim3, align 4
  %67 = alloca %struct.dim3, align 4
  %68 = alloca { i64, i32 }, align 4
  %69 = alloca { i64, i32 }, align 4
  %70 = alloca %"class.std::__cxx11::basic_string", align 8
  %71 = alloca i8*, align 8
  %72 = alloca i32, align 4
  store %"class.at::Tensor"* %0, %"class.at::Tensor"** %9, align 8
  store %"class.at::Tensor"* %1, %"class.at::Tensor"** %10, align 8
  store %"class.at::Tensor"* %2, %"class.at::Tensor"** %11, align 8
  store %"class.at::Tensor"* %3, %"class.at::Tensor"** %12, align 8
  store float %4, float* %13, align 4
  store %"class.at::Tensor"* %5, %"class.at::Tensor"** %14, align 8
  store %"class.at::Tensor"* %6, %"class.at::Tensor"** %15, align 8
  store i32 %7, i32* %16, align 4
  %73 = load %"class.at::Tensor"*, %"class.at::Tensor"** %10, align 8
  %74 = bitcast %"class.at::Tensor"* %73 to %"class.at::TensorBase"*
  %75 = call i64 @_ZNK2at10TensorBase4sizeEl(%"class.at::TensorBase"* nonnull align 8 dereferenceable(8) %74, i64 0)
  %76 = trunc i64 %75 to i32
  store i32 %76, i32* %17, align 4
  %77 = load %"class.at::Tensor"*, %"class.at::Tensor"** %10, align 8
  %78 = bitcast %"class.at::Tensor"* %77 to %"class.at::TensorBase"*
  %79 = call i64 @_ZNK2at10TensorBase4sizeEl(%"class.at::TensorBase"* nonnull align 8 dereferenceable(8) %78, i64 1)
  %80 = trunc i64 %79 to i32
  store i32 %80, i32* %18, align 4
  %81 = load %"class.at::Tensor"*, %"class.at::Tensor"** %10, align 8
  %82 = bitcast %"class.at::Tensor"* %81 to %"class.at::TensorBase"*
  %83 = call i64 @_ZNK2at10TensorBase4sizeEl(%"class.at::TensorBase"* nonnull align 8 dereferenceable(8) %82, i64 2)
  %84 = trunc i64 %83 to i32
  store i32 %84, i32* %19, align 4
  %85 = load %"class.at::Tensor"*, %"class.at::Tensor"** %14, align 8
  %86 = bitcast %"class.at::Tensor"* %85 to %"class.at::TensorBase"*
  %87 = call i64 @_ZNK2at10TensorBase4sizeEl(%"class.at::TensorBase"* nonnull align 8 dereferenceable(8) %86, i64 1)
  %88 = trunc i64 %87 to i32
  store i32 %88, i32* %20, align 4
  %89 = load %"class.at::Tensor"*, %"class.at::Tensor"** %10, align 8
  %90 = bitcast %"class.at::Tensor"* %89 to %"class.at::TensorBase"*
  %91 = call i64 @_ZNK2at10TensorBase6strideEl(%"class.at::TensorBase"* nonnull align 8 dereferenceable(8) %90, i64 0)
  %92 = trunc i64 %91 to i32
  store i32 %92, i32* %21, align 4
  store i32 4, i32* %22, align 4
  %93 = load i32, i32* %19, align 4
  %94 = load i32, i32* %22, align 4
  %95 = srem i32 %93, %94
  %96 = icmp eq i32 %95, 0
  br i1 %96, label %97, label %98

97:                                               ; preds = %8
  br label %100

98:                                               ; preds = %8
  call void @__assert_fail(i8* getelementptr inbounds ([35 x i8], [35 x i8]* @.str.153, i64 0, i64 0), i8* getelementptr inbounds ([65 x i8], [65 x i8]* @.str, i64 0, i64 0), i32 337, i8* getelementptr inbounds ([217 x i8], [217 x i8]* @__PRETTY_FUNCTION__._Z41single_query_cached_kv_attention_launcherItLi8ELi128EEvRN2at6TensorES2_S2_S2_fS2_S2_i, i64 0, i64 0)) #19
  unreachable

99:                                               ; No predecessors!
  br label %100

100:                                              ; preds = %99, %97
  %101 = load %"class.at::Tensor"*, %"class.at::Tensor"** %9, align 8
  %102 = bitcast %"class.at::Tensor"* %101 to %"class.at::TensorBase"*
  %103 = call i8* @_ZNK2at10TensorBase8data_ptrEv(%"class.at::TensorBase"* nonnull align 8 dereferenceable(8) %102)
  %104 = bitcast i8* %103 to i16*
  store i16* %104, i16** %23, align 8
  %105 = load %"class.at::Tensor"*, %"class.at::Tensor"** %10, align 8
  %106 = bitcast %"class.at::Tensor"* %105 to %"class.at::TensorBase"*
  %107 = call i8* @_ZNK2at10TensorBase8data_ptrEv(%"class.at::TensorBase"* nonnull align 8 dereferenceable(8) %106)
  %108 = bitcast i8* %107 to i16*
  store i16* %108, i16** %24, align 8
  %109 = load %"class.at::Tensor"*, %"class.at::Tensor"** %11, align 8
  %110 = bitcast %"class.at::Tensor"* %109 to %"class.at::TensorBase"*
  %111 = call i8* @_ZNK2at10TensorBase8data_ptrEv(%"class.at::TensorBase"* nonnull align 8 dereferenceable(8) %110)
  %112 = bitcast i8* %111 to i16*
  store i16* %112, i16** %25, align 8
  %113 = load %"class.at::Tensor"*, %"class.at::Tensor"** %12, align 8
  %114 = bitcast %"class.at::Tensor"* %113 to %"class.at::TensorBase"*
  %115 = call i8* @_ZNK2at10TensorBase8data_ptrEv(%"class.at::TensorBase"* nonnull align 8 dereferenceable(8) %114)
  %116 = bitcast i8* %115 to i16*
  store i16* %116, i16** %26, align 8
  %117 = load %"class.at::Tensor"*, %"class.at::Tensor"** %14, align 8
  %118 = bitcast %"class.at::Tensor"* %117 to %"class.at::TensorBase"*
  %119 = call i32* @_ZNK2at10TensorBase8data_ptrIiEEPT_v(%"class.at::TensorBase"* nonnull align 8 dereferenceable(8) %118)
  store i32* %119, i32** %27, align 8
  %120 = load %"class.at::Tensor"*, %"class.at::Tensor"** %15, align 8
  %121 = bitcast %"class.at::Tensor"* %120 to %"class.at::TensorBase"*
  %122 = call i32* @_ZNK2at10TensorBase8data_ptrIiEEPT_v(%"class.at::TensorBase"* nonnull align 8 dereferenceable(8) %121)
  store i32* %122, i32** %28, align 8
  store i32 4, i32* %29, align 4
  %123 = load i32, i32* %16, align 4
  %124 = add nsw i32 %123, 8
  %125 = sub nsw i32 %124, 1
  %126 = sdiv i32 %125, 8
  %127 = mul nsw i32 %126, 8
  store i32 %127, i32* %30, align 4
  %128 = load i32, i32* %30, align 4
  %129 = sext i32 %128 to i64
  %130 = mul i64 %129, 2
  %131 = trunc i64 %130 to i32
  store i32 %131, i32* %31, align 4
  %132 = load i32, i32* %19, align 4
  %133 = mul nsw i32 2, %132
  %134 = sext i32 %133 to i64
  %135 = mul i64 %134, 4
  %136 = trunc i64 %135 to i32
  store i32 %136, i32* %32, align 4
  %137 = call nonnull align 4 dereferenceable(4) i32* @_ZSt3maxIiEUa9enable_ifILb1EERKT_S2_S2_(i32* nonnull align 4 dereferenceable(4) %31, i32* nonnull align 4 dereferenceable(4) %32)
  %138 = load i32, i32* %137, align 4
  store i32 %138, i32* %33, align 4
  %139 = load i32, i32* %18, align 4
  %140 = load i32, i32* %17, align 4
  call void @_ZN4dim3C2Ejjj(%struct.dim3* nonnull align 4 dereferenceable(12) %34, i32 %139, i32 %140, i32 1)
  call void @_ZN4dim3C2Ejjj(%struct.dim3* nonnull align 4 dereferenceable(12) %35, i32 128, i32 1, i32 1)
  %141 = call { i64, i64 } @_ZN3c104cuda20getCurrentCUDAStreamEa(i8 signext -1)
  %142 = getelementptr inbounds %"class.c10::cuda::CUDAStream", %"class.c10::cuda::CUDAStream"* %37, i32 0, i32 0
  %143 = bitcast %"class.c10::Stream"* %142 to { i64, i64 }*
  %144 = getelementptr inbounds { i64, i64 }, { i64, i64 }* %143, i32 0, i32 0
  %145 = extractvalue { i64, i64 } %141, 0
  store i64 %145, i64* %144, align 8
  %146 = getelementptr inbounds { i64, i64 }, { i64, i64 }* %143, i32 0, i32 1
  %147 = extractvalue { i64, i64 } %141, 1
  store i64 %147, i64* %146, align 8
  %148 = call %struct.CUstream_st* @_ZNK3c104cuda10CUDAStreamcvP11CUstream_stEv(%"class.c10::cuda::CUDAStream"* nonnull align 8 dereferenceable(16) %37)
  store %struct.CUstream_st* %148, %struct.CUstream_st** %36, align 8
  %149 = load i32, i32* %19, align 4
  switch i32 %149, label %422 [
    i32 32, label %150
    i32 64, label %184
    i32 80, label %218
    i32 96, label %252
    i32 128, label %286
    i32 160, label %320
    i32 192, label %354
    i32 256, label %388
  ]

150:                                              ; preds = %100
  %151 = bitcast %struct.dim3* %38 to i8*
  %152 = bitcast %struct.dim3* %34 to i8*
  call void @llvm.memcpy.p0i8.p0i8.i64(i8* align 4 %151, i8* align 4 %152, i64 12, i1 false)
  %153 = bitcast %struct.dim3* %39 to i8*
  %154 = bitcast %struct.dim3* %35 to i8*
  call void @llvm.memcpy.p0i8.p0i8.i64(i8* align 4 %153, i8* align 4 %154, i64 12, i1 false)
  %155 = load i32, i32* %33, align 4
  %156 = sext i32 %155 to i64
  %157 = load %struct.CUstream_st*, %struct.CUstream_st** %36, align 8
  %158 = bitcast %struct.CUstream_st* %157 to i8*
  %159 = bitcast { i64, i32 }* %40 to i8*
  %160 = bitcast %struct.dim3* %38 to i8*
  call void @llvm.memcpy.p0i8.p0i8.i64(i8* align 4 %159, i8* align 4 %160, i64 12, i1 false)
  %161 = getelementptr inbounds { i64, i32 }, { i64, i32 }* %40, i32 0, i32 0
  %162 = load i64, i64* %161, align 4
  %163 = getelementptr inbounds { i64, i32 }, { i64, i32 }* %40, i32 0, i32 1
  %164 = load i32, i32* %163, align 4
  %165 = bitcast { i64, i32 }* %41 to i8*
  %166 = bitcast %struct.dim3* %39 to i8*
  call void @llvm.memcpy.p0i8.p0i8.i64(i8* align 4 %165, i8* align 4 %166, i64 12, i1 false)
  %167 = getelementptr inbounds { i64, i32 }, { i64, i32 }* %41, i32 0, i32 0
  %168 = load i64, i64* %167, align 4
  %169 = getelementptr inbounds { i64, i32 }, { i64, i32 }* %41, i32 0, i32 1
  %170 = load i32, i32* %169, align 4
  %171 = call i32 @__cudaPushCallConfiguration(i64 %162, i32 %164, i64 %168, i32 %170, i64 %156, i8* %158)
  %172 = icmp ne i32 %171, 0
  br i1 %172, label %183, label %173

173:                                              ; preds = %150
  %174 = load i16*, i16** %23, align 8
  %175 = load i16*, i16** %24, align 8
  %176 = load i16*, i16** %25, align 8
  %177 = load i16*, i16** %26, align 8
  %178 = load float, float* %13, align 4
  %179 = load i32*, i32** %27, align 8
  %180 = load i32*, i32** %28, align 8
  %181 = load i32, i32* %20, align 4
  %182 = load i32, i32* %21, align 4
  call void @_ZN9cacheflow54__device_stub__single_query_cached_kv_attention_kernelItLi32ELi8ELi128EEEvPT_PKS1_S4_S4_fPKiS6_ii(i16* %174, i16* %175, i16* %176, i16* %177, float %178, i32* %179, i32* %180, i32 %181, i32 %182)
  br label %183

183:                                              ; preds = %173, %150
  br label %428

184:                                              ; preds = %100
  %185 = bitcast %struct.dim3* %42 to i8*
  %186 = bitcast %struct.dim3* %34 to i8*
  call void @llvm.memcpy.p0i8.p0i8.i64(i8* align 4 %185, i8* align 4 %186, i64 12, i1 false)
  %187 = bitcast %struct.dim3* %43 to i8*
  %188 = bitcast %struct.dim3* %35 to i8*
  call void @llvm.memcpy.p0i8.p0i8.i64(i8* align 4 %187, i8* align 4 %188, i64 12, i1 false)
  %189 = load i32, i32* %33, align 4
  %190 = sext i32 %189 to i64
  %191 = load %struct.CUstream_st*, %struct.CUstream_st** %36, align 8
  %192 = bitcast %struct.CUstream_st* %191 to i8*
  %193 = bitcast { i64, i32 }* %44 to i8*
  %194 = bitcast %struct.dim3* %42 to i8*
  call void @llvm.memcpy.p0i8.p0i8.i64(i8* align 4 %193, i8* align 4 %194, i64 12, i1 false)
  %195 = getelementptr inbounds { i64, i32 }, { i64, i32 }* %44, i32 0, i32 0
  %196 = load i64, i64* %195, align 4
  %197 = getelementptr inbounds { i64, i32 }, { i64, i32 }* %44, i32 0, i32 1
  %198 = load i32, i32* %197, align 4
  %199 = bitcast { i64, i32 }* %45 to i8*
  %200 = bitcast %struct.dim3* %43 to i8*
  call void @llvm.memcpy.p0i8.p0i8.i64(i8* align 4 %199, i8* align 4 %200, i64 12, i1 false)
  %201 = getelementptr inbounds { i64, i32 }, { i64, i32 }* %45, i32 0, i32 0
  %202 = load i64, i64* %201, align 4
  %203 = getelementptr inbounds { i64, i32 }, { i64, i32 }* %45, i32 0, i32 1
  %204 = load i32, i32* %203, align 4
  %205 = call i32 @__cudaPushCallConfiguration(i64 %196, i32 %198, i64 %202, i32 %204, i64 %190, i8* %192)
  %206 = icmp ne i32 %205, 0
  br i1 %206, label %217, label %207

207:                                              ; preds = %184
  %208 = load i16*, i16** %23, align 8
  %209 = load i16*, i16** %24, align 8
  %210 = load i16*, i16** %25, align 8
  %211 = load i16*, i16** %26, align 8
  %212 = load float, float* %13, align 4
  %213 = load i32*, i32** %27, align 8
  %214 = load i32*, i32** %28, align 8
  %215 = load i32, i32* %20, align 4
  %216 = load i32, i32* %21, align 4
  call void @_ZN9cacheflow54__device_stub__single_query_cached_kv_attention_kernelItLi64ELi8ELi128EEEvPT_PKS1_S4_S4_fPKiS6_ii(i16* %208, i16* %209, i16* %210, i16* %211, float %212, i32* %213, i32* %214, i32 %215, i32 %216)
  br label %217

217:                                              ; preds = %207, %184
  br label %428

218:                                              ; preds = %100
  %219 = bitcast %struct.dim3* %46 to i8*
  %220 = bitcast %struct.dim3* %34 to i8*
  call void @llvm.memcpy.p0i8.p0i8.i64(i8* align 4 %219, i8* align 4 %220, i64 12, i1 false)
  %221 = bitcast %struct.dim3* %47 to i8*
  %222 = bitcast %struct.dim3* %35 to i8*
  call void @llvm.memcpy.p0i8.p0i8.i64(i8* align 4 %221, i8* align 4 %222, i64 12, i1 false)
  %223 = load i32, i32* %33, align 4
  %224 = sext i32 %223 to i64
  %225 = load %struct.CUstream_st*, %struct.CUstream_st** %36, align 8
  %226 = bitcast %struct.CUstream_st* %225 to i8*
  %227 = bitcast { i64, i32 }* %48 to i8*
  %228 = bitcast %struct.dim3* %46 to i8*
  call void @llvm.memcpy.p0i8.p0i8.i64(i8* align 4 %227, i8* align 4 %228, i64 12, i1 false)
  %229 = getelementptr inbounds { i64, i32 }, { i64, i32 }* %48, i32 0, i32 0
  %230 = load i64, i64* %229, align 4
  %231 = getelementptr inbounds { i64, i32 }, { i64, i32 }* %48, i32 0, i32 1
  %232 = load i32, i32* %231, align 4
  %233 = bitcast { i64, i32 }* %49 to i8*
  %234 = bitcast %struct.dim3* %47 to i8*
  call void @llvm.memcpy.p0i8.p0i8.i64(i8* align 4 %233, i8* align 4 %234, i64 12, i1 false)
  %235 = getelementptr inbounds { i64, i32 }, { i64, i32 }* %49, i32 0, i32 0
  %236 = load i64, i64* %235, align 4
  %237 = getelementptr inbounds { i64, i32 }, { i64, i32 }* %49, i32 0, i32 1
  %238 = load i32, i32* %237, align 4
  %239 = call i32 @__cudaPushCallConfiguration(i64 %230, i32 %232, i64 %236, i32 %238, i64 %224, i8* %226)
  %240 = icmp ne i32 %239, 0
  br i1 %240, label %251, label %241

241:                                              ; preds = %218
  %242 = load i16*, i16** %23, align 8
  %243 = load i16*, i16** %24, align 8
  %244 = load i16*, i16** %25, align 8
  %245 = load i16*, i16** %26, align 8
  %246 = load float, float* %13, align 4
  %247 = load i32*, i32** %27, align 8
  %248 = load i32*, i32** %28, align 8
  %249 = load i32, i32* %20, align 4
  %250 = load i32, i32* %21, align 4
  call void @_ZN9cacheflow54__device_stub__single_query_cached_kv_attention_kernelItLi80ELi8ELi128EEEvPT_PKS1_S4_S4_fPKiS6_ii(i16* %242, i16* %243, i16* %244, i16* %245, float %246, i32* %247, i32* %248, i32 %249, i32 %250)
  br label %251

251:                                              ; preds = %241, %218
  br label %428

252:                                              ; preds = %100
  %253 = bitcast %struct.dim3* %50 to i8*
  %254 = bitcast %struct.dim3* %34 to i8*
  call void @llvm.memcpy.p0i8.p0i8.i64(i8* align 4 %253, i8* align 4 %254, i64 12, i1 false)
  %255 = bitcast %struct.dim3* %51 to i8*
  %256 = bitcast %struct.dim3* %35 to i8*
  call void @llvm.memcpy.p0i8.p0i8.i64(i8* align 4 %255, i8* align 4 %256, i64 12, i1 false)
  %257 = load i32, i32* %33, align 4
  %258 = sext i32 %257 to i64
  %259 = load %struct.CUstream_st*, %struct.CUstream_st** %36, align 8
  %260 = bitcast %struct.CUstream_st* %259 to i8*
  %261 = bitcast { i64, i32 }* %52 to i8*
  %262 = bitcast %struct.dim3* %50 to i8*
  call void @llvm.memcpy.p0i8.p0i8.i64(i8* align 4 %261, i8* align 4 %262, i64 12, i1 false)
  %263 = getelementptr inbounds { i64, i32 }, { i64, i32 }* %52, i32 0, i32 0
  %264 = load i64, i64* %263, align 4
  %265 = getelementptr inbounds { i64, i32 }, { i64, i32 }* %52, i32 0, i32 1
  %266 = load i32, i32* %265, align 4
  %267 = bitcast { i64, i32 }* %53 to i8*
  %268 = bitcast %struct.dim3* %51 to i8*
  call void @llvm.memcpy.p0i8.p0i8.i64(i8* align 4 %267, i8* align 4 %268, i64 12, i1 false)
  %269 = getelementptr inbounds { i64, i32 }, { i64, i32 }* %53, i32 0, i32 0
  %270 = load i64, i64* %269, align 4
  %271 = getelementptr inbounds { i64, i32 }, { i64, i32 }* %53, i32 0, i32 1
  %272 = load i32, i32* %271, align 4
  %273 = call i32 @__cudaPushCallConfiguration(i64 %264, i32 %266, i64 %270, i32 %272, i64 %258, i8* %260)
  %274 = icmp ne i32 %273, 0
  br i1 %274, label %285, label %275

275:                                              ; preds = %252
  %276 = load i16*, i16** %23, align 8
  %277 = load i16*, i16** %24, align 8
  %278 = load i16*, i16** %25, align 8
  %279 = load i16*, i16** %26, align 8
  %280 = load float, float* %13, align 4
  %281 = load i32*, i32** %27, align 8
  %282 = load i32*, i32** %28, align 8
  %283 = load i32, i32* %20, align 4
  %284 = load i32, i32* %21, align 4
  call void @_ZN9cacheflow54__device_stub__single_query_cached_kv_attention_kernelItLi96ELi8ELi128EEEvPT_PKS1_S4_S4_fPKiS6_ii(i16* %276, i16* %277, i16* %278, i16* %279, float %280, i32* %281, i32* %282, i32 %283, i32 %284)
  br label %285

285:                                              ; preds = %275, %252
  br label %428

286:                                              ; preds = %100
  %287 = bitcast %struct.dim3* %54 to i8*
  %288 = bitcast %struct.dim3* %34 to i8*
  call void @llvm.memcpy.p0i8.p0i8.i64(i8* align 4 %287, i8* align 4 %288, i64 12, i1 false)
  %289 = bitcast %struct.dim3* %55 to i8*
  %290 = bitcast %struct.dim3* %35 to i8*
  call void @llvm.memcpy.p0i8.p0i8.i64(i8* align 4 %289, i8* align 4 %290, i64 12, i1 false)
  %291 = load i32, i32* %33, align 4
  %292 = sext i32 %291 to i64
  %293 = load %struct.CUstream_st*, %struct.CUstream_st** %36, align 8
  %294 = bitcast %struct.CUstream_st* %293 to i8*
  %295 = bitcast { i64, i32 }* %56 to i8*
  %296 = bitcast %struct.dim3* %54 to i8*
  call void @llvm.memcpy.p0i8.p0i8.i64(i8* align 4 %295, i8* align 4 %296, i64 12, i1 false)
  %297 = getelementptr inbounds { i64, i32 }, { i64, i32 }* %56, i32 0, i32 0
  %298 = load i64, i64* %297, align 4
  %299 = getelementptr inbounds { i64, i32 }, { i64, i32 }* %56, i32 0, i32 1
  %300 = load i32, i32* %299, align 4
  %301 = bitcast { i64, i32 }* %57 to i8*
  %302 = bitcast %struct.dim3* %55 to i8*
  call void @llvm.memcpy.p0i8.p0i8.i64(i8* align 4 %301, i8* align 4 %302, i64 12, i1 false)
  %303 = getelementptr inbounds { i64, i32 }, { i64, i32 }* %57, i32 0, i32 0
  %304 = load i64, i64* %303, align 4
  %305 = getelementptr inbounds { i64, i32 }, { i64, i32 }* %57, i32 0, i32 1
  %306 = load i32, i32* %305, align 4
  %307 = call i32 @__cudaPushCallConfiguration(i64 %298, i32 %300, i64 %304, i32 %306, i64 %292, i8* %294)
  %308 = icmp ne i32 %307, 0
  br i1 %308, label %319, label %309

309:                                              ; preds = %286
  %310 = load i16*, i16** %23, align 8
  %311 = load i16*, i16** %24, align 8
  %312 = load i16*, i16** %25, align 8
  %313 = load i16*, i16** %26, align 8
  %314 = load float, float* %13, align 4
  %315 = load i32*, i32** %27, align 8
  %316 = load i32*, i32** %28, align 8
  %317 = load i32, i32* %20, align 4
  %318 = load i32, i32* %21, align 4
  call void @_ZN9cacheflow54__device_stub__single_query_cached_kv_attention_kernelItLi128ELi8ELi128EEEvPT_PKS1_S4_S4_fPKiS6_ii(i16* %310, i16* %311, i16* %312, i16* %313, float %314, i32* %315, i32* %316, i32 %317, i32 %318)
  br label %319

319:                                              ; preds = %309, %286
  br label %428

320:                                              ; preds = %100
  %321 = bitcast %struct.dim3* %58 to i8*
  %322 = bitcast %struct.dim3* %34 to i8*
  call void @llvm.memcpy.p0i8.p0i8.i64(i8* align 4 %321, i8* align 4 %322, i64 12, i1 false)
  %323 = bitcast %struct.dim3* %59 to i8*
  %324 = bitcast %struct.dim3* %35 to i8*
  call void @llvm.memcpy.p0i8.p0i8.i64(i8* align 4 %323, i8* align 4 %324, i64 12, i1 false)
  %325 = load i32, i32* %33, align 4
  %326 = sext i32 %325 to i64
  %327 = load %struct.CUstream_st*, %struct.CUstream_st** %36, align 8
  %328 = bitcast %struct.CUstream_st* %327 to i8*
  %329 = bitcast { i64, i32 }* %60 to i8*
  %330 = bitcast %struct.dim3* %58 to i8*
  call void @llvm.memcpy.p0i8.p0i8.i64(i8* align 4 %329, i8* align 4 %330, i64 12, i1 false)
  %331 = getelementptr inbounds { i64, i32 }, { i64, i32 }* %60, i32 0, i32 0
  %332 = load i64, i64* %331, align 4
  %333 = getelementptr inbounds { i64, i32 }, { i64, i32 }* %60, i32 0, i32 1
  %334 = load i32, i32* %333, align 4
  %335 = bitcast { i64, i32 }* %61 to i8*
  %336 = bitcast %struct.dim3* %59 to i8*
  call void @llvm.memcpy.p0i8.p0i8.i64(i8* align 4 %335, i8* align 4 %336, i64 12, i1 false)
  %337 = getelementptr inbounds { i64, i32 }, { i64, i32 }* %61, i32 0, i32 0
  %338 = load i64, i64* %337, align 4
  %339 = getelementptr inbounds { i64, i32 }, { i64, i32 }* %61, i32 0, i32 1
  %340 = load i32, i32* %339, align 4
  %341 = call i32 @__cudaPushCallConfiguration(i64 %332, i32 %334, i64 %338, i32 %340, i64 %326, i8* %328)
  %342 = icmp ne i32 %341, 0
  br i1 %342, label %353, label %343

343:                                              ; preds = %320
  %344 = load i16*, i16** %23, align 8
  %345 = load i16*, i16** %24, align 8
  %346 = load i16*, i16** %25, align 8
  %347 = load i16*, i16** %26, align 8
  %348 = load float, float* %13, align 4
  %349 = load i32*, i32** %27, align 8
  %350 = load i32*, i32** %28, align 8
  %351 = load i32, i32* %20, align 4
  %352 = load i32, i32* %21, align 4
  call void @_ZN9cacheflow54__device_stub__single_query_cached_kv_attention_kernelItLi160ELi8ELi128EEEvPT_PKS1_S4_S4_fPKiS6_ii(i16* %344, i16* %345, i16* %346, i16* %347, float %348, i32* %349, i32* %350, i32 %351, i32 %352)
  br label %353

353:                                              ; preds = %343, %320
  br label %428

354:                                              ; preds = %100
  %355 = bitcast %struct.dim3* %62 to i8*
  %356 = bitcast %struct.dim3* %34 to i8*
  call void @llvm.memcpy.p0i8.p0i8.i64(i8* align 4 %355, i8* align 4 %356, i64 12, i1 false)
  %357 = bitcast %struct.dim3* %63 to i8*
  %358 = bitcast %struct.dim3* %35 to i8*
  call void @llvm.memcpy.p0i8.p0i8.i64(i8* align 4 %357, i8* align 4 %358, i64 12, i1 false)
  %359 = load i32, i32* %33, align 4
  %360 = sext i32 %359 to i64
  %361 = load %struct.CUstream_st*, %struct.CUstream_st** %36, align 8
  %362 = bitcast %struct.CUstream_st* %361 to i8*
  %363 = bitcast { i64, i32 }* %64 to i8*
  %364 = bitcast %struct.dim3* %62 to i8*
  call void @llvm.memcpy.p0i8.p0i8.i64(i8* align 4 %363, i8* align 4 %364, i64 12, i1 false)
  %365 = getelementptr inbounds { i64, i32 }, { i64, i32 }* %64, i32 0, i32 0
  %366 = load i64, i64* %365, align 4
  %367 = getelementptr inbounds { i64, i32 }, { i64, i32 }* %64, i32 0, i32 1
  %368 = load i32, i32* %367, align 4
  %369 = bitcast { i64, i32 }* %65 to i8*
  %370 = bitcast %struct.dim3* %63 to i8*
  call void @llvm.memcpy.p0i8.p0i8.i64(i8* align 4 %369, i8* align 4 %370, i64 12, i1 false)
  %371 = getelementptr inbounds { i64, i32 }, { i64, i32 }* %65, i32 0, i32 0
  %372 = load i64, i64* %371, align 4
  %373 = getelementptr inbounds { i64, i32 }, { i64, i32 }* %65, i32 0, i32 1
  %374 = load i32, i32* %373, align 4
  %375 = call i32 @__cudaPushCallConfiguration(i64 %366, i32 %368, i64 %372, i32 %374, i64 %360, i8* %362)
  %376 = icmp ne i32 %375, 0
  br i1 %376, label %387, label %377

377:                                              ; preds = %354
  %378 = load i16*, i16** %23, align 8
  %379 = load i16*, i16** %24, align 8
  %380 = load i16*, i16** %25, align 8
  %381 = load i16*, i16** %26, align 8
  %382 = load float, float* %13, align 4
  %383 = load i32*, i32** %27, align 8
  %384 = load i32*, i32** %28, align 8
  %385 = load i32, i32* %20, align 4
  %386 = load i32, i32* %21, align 4
  call void @_ZN9cacheflow54__device_stub__single_query_cached_kv_attention_kernelItLi192ELi8ELi128EEEvPT_PKS1_S4_S4_fPKiS6_ii(i16* %378, i16* %379, i16* %380, i16* %381, float %382, i32* %383, i32* %384, i32 %385, i32 %386)
  br label %387

387:                                              ; preds = %377, %354
  br label %428

388:                                              ; preds = %100
  %389 = bitcast %struct.dim3* %66 to i8*
  %390 = bitcast %struct.dim3* %34 to i8*
  call void @llvm.memcpy.p0i8.p0i8.i64(i8* align 4 %389, i8* align 4 %390, i64 12, i1 false)
  %391 = bitcast %struct.dim3* %67 to i8*
  %392 = bitcast %struct.dim3* %35 to i8*
  call void @llvm.memcpy.p0i8.p0i8.i64(i8* align 4 %391, i8* align 4 %392, i64 12, i1 false)
  %393 = load i32, i32* %33, align 4
  %394 = sext i32 %393 to i64
  %395 = load %struct.CUstream_st*, %struct.CUstream_st** %36, align 8
  %396 = bitcast %struct.CUstream_st* %395 to i8*
  %397 = bitcast { i64, i32 }* %68 to i8*
  %398 = bitcast %struct.dim3* %66 to i8*
  call void @llvm.memcpy.p0i8.p0i8.i64(i8* align 4 %397, i8* align 4 %398, i64 12, i1 false)
  %399 = getelementptr inbounds { i64, i32 }, { i64, i32 }* %68, i32 0, i32 0
  %400 = load i64, i64* %399, align 4
  %401 = getelementptr inbounds { i64, i32 }, { i64, i32 }* %68, i32 0, i32 1
  %402 = load i32, i32* %401, align 4
  %403 = bitcast { i64, i32 }* %69 to i8*
  %404 = bitcast %struct.dim3* %67 to i8*
  call void @llvm.memcpy.p0i8.p0i8.i64(i8* align 4 %403, i8* align 4 %404, i64 12, i1 false)
  %405 = getelementptr inbounds { i64, i32 }, { i64, i32 }* %69, i32 0, i32 0
  %406 = load i64, i64* %405, align 4
  %407 = getelementptr inbounds { i64, i32 }, { i64, i32 }* %69, i32 0, i32 1
  %408 = load i32, i32* %407, align 4
  %409 = call i32 @__cudaPushCallConfiguration(i64 %400, i32 %402, i64 %406, i32 %408, i64 %394, i8* %396)
  %410 = icmp ne i32 %409, 0
  br i1 %410, label %421, label %411

411:                                              ; preds = %388
  %412 = load i16*, i16** %23, align 8
  %413 = load i16*, i16** %24, align 8
  %414 = load i16*, i16** %25, align 8
  %415 = load i16*, i16** %26, align 8
  %416 = load float, float* %13, align 4
  %417 = load i32*, i32** %27, align 8
  %418 = load i32*, i32** %28, align 8
  %419 = load i32, i32* %20, align 4
  %420 = load i32, i32* %21, align 4
  call void @_ZN9cacheflow54__device_stub__single_query_cached_kv_attention_kernelItLi256ELi8ELi128EEEvPT_PKS1_S4_S4_fPKiS6_ii(i16* %412, i16* %413, i16* %414, i16* %415, float %416, i32* %417, i32* %418, i32 %419, i32 %420)
  br label %421

421:                                              ; preds = %411, %388
  br label %428

422:                                              ; preds = %100
  call void @_ZN3c106detail17torchCheckMsgImplIJA24_ciEEEDcPKcDpRKT_(%"class.std::__cxx11::basic_string"* sret(%"class.std::__cxx11::basic_string") align 8 %70, i8* getelementptr inbounds ([140 x i8], [140 x i8]* @.str.1, i64 0, i64 0), [24 x i8]* nonnull align 1 dereferenceable(24) @.str.154, i32* nonnull align 4 dereferenceable(4) %19)
  invoke void @_ZN3c106detail14torchCheckFailEPKcS2_jRKNSt7__cxx1112basic_stringIcSt11char_traitsIcESaIcEEE(i8* getelementptr inbounds ([42 x i8], [42 x i8]* @__func__._Z41single_query_cached_kv_attention_launcherItLi1ELi128EEvRN2at6TensorES2_S2_S2_fS2_S2_i, i64 0, i64 0), i8* getelementptr inbounds ([65 x i8], [65 x i8]* @.str, i64 0, i64 0), i32 381, %"class.std::__cxx11::basic_string"* nonnull align 8 dereferenceable(32) %70) #18
          to label %423 unwind label %424

423:                                              ; preds = %422
  unreachable

424:                                              ; preds = %422
  %425 = landingpad { i8*, i32 }
          cleanup
  %426 = extractvalue { i8*, i32 } %425, 0
  store i8* %426, i8** %71, align 8
  %427 = extractvalue { i8*, i32 } %425, 1
  store i32 %427, i32* %72, align 4
  call void @_ZNSt7__cxx1112basic_stringIcSt11char_traitsIcESaIcEED1Ev(%"class.std::__cxx11::basic_string"* nonnull align 8 dereferenceable(32) %70) #3
  br label %429

428:                                              ; preds = %421, %387, %353, %319, %285, %251, %217, %183
  ret void

429:                                              ; preds = %424
  %430 = load i8*, i8** %71, align 8
  %431 = load i32, i32* %72, align 4
  %432 = insertvalue { i8*, i32 } undef, i8* %430, 0
  %433 = insertvalue { i8*, i32 } %432, i32 %431, 1
  resume { i8*, i32 } %433
}

; Function Attrs: mustprogress noinline optnone uwtable
define linkonce_odr dso_local void @_Z41single_query_cached_kv_attention_launcherItLi16ELi128EEvRN2at6TensorES2_S2_S2_fS2_S2_i(%"class.at::Tensor"* nonnull align 8 dereferenceable(8) %0, %"class.at::Tensor"* nonnull align 8 dereferenceable(8) %1, %"class.at::Tensor"* nonnull align 8 dereferenceable(8) %2, %"class.at::Tensor"* nonnull align 8 dereferenceable(8) %3, float %4, %"class.at::Tensor"* nonnull align 8 dereferenceable(8) %5, %"class.at::Tensor"* nonnull align 8 dereferenceable(8) %6, i32 %7) #4 comdat personality i8* bitcast (i32 (...)* @__gxx_personality_v0 to i8*) {
  %9 = alloca %"class.at::Tensor"*, align 8
  %10 = alloca %"class.at::Tensor"*, align 8
  %11 = alloca %"class.at::Tensor"*, align 8
  %12 = alloca %"class.at::Tensor"*, align 8
  %13 = alloca float, align 4
  %14 = alloca %"class.at::Tensor"*, align 8
  %15 = alloca %"class.at::Tensor"*, align 8
  %16 = alloca i32, align 4
  %17 = alloca i32, align 4
  %18 = alloca i32, align 4
  %19 = alloca i32, align 4
  %20 = alloca i32, align 4
  %21 = alloca i32, align 4
  %22 = alloca i32, align 4
  %23 = alloca i16*, align 8
  %24 = alloca i16*, align 8
  %25 = alloca i16*, align 8
  %26 = alloca i16*, align 8
  %27 = alloca i32*, align 8
  %28 = alloca i32*, align 8
  %29 = alloca i32, align 4
  %30 = alloca i32, align 4
  %31 = alloca i32, align 4
  %32 = alloca i32, align 4
  %33 = alloca i32, align 4
  %34 = alloca %struct.dim3, align 4
  %35 = alloca %struct.dim3, align 4
  %36 = alloca %struct.CUstream_st*, align 8
  %37 = alloca %"class.c10::cuda::CUDAStream", align 8
  %38 = alloca %struct.dim3, align 4
  %39 = alloca %struct.dim3, align 4
  %40 = alloca { i64, i32 }, align 4
  %41 = alloca { i64, i32 }, align 4
  %42 = alloca %struct.dim3, align 4
  %43 = alloca %struct.dim3, align 4
  %44 = alloca { i64, i32 }, align 4
  %45 = alloca { i64, i32 }, align 4
  %46 = alloca %struct.dim3, align 4
  %47 = alloca %struct.dim3, align 4
  %48 = alloca { i64, i32 }, align 4
  %49 = alloca { i64, i32 }, align 4
  %50 = alloca %struct.dim3, align 4
  %51 = alloca %struct.dim3, align 4
  %52 = alloca { i64, i32 }, align 4
  %53 = alloca { i64, i32 }, align 4
  %54 = alloca %struct.dim3, align 4
  %55 = alloca %struct.dim3, align 4
  %56 = alloca { i64, i32 }, align 4
  %57 = alloca { i64, i32 }, align 4
  %58 = alloca %struct.dim3, align 4
  %59 = alloca %struct.dim3, align 4
  %60 = alloca { i64, i32 }, align 4
  %61 = alloca { i64, i32 }, align 4
  %62 = alloca %struct.dim3, align 4
  %63 = alloca %struct.dim3, align 4
  %64 = alloca { i64, i32 }, align 4
  %65 = alloca { i64, i32 }, align 4
  %66 = alloca %struct.dim3, align 4
  %67 = alloca %struct.dim3, align 4
  %68 = alloca { i64, i32 }, align 4
  %69 = alloca { i64, i32 }, align 4
  %70 = alloca %"class.std::__cxx11::basic_string", align 8
  %71 = alloca i8*, align 8
  %72 = alloca i32, align 4
  store %"class.at::Tensor"* %0, %"class.at::Tensor"** %9, align 8
  store %"class.at::Tensor"* %1, %"class.at::Tensor"** %10, align 8
  store %"class.at::Tensor"* %2, %"class.at::Tensor"** %11, align 8
  store %"class.at::Tensor"* %3, %"class.at::Tensor"** %12, align 8
  store float %4, float* %13, align 4
  store %"class.at::Tensor"* %5, %"class.at::Tensor"** %14, align 8
  store %"class.at::Tensor"* %6, %"class.at::Tensor"** %15, align 8
  store i32 %7, i32* %16, align 4
  %73 = load %"class.at::Tensor"*, %"class.at::Tensor"** %10, align 8
  %74 = bitcast %"class.at::Tensor"* %73 to %"class.at::TensorBase"*
  %75 = call i64 @_ZNK2at10TensorBase4sizeEl(%"class.at::TensorBase"* nonnull align 8 dereferenceable(8) %74, i64 0)
  %76 = trunc i64 %75 to i32
  store i32 %76, i32* %17, align 4
  %77 = load %"class.at::Tensor"*, %"class.at::Tensor"** %10, align 8
  %78 = bitcast %"class.at::Tensor"* %77 to %"class.at::TensorBase"*
  %79 = call i64 @_ZNK2at10TensorBase4sizeEl(%"class.at::TensorBase"* nonnull align 8 dereferenceable(8) %78, i64 1)
  %80 = trunc i64 %79 to i32
  store i32 %80, i32* %18, align 4
  %81 = load %"class.at::Tensor"*, %"class.at::Tensor"** %10, align 8
  %82 = bitcast %"class.at::Tensor"* %81 to %"class.at::TensorBase"*
  %83 = call i64 @_ZNK2at10TensorBase4sizeEl(%"class.at::TensorBase"* nonnull align 8 dereferenceable(8) %82, i64 2)
  %84 = trunc i64 %83 to i32
  store i32 %84, i32* %19, align 4
  %85 = load %"class.at::Tensor"*, %"class.at::Tensor"** %14, align 8
  %86 = bitcast %"class.at::Tensor"* %85 to %"class.at::TensorBase"*
  %87 = call i64 @_ZNK2at10TensorBase4sizeEl(%"class.at::TensorBase"* nonnull align 8 dereferenceable(8) %86, i64 1)
  %88 = trunc i64 %87 to i32
  store i32 %88, i32* %20, align 4
  %89 = load %"class.at::Tensor"*, %"class.at::Tensor"** %10, align 8
  %90 = bitcast %"class.at::Tensor"* %89 to %"class.at::TensorBase"*
  %91 = call i64 @_ZNK2at10TensorBase6strideEl(%"class.at::TensorBase"* nonnull align 8 dereferenceable(8) %90, i64 0)
  %92 = trunc i64 %91 to i32
  store i32 %92, i32* %21, align 4
  store i32 2, i32* %22, align 4
  %93 = load i32, i32* %19, align 4
  %94 = load i32, i32* %22, align 4
  %95 = srem i32 %93, %94
  %96 = icmp eq i32 %95, 0
  br i1 %96, label %97, label %98

97:                                               ; preds = %8
  br label %100

98:                                               ; preds = %8
  call void @__assert_fail(i8* getelementptr inbounds ([35 x i8], [35 x i8]* @.str.153, i64 0, i64 0), i8* getelementptr inbounds ([65 x i8], [65 x i8]* @.str, i64 0, i64 0), i32 337, i8* getelementptr inbounds ([218 x i8], [218 x i8]* @__PRETTY_FUNCTION__._Z41single_query_cached_kv_attention_launcherItLi16ELi128EEvRN2at6TensorES2_S2_S2_fS2_S2_i, i64 0, i64 0)) #19
  unreachable

99:                                               ; No predecessors!
  br label %100

100:                                              ; preds = %99, %97
  %101 = load %"class.at::Tensor"*, %"class.at::Tensor"** %9, align 8
  %102 = bitcast %"class.at::Tensor"* %101 to %"class.at::TensorBase"*
  %103 = call i8* @_ZNK2at10TensorBase8data_ptrEv(%"class.at::TensorBase"* nonnull align 8 dereferenceable(8) %102)
  %104 = bitcast i8* %103 to i16*
  store i16* %104, i16** %23, align 8
  %105 = load %"class.at::Tensor"*, %"class.at::Tensor"** %10, align 8
  %106 = bitcast %"class.at::Tensor"* %105 to %"class.at::TensorBase"*
  %107 = call i8* @_ZNK2at10TensorBase8data_ptrEv(%"class.at::TensorBase"* nonnull align 8 dereferenceable(8) %106)
  %108 = bitcast i8* %107 to i16*
  store i16* %108, i16** %24, align 8
  %109 = load %"class.at::Tensor"*, %"class.at::Tensor"** %11, align 8
  %110 = bitcast %"class.at::Tensor"* %109 to %"class.at::TensorBase"*
  %111 = call i8* @_ZNK2at10TensorBase8data_ptrEv(%"class.at::TensorBase"* nonnull align 8 dereferenceable(8) %110)
  %112 = bitcast i8* %111 to i16*
  store i16* %112, i16** %25, align 8
  %113 = load %"class.at::Tensor"*, %"class.at::Tensor"** %12, align 8
  %114 = bitcast %"class.at::Tensor"* %113 to %"class.at::TensorBase"*
  %115 = call i8* @_ZNK2at10TensorBase8data_ptrEv(%"class.at::TensorBase"* nonnull align 8 dereferenceable(8) %114)
  %116 = bitcast i8* %115 to i16*
  store i16* %116, i16** %26, align 8
  %117 = load %"class.at::Tensor"*, %"class.at::Tensor"** %14, align 8
  %118 = bitcast %"class.at::Tensor"* %117 to %"class.at::TensorBase"*
  %119 = call i32* @_ZNK2at10TensorBase8data_ptrIiEEPT_v(%"class.at::TensorBase"* nonnull align 8 dereferenceable(8) %118)
  store i32* %119, i32** %27, align 8
  %120 = load %"class.at::Tensor"*, %"class.at::Tensor"** %15, align 8
  %121 = bitcast %"class.at::Tensor"* %120 to %"class.at::TensorBase"*
  %122 = call i32* @_ZNK2at10TensorBase8data_ptrIiEEPT_v(%"class.at::TensorBase"* nonnull align 8 dereferenceable(8) %121)
  store i32* %122, i32** %28, align 8
  store i32 4, i32* %29, align 4
  %123 = load i32, i32* %16, align 4
  %124 = add nsw i32 %123, 16
  %125 = sub nsw i32 %124, 1
  %126 = sdiv i32 %125, 16
  %127 = mul nsw i32 %126, 16
  store i32 %127, i32* %30, align 4
  %128 = load i32, i32* %30, align 4
  %129 = sext i32 %128 to i64
  %130 = mul i64 %129, 2
  %131 = trunc i64 %130 to i32
  store i32 %131, i32* %31, align 4
  %132 = load i32, i32* %19, align 4
  %133 = mul nsw i32 2, %132
  %134 = sext i32 %133 to i64
  %135 = mul i64 %134, 4
  %136 = trunc i64 %135 to i32
  store i32 %136, i32* %32, align 4
  %137 = call nonnull align 4 dereferenceable(4) i32* @_ZSt3maxIiEUa9enable_ifILb1EERKT_S2_S2_(i32* nonnull align 4 dereferenceable(4) %31, i32* nonnull align 4 dereferenceable(4) %32)
  %138 = load i32, i32* %137, align 4
  store i32 %138, i32* %33, align 4
  %139 = load i32, i32* %18, align 4
  %140 = load i32, i32* %17, align 4
  call void @_ZN4dim3C2Ejjj(%struct.dim3* nonnull align 4 dereferenceable(12) %34, i32 %139, i32 %140, i32 1)
  call void @_ZN4dim3C2Ejjj(%struct.dim3* nonnull align 4 dereferenceable(12) %35, i32 128, i32 1, i32 1)
  %141 = call { i64, i64 } @_ZN3c104cuda20getCurrentCUDAStreamEa(i8 signext -1)
  %142 = getelementptr inbounds %"class.c10::cuda::CUDAStream", %"class.c10::cuda::CUDAStream"* %37, i32 0, i32 0
  %143 = bitcast %"class.c10::Stream"* %142 to { i64, i64 }*
  %144 = getelementptr inbounds { i64, i64 }, { i64, i64 }* %143, i32 0, i32 0
  %145 = extractvalue { i64, i64 } %141, 0
  store i64 %145, i64* %144, align 8
  %146 = getelementptr inbounds { i64, i64 }, { i64, i64 }* %143, i32 0, i32 1
  %147 = extractvalue { i64, i64 } %141, 1
  store i64 %147, i64* %146, align 8
  %148 = call %struct.CUstream_st* @_ZNK3c104cuda10CUDAStreamcvP11CUstream_stEv(%"class.c10::cuda::CUDAStream"* nonnull align 8 dereferenceable(16) %37)
  store %struct.CUstream_st* %148, %struct.CUstream_st** %36, align 8
  %149 = load i32, i32* %19, align 4
  switch i32 %149, label %422 [
    i32 32, label %150
    i32 64, label %184
    i32 80, label %218
    i32 96, label %252
    i32 128, label %286
    i32 160, label %320
    i32 192, label %354
    i32 256, label %388
  ]

150:                                              ; preds = %100
  %151 = bitcast %struct.dim3* %38 to i8*
  %152 = bitcast %struct.dim3* %34 to i8*
  call void @llvm.memcpy.p0i8.p0i8.i64(i8* align 4 %151, i8* align 4 %152, i64 12, i1 false)
  %153 = bitcast %struct.dim3* %39 to i8*
  %154 = bitcast %struct.dim3* %35 to i8*
  call void @llvm.memcpy.p0i8.p0i8.i64(i8* align 4 %153, i8* align 4 %154, i64 12, i1 false)
  %155 = load i32, i32* %33, align 4
  %156 = sext i32 %155 to i64
  %157 = load %struct.CUstream_st*, %struct.CUstream_st** %36, align 8
  %158 = bitcast %struct.CUstream_st* %157 to i8*
  %159 = bitcast { i64, i32 }* %40 to i8*
  %160 = bitcast %struct.dim3* %38 to i8*
  call void @llvm.memcpy.p0i8.p0i8.i64(i8* align 4 %159, i8* align 4 %160, i64 12, i1 false)
  %161 = getelementptr inbounds { i64, i32 }, { i64, i32 }* %40, i32 0, i32 0
  %162 = load i64, i64* %161, align 4
  %163 = getelementptr inbounds { i64, i32 }, { i64, i32 }* %40, i32 0, i32 1
  %164 = load i32, i32* %163, align 4
  %165 = bitcast { i64, i32 }* %41 to i8*
  %166 = bitcast %struct.dim3* %39 to i8*
  call void @llvm.memcpy.p0i8.p0i8.i64(i8* align 4 %165, i8* align 4 %166, i64 12, i1 false)
  %167 = getelementptr inbounds { i64, i32 }, { i64, i32 }* %41, i32 0, i32 0
  %168 = load i64, i64* %167, align 4
  %169 = getelementptr inbounds { i64, i32 }, { i64, i32 }* %41, i32 0, i32 1
  %170 = load i32, i32* %169, align 4
  %171 = call i32 @__cudaPushCallConfiguration(i64 %162, i32 %164, i64 %168, i32 %170, i64 %156, i8* %158)
  %172 = icmp ne i32 %171, 0
  br i1 %172, label %183, label %173

173:                                              ; preds = %150
  %174 = load i16*, i16** %23, align 8
  %175 = load i16*, i16** %24, align 8
  %176 = load i16*, i16** %25, align 8
  %177 = load i16*, i16** %26, align 8
  %178 = load float, float* %13, align 4
  %179 = load i32*, i32** %27, align 8
  %180 = load i32*, i32** %28, align 8
  %181 = load i32, i32* %20, align 4
  %182 = load i32, i32* %21, align 4
  call void @_ZN9cacheflow54__device_stub__single_query_cached_kv_attention_kernelItLi32ELi16ELi128EEEvPT_PKS1_S4_S4_fPKiS6_ii(i16* %174, i16* %175, i16* %176, i16* %177, float %178, i32* %179, i32* %180, i32 %181, i32 %182)
  br label %183

183:                                              ; preds = %173, %150
  br label %428

184:                                              ; preds = %100
  %185 = bitcast %struct.dim3* %42 to i8*
  %186 = bitcast %struct.dim3* %34 to i8*
  call void @llvm.memcpy.p0i8.p0i8.i64(i8* align 4 %185, i8* align 4 %186, i64 12, i1 false)
  %187 = bitcast %struct.dim3* %43 to i8*
  %188 = bitcast %struct.dim3* %35 to i8*
  call void @llvm.memcpy.p0i8.p0i8.i64(i8* align 4 %187, i8* align 4 %188, i64 12, i1 false)
  %189 = load i32, i32* %33, align 4
  %190 = sext i32 %189 to i64
  %191 = load %struct.CUstream_st*, %struct.CUstream_st** %36, align 8
  %192 = bitcast %struct.CUstream_st* %191 to i8*
  %193 = bitcast { i64, i32 }* %44 to i8*
  %194 = bitcast %struct.dim3* %42 to i8*
  call void @llvm.memcpy.p0i8.p0i8.i64(i8* align 4 %193, i8* align 4 %194, i64 12, i1 false)
  %195 = getelementptr inbounds { i64, i32 }, { i64, i32 }* %44, i32 0, i32 0
  %196 = load i64, i64* %195, align 4
  %197 = getelementptr inbounds { i64, i32 }, { i64, i32 }* %44, i32 0, i32 1
  %198 = load i32, i32* %197, align 4
  %199 = bitcast { i64, i32 }* %45 to i8*
  %200 = bitcast %struct.dim3* %43 to i8*
  call void @llvm.memcpy.p0i8.p0i8.i64(i8* align 4 %199, i8* align 4 %200, i64 12, i1 false)
  %201 = getelementptr inbounds { i64, i32 }, { i64, i32 }* %45, i32 0, i32 0
  %202 = load i64, i64* %201, align 4
  %203 = getelementptr inbounds { i64, i32 }, { i64, i32 }* %45, i32 0, i32 1
  %204 = load i32, i32* %203, align 4
  %205 = call i32 @__cudaPushCallConfiguration(i64 %196, i32 %198, i64 %202, i32 %204, i64 %190, i8* %192)
  %206 = icmp ne i32 %205, 0
  br i1 %206, label %217, label %207

207:                                              ; preds = %184
  %208 = load i16*, i16** %23, align 8
  %209 = load i16*, i16** %24, align 8
  %210 = load i16*, i16** %25, align 8
  %211 = load i16*, i16** %26, align 8
  %212 = load float, float* %13, align 4
  %213 = load i32*, i32** %27, align 8
  %214 = load i32*, i32** %28, align 8
  %215 = load i32, i32* %20, align 4
  %216 = load i32, i32* %21, align 4
  call void @_ZN9cacheflow54__device_stub__single_query_cached_kv_attention_kernelItLi64ELi16ELi128EEEvPT_PKS1_S4_S4_fPKiS6_ii(i16* %208, i16* %209, i16* %210, i16* %211, float %212, i32* %213, i32* %214, i32 %215, i32 %216)
  br label %217

217:                                              ; preds = %207, %184
  br label %428

218:                                              ; preds = %100
  %219 = bitcast %struct.dim3* %46 to i8*
  %220 = bitcast %struct.dim3* %34 to i8*
  call void @llvm.memcpy.p0i8.p0i8.i64(i8* align 4 %219, i8* align 4 %220, i64 12, i1 false)
  %221 = bitcast %struct.dim3* %47 to i8*
  %222 = bitcast %struct.dim3* %35 to i8*
  call void @llvm.memcpy.p0i8.p0i8.i64(i8* align 4 %221, i8* align 4 %222, i64 12, i1 false)
  %223 = load i32, i32* %33, align 4
  %224 = sext i32 %223 to i64
  %225 = load %struct.CUstream_st*, %struct.CUstream_st** %36, align 8
  %226 = bitcast %struct.CUstream_st* %225 to i8*
  %227 = bitcast { i64, i32 }* %48 to i8*
  %228 = bitcast %struct.dim3* %46 to i8*
  call void @llvm.memcpy.p0i8.p0i8.i64(i8* align 4 %227, i8* align 4 %228, i64 12, i1 false)
  %229 = getelementptr inbounds { i64, i32 }, { i64, i32 }* %48, i32 0, i32 0
  %230 = load i64, i64* %229, align 4
  %231 = getelementptr inbounds { i64, i32 }, { i64, i32 }* %48, i32 0, i32 1
  %232 = load i32, i32* %231, align 4
  %233 = bitcast { i64, i32 }* %49 to i8*
  %234 = bitcast %struct.dim3* %47 to i8*
  call void @llvm.memcpy.p0i8.p0i8.i64(i8* align 4 %233, i8* align 4 %234, i64 12, i1 false)
  %235 = getelementptr inbounds { i64, i32 }, { i64, i32 }* %49, i32 0, i32 0
  %236 = load i64, i64* %235, align 4
  %237 = getelementptr inbounds { i64, i32 }, { i64, i32 }* %49, i32 0, i32 1
  %238 = load i32, i32* %237, align 4
  %239 = call i32 @__cudaPushCallConfiguration(i64 %230, i32 %232, i64 %236, i32 %238, i64 %224, i8* %226)
  %240 = icmp ne i32 %239, 0
  br i1 %240, label %251, label %241

241:                                              ; preds = %218
  %242 = load i16*, i16** %23, align 8
  %243 = load i16*, i16** %24, align 8
  %244 = load i16*, i16** %25, align 8
  %245 = load i16*, i16** %26, align 8
  %246 = load float, float* %13, align 4
  %247 = load i32*, i32** %27, align 8
  %248 = load i32*, i32** %28, align 8
  %249 = load i32, i32* %20, align 4
  %250 = load i32, i32* %21, align 4
  call void @_ZN9cacheflow54__device_stub__single_query_cached_kv_attention_kernelItLi80ELi16ELi128EEEvPT_PKS1_S4_S4_fPKiS6_ii(i16* %242, i16* %243, i16* %244, i16* %245, float %246, i32* %247, i32* %248, i32 %249, i32 %250)
  br label %251

251:                                              ; preds = %241, %218
  br label %428

252:                                              ; preds = %100
  %253 = bitcast %struct.dim3* %50 to i8*
  %254 = bitcast %struct.dim3* %34 to i8*
  call void @llvm.memcpy.p0i8.p0i8.i64(i8* align 4 %253, i8* align 4 %254, i64 12, i1 false)
  %255 = bitcast %struct.dim3* %51 to i8*
  %256 = bitcast %struct.dim3* %35 to i8*
  call void @llvm.memcpy.p0i8.p0i8.i64(i8* align 4 %255, i8* align 4 %256, i64 12, i1 false)
  %257 = load i32, i32* %33, align 4
  %258 = sext i32 %257 to i64
  %259 = load %struct.CUstream_st*, %struct.CUstream_st** %36, align 8
  %260 = bitcast %struct.CUstream_st* %259 to i8*
  %261 = bitcast { i64, i32 }* %52 to i8*
  %262 = bitcast %struct.dim3* %50 to i8*
  call void @llvm.memcpy.p0i8.p0i8.i64(i8* align 4 %261, i8* align 4 %262, i64 12, i1 false)
  %263 = getelementptr inbounds { i64, i32 }, { i64, i32 }* %52, i32 0, i32 0
  %264 = load i64, i64* %263, align 4
  %265 = getelementptr inbounds { i64, i32 }, { i64, i32 }* %52, i32 0, i32 1
  %266 = load i32, i32* %265, align 4
  %267 = bitcast { i64, i32 }* %53 to i8*
  %268 = bitcast %struct.dim3* %51 to i8*
  call void @llvm.memcpy.p0i8.p0i8.i64(i8* align 4 %267, i8* align 4 %268, i64 12, i1 false)
  %269 = getelementptr inbounds { i64, i32 }, { i64, i32 }* %53, i32 0, i32 0
  %270 = load i64, i64* %269, align 4
  %271 = getelementptr inbounds { i64, i32 }, { i64, i32 }* %53, i32 0, i32 1
  %272 = load i32, i32* %271, align 4
  %273 = call i32 @__cudaPushCallConfiguration(i64 %264, i32 %266, i64 %270, i32 %272, i64 %258, i8* %260)
  %274 = icmp ne i32 %273, 0
  br i1 %274, label %285, label %275

275:                                              ; preds = %252
  %276 = load i16*, i16** %23, align 8
  %277 = load i16*, i16** %24, align 8
  %278 = load i16*, i16** %25, align 8
  %279 = load i16*, i16** %26, align 8
  %280 = load float, float* %13, align 4
  %281 = load i32*, i32** %27, align 8
  %282 = load i32*, i32** %28, align 8
  %283 = load i32, i32* %20, align 4
  %284 = load i32, i32* %21, align 4
  call void @_ZN9cacheflow54__device_stub__single_query_cached_kv_attention_kernelItLi96ELi16ELi128EEEvPT_PKS1_S4_S4_fPKiS6_ii(i16* %276, i16* %277, i16* %278, i16* %279, float %280, i32* %281, i32* %282, i32 %283, i32 %284)
  br label %285

285:                                              ; preds = %275, %252
  br label %428

286:                                              ; preds = %100
  %287 = bitcast %struct.dim3* %54 to i8*
  %288 = bitcast %struct.dim3* %34 to i8*
  call void @llvm.memcpy.p0i8.p0i8.i64(i8* align 4 %287, i8* align 4 %288, i64 12, i1 false)
  %289 = bitcast %struct.dim3* %55 to i8*
  %290 = bitcast %struct.dim3* %35 to i8*
  call void @llvm.memcpy.p0i8.p0i8.i64(i8* align 4 %289, i8* align 4 %290, i64 12, i1 false)
  %291 = load i32, i32* %33, align 4
  %292 = sext i32 %291 to i64
  %293 = load %struct.CUstream_st*, %struct.CUstream_st** %36, align 8
  %294 = bitcast %struct.CUstream_st* %293 to i8*
  %295 = bitcast { i64, i32 }* %56 to i8*
  %296 = bitcast %struct.dim3* %54 to i8*
  call void @llvm.memcpy.p0i8.p0i8.i64(i8* align 4 %295, i8* align 4 %296, i64 12, i1 false)
  %297 = getelementptr inbounds { i64, i32 }, { i64, i32 }* %56, i32 0, i32 0
  %298 = load i64, i64* %297, align 4
  %299 = getelementptr inbounds { i64, i32 }, { i64, i32 }* %56, i32 0, i32 1
  %300 = load i32, i32* %299, align 4
  %301 = bitcast { i64, i32 }* %57 to i8*
  %302 = bitcast %struct.dim3* %55 to i8*
  call void @llvm.memcpy.p0i8.p0i8.i64(i8* align 4 %301, i8* align 4 %302, i64 12, i1 false)
  %303 = getelementptr inbounds { i64, i32 }, { i64, i32 }* %57, i32 0, i32 0
  %304 = load i64, i64* %303, align 4
  %305 = getelementptr inbounds { i64, i32 }, { i64, i32 }* %57, i32 0, i32 1
  %306 = load i32, i32* %305, align 4
  %307 = call i32 @__cudaPushCallConfiguration(i64 %298, i32 %300, i64 %304, i32 %306, i64 %292, i8* %294)
  %308 = icmp ne i32 %307, 0
  br i1 %308, label %319, label %309

309:                                              ; preds = %286
  %310 = load i16*, i16** %23, align 8
  %311 = load i16*, i16** %24, align 8
  %312 = load i16*, i16** %25, align 8
  %313 = load i16*, i16** %26, align 8
  %314 = load float, float* %13, align 4
  %315 = load i32*, i32** %27, align 8
  %316 = load i32*, i32** %28, align 8
  %317 = load i32, i32* %20, align 4
  %318 = load i32, i32* %21, align 4
  call void @_ZN9cacheflow54__device_stub__single_query_cached_kv_attention_kernelItLi128ELi16ELi128EEEvPT_PKS1_S4_S4_fPKiS6_ii(i16* %310, i16* %311, i16* %312, i16* %313, float %314, i32* %315, i32* %316, i32 %317, i32 %318)
  br label %319

319:                                              ; preds = %309, %286
  br label %428

320:                                              ; preds = %100
  %321 = bitcast %struct.dim3* %58 to i8*
  %322 = bitcast %struct.dim3* %34 to i8*
  call void @llvm.memcpy.p0i8.p0i8.i64(i8* align 4 %321, i8* align 4 %322, i64 12, i1 false)
  %323 = bitcast %struct.dim3* %59 to i8*
  %324 = bitcast %struct.dim3* %35 to i8*
  call void @llvm.memcpy.p0i8.p0i8.i64(i8* align 4 %323, i8* align 4 %324, i64 12, i1 false)
  %325 = load i32, i32* %33, align 4
  %326 = sext i32 %325 to i64
  %327 = load %struct.CUstream_st*, %struct.CUstream_st** %36, align 8
  %328 = bitcast %struct.CUstream_st* %327 to i8*
  %329 = bitcast { i64, i32 }* %60 to i8*
  %330 = bitcast %struct.dim3* %58 to i8*
  call void @llvm.memcpy.p0i8.p0i8.i64(i8* align 4 %329, i8* align 4 %330, i64 12, i1 false)
  %331 = getelementptr inbounds { i64, i32 }, { i64, i32 }* %60, i32 0, i32 0
  %332 = load i64, i64* %331, align 4
  %333 = getelementptr inbounds { i64, i32 }, { i64, i32 }* %60, i32 0, i32 1
  %334 = load i32, i32* %333, align 4
  %335 = bitcast { i64, i32 }* %61 to i8*
  %336 = bitcast %struct.dim3* %59 to i8*
  call void @llvm.memcpy.p0i8.p0i8.i64(i8* align 4 %335, i8* align 4 %336, i64 12, i1 false)
  %337 = getelementptr inbounds { i64, i32 }, { i64, i32 }* %61, i32 0, i32 0
  %338 = load i64, i64* %337, align 4
  %339 = getelementptr inbounds { i64, i32 }, { i64, i32 }* %61, i32 0, i32 1
  %340 = load i32, i32* %339, align 4
  %341 = call i32 @__cudaPushCallConfiguration(i64 %332, i32 %334, i64 %338, i32 %340, i64 %326, i8* %328)
  %342 = icmp ne i32 %341, 0
  br i1 %342, label %353, label %343

343:                                              ; preds = %320
  %344 = load i16*, i16** %23, align 8
  %345 = load i16*, i16** %24, align 8
  %346 = load i16*, i16** %25, align 8
  %347 = load i16*, i16** %26, align 8
  %348 = load float, float* %13, align 4
  %349 = load i32*, i32** %27, align 8
  %350 = load i32*, i32** %28, align 8
  %351 = load i32, i32* %20, align 4
  %352 = load i32, i32* %21, align 4
  call void @_ZN9cacheflow54__device_stub__single_query_cached_kv_attention_kernelItLi160ELi16ELi128EEEvPT_PKS1_S4_S4_fPKiS6_ii(i16* %344, i16* %345, i16* %346, i16* %347, float %348, i32* %349, i32* %350, i32 %351, i32 %352)
  br label %353

353:                                              ; preds = %343, %320
  br label %428

354:                                              ; preds = %100
  %355 = bitcast %struct.dim3* %62 to i8*
  %356 = bitcast %struct.dim3* %34 to i8*
  call void @llvm.memcpy.p0i8.p0i8.i64(i8* align 4 %355, i8* align 4 %356, i64 12, i1 false)
  %357 = bitcast %struct.dim3* %63 to i8*
  %358 = bitcast %struct.dim3* %35 to i8*
  call void @llvm.memcpy.p0i8.p0i8.i64(i8* align 4 %357, i8* align 4 %358, i64 12, i1 false)
  %359 = load i32, i32* %33, align 4
  %360 = sext i32 %359 to i64
  %361 = load %struct.CUstream_st*, %struct.CUstream_st** %36, align 8
  %362 = bitcast %struct.CUstream_st* %361 to i8*
  %363 = bitcast { i64, i32 }* %64 to i8*
  %364 = bitcast %struct.dim3* %62 to i8*
  call void @llvm.memcpy.p0i8.p0i8.i64(i8* align 4 %363, i8* align 4 %364, i64 12, i1 false)
  %365 = getelementptr inbounds { i64, i32 }, { i64, i32 }* %64, i32 0, i32 0
  %366 = load i64, i64* %365, align 4
  %367 = getelementptr inbounds { i64, i32 }, { i64, i32 }* %64, i32 0, i32 1
  %368 = load i32, i32* %367, align 4
  %369 = bitcast { i64, i32 }* %65 to i8*
  %370 = bitcast %struct.dim3* %63 to i8*
  call void @llvm.memcpy.p0i8.p0i8.i64(i8* align 4 %369, i8* align 4 %370, i64 12, i1 false)
  %371 = getelementptr inbounds { i64, i32 }, { i64, i32 }* %65, i32 0, i32 0
  %372 = load i64, i64* %371, align 4
  %373 = getelementptr inbounds { i64, i32 }, { i64, i32 }* %65, i32 0, i32 1
  %374 = load i32, i32* %373, align 4
  %375 = call i32 @__cudaPushCallConfiguration(i64 %366, i32 %368, i64 %372, i32 %374, i64 %360, i8* %362)
  %376 = icmp ne i32 %375, 0
  br i1 %376, label %387, label %377

377:                                              ; preds = %354
  %378 = load i16*, i16** %23, align 8
  %379 = load i16*, i16** %24, align 8
  %380 = load i16*, i16** %25, align 8
  %381 = load i16*, i16** %26, align 8
  %382 = load float, float* %13, align 4
  %383 = load i32*, i32** %27, align 8
  %384 = load i32*, i32** %28, align 8
  %385 = load i32, i32* %20, align 4
  %386 = load i32, i32* %21, align 4
  call void @_ZN9cacheflow54__device_stub__single_query_cached_kv_attention_kernelItLi192ELi16ELi128EEEvPT_PKS1_S4_S4_fPKiS6_ii(i16* %378, i16* %379, i16* %380, i16* %381, float %382, i32* %383, i32* %384, i32 %385, i32 %386)
  br label %387

387:                                              ; preds = %377, %354
  br label %428

388:                                              ; preds = %100
  %389 = bitcast %struct.dim3* %66 to i8*
  %390 = bitcast %struct.dim3* %34 to i8*
  call void @llvm.memcpy.p0i8.p0i8.i64(i8* align 4 %389, i8* align 4 %390, i64 12, i1 false)
  %391 = bitcast %struct.dim3* %67 to i8*
  %392 = bitcast %struct.dim3* %35 to i8*
  call void @llvm.memcpy.p0i8.p0i8.i64(i8* align 4 %391, i8* align 4 %392, i64 12, i1 false)
  %393 = load i32, i32* %33, align 4
  %394 = sext i32 %393 to i64
  %395 = load %struct.CUstream_st*, %struct.CUstream_st** %36, align 8
  %396 = bitcast %struct.CUstream_st* %395 to i8*
  %397 = bitcast { i64, i32 }* %68 to i8*
  %398 = bitcast %struct.dim3* %66 to i8*
  call void @llvm.memcpy.p0i8.p0i8.i64(i8* align 4 %397, i8* align 4 %398, i64 12, i1 false)
  %399 = getelementptr inbounds { i64, i32 }, { i64, i32 }* %68, i32 0, i32 0
  %400 = load i64, i64* %399, align 4
  %401 = getelementptr inbounds { i64, i32 }, { i64, i32 }* %68, i32 0, i32 1
  %402 = load i32, i32* %401, align 4
  %403 = bitcast { i64, i32 }* %69 to i8*
  %404 = bitcast %struct.dim3* %67 to i8*
  call void @llvm.memcpy.p0i8.p0i8.i64(i8* align 4 %403, i8* align 4 %404, i64 12, i1 false)
  %405 = getelementptr inbounds { i64, i32 }, { i64, i32 }* %69, i32 0, i32 0
  %406 = load i64, i64* %405, align 4
  %407 = getelementptr inbounds { i64, i32 }, { i64, i32 }* %69, i32 0, i32 1
  %408 = load i32, i32* %407, align 4
  %409 = call i32 @__cudaPushCallConfiguration(i64 %400, i32 %402, i64 %406, i32 %408, i64 %394, i8* %396)
  %410 = icmp ne i32 %409, 0
  br i1 %410, label %421, label %411

411:                                              ; preds = %388
  %412 = load i16*, i16** %23, align 8
  %413 = load i16*, i16** %24, align 8
  %414 = load i16*, i16** %25, align 8
  %415 = load i16*, i16** %26, align 8
  %416 = load float, float* %13, align 4
  %417 = load i32*, i32** %27, align 8
  %418 = load i32*, i32** %28, align 8
  %419 = load i32, i32* %20, align 4
  %420 = load i32, i32* %21, align 4
  call void @_ZN9cacheflow54__device_stub__single_query_cached_kv_attention_kernelItLi256ELi16ELi128EEEvPT_PKS1_S4_S4_fPKiS6_ii(i16* %412, i16* %413, i16* %414, i16* %415, float %416, i32* %417, i32* %418, i32 %419, i32 %420)
  br label %421

421:                                              ; preds = %411, %388
  br label %428

422:                                              ; preds = %100
  call void @_ZN3c106detail17torchCheckMsgImplIJA24_ciEEEDcPKcDpRKT_(%"class.std::__cxx11::basic_string"* sret(%"class.std::__cxx11::basic_string") align 8 %70, i8* getelementptr inbounds ([140 x i8], [140 x i8]* @.str.1, i64 0, i64 0), [24 x i8]* nonnull align 1 dereferenceable(24) @.str.154, i32* nonnull align 4 dereferenceable(4) %19)
  invoke void @_ZN3c106detail14torchCheckFailEPKcS2_jRKNSt7__cxx1112basic_stringIcSt11char_traitsIcESaIcEEE(i8* getelementptr inbounds ([42 x i8], [42 x i8]* @__func__._Z41single_query_cached_kv_attention_launcherItLi1ELi128EEvRN2at6TensorES2_S2_S2_fS2_S2_i, i64 0, i64 0), i8* getelementptr inbounds ([65 x i8], [65 x i8]* @.str, i64 0, i64 0), i32 381, %"class.std::__cxx11::basic_string"* nonnull align 8 dereferenceable(32) %70) #18
          to label %423 unwind label %424

423:                                              ; preds = %422
  unreachable

424:                                              ; preds = %422
  %425 = landingpad { i8*, i32 }
          cleanup
  %426 = extractvalue { i8*, i32 } %425, 0
  store i8* %426, i8** %71, align 8
  %427 = extractvalue { i8*, i32 } %425, 1
  store i32 %427, i32* %72, align 4
  call void @_ZNSt7__cxx1112basic_stringIcSt11char_traitsIcESaIcEED1Ev(%"class.std::__cxx11::basic_string"* nonnull align 8 dereferenceable(32) %70) #3
  br label %429

428:                                              ; preds = %421, %387, %353, %319, %285, %251, %217, %183
  ret void

429:                                              ; preds = %424
  %430 = load i8*, i8** %71, align 8
  %431 = load i32, i32* %72, align 4
  %432 = insertvalue { i8*, i32 } undef, i8* %430, 0
  %433 = insertvalue { i8*, i32 } %432, i32 %431, 1
  resume { i8*, i32 } %433
}

; Function Attrs: mustprogress noinline optnone uwtable
define linkonce_odr dso_local void @_Z41single_query_cached_kv_attention_launcherItLi32ELi128EEvRN2at6TensorES2_S2_S2_fS2_S2_i(%"class.at::Tensor"* nonnull align 8 dereferenceable(8) %0, %"class.at::Tensor"* nonnull align 8 dereferenceable(8) %1, %"class.at::Tensor"* nonnull align 8 dereferenceable(8) %2, %"class.at::Tensor"* nonnull align 8 dereferenceable(8) %3, float %4, %"class.at::Tensor"* nonnull align 8 dereferenceable(8) %5, %"class.at::Tensor"* nonnull align 8 dereferenceable(8) %6, i32 %7) #4 comdat personality i8* bitcast (i32 (...)* @__gxx_personality_v0 to i8*) {
  %9 = alloca %"class.at::Tensor"*, align 8
  %10 = alloca %"class.at::Tensor"*, align 8
  %11 = alloca %"class.at::Tensor"*, align 8
  %12 = alloca %"class.at::Tensor"*, align 8
  %13 = alloca float, align 4
  %14 = alloca %"class.at::Tensor"*, align 8
  %15 = alloca %"class.at::Tensor"*, align 8
  %16 = alloca i32, align 4
  %17 = alloca i32, align 4
  %18 = alloca i32, align 4
  %19 = alloca i32, align 4
  %20 = alloca i32, align 4
  %21 = alloca i32, align 4
  %22 = alloca i32, align 4
  %23 = alloca i16*, align 8
  %24 = alloca i16*, align 8
  %25 = alloca i16*, align 8
  %26 = alloca i16*, align 8
  %27 = alloca i32*, align 8
  %28 = alloca i32*, align 8
  %29 = alloca i32, align 4
  %30 = alloca i32, align 4
  %31 = alloca i32, align 4
  %32 = alloca i32, align 4
  %33 = alloca i32, align 4
  %34 = alloca %struct.dim3, align 4
  %35 = alloca %struct.dim3, align 4
  %36 = alloca %struct.CUstream_st*, align 8
  %37 = alloca %"class.c10::cuda::CUDAStream", align 8
  %38 = alloca %struct.dim3, align 4
  %39 = alloca %struct.dim3, align 4
  %40 = alloca { i64, i32 }, align 4
  %41 = alloca { i64, i32 }, align 4
  %42 = alloca %struct.dim3, align 4
  %43 = alloca %struct.dim3, align 4
  %44 = alloca { i64, i32 }, align 4
  %45 = alloca { i64, i32 }, align 4
  %46 = alloca %struct.dim3, align 4
  %47 = alloca %struct.dim3, align 4
  %48 = alloca { i64, i32 }, align 4
  %49 = alloca { i64, i32 }, align 4
  %50 = alloca %struct.dim3, align 4
  %51 = alloca %struct.dim3, align 4
  %52 = alloca { i64, i32 }, align 4
  %53 = alloca { i64, i32 }, align 4
  %54 = alloca %struct.dim3, align 4
  %55 = alloca %struct.dim3, align 4
  %56 = alloca { i64, i32 }, align 4
  %57 = alloca { i64, i32 }, align 4
  %58 = alloca %struct.dim3, align 4
  %59 = alloca %struct.dim3, align 4
  %60 = alloca { i64, i32 }, align 4
  %61 = alloca { i64, i32 }, align 4
  %62 = alloca %struct.dim3, align 4
  %63 = alloca %struct.dim3, align 4
  %64 = alloca { i64, i32 }, align 4
  %65 = alloca { i64, i32 }, align 4
  %66 = alloca %struct.dim3, align 4
  %67 = alloca %struct.dim3, align 4
  %68 = alloca { i64, i32 }, align 4
  %69 = alloca { i64, i32 }, align 4
  %70 = alloca %"class.std::__cxx11::basic_string", align 8
  %71 = alloca i8*, align 8
  %72 = alloca i32, align 4
  store %"class.at::Tensor"* %0, %"class.at::Tensor"** %9, align 8
  store %"class.at::Tensor"* %1, %"class.at::Tensor"** %10, align 8
  store %"class.at::Tensor"* %2, %"class.at::Tensor"** %11, align 8
  store %"class.at::Tensor"* %3, %"class.at::Tensor"** %12, align 8
  store float %4, float* %13, align 4
  store %"class.at::Tensor"* %5, %"class.at::Tensor"** %14, align 8
  store %"class.at::Tensor"* %6, %"class.at::Tensor"** %15, align 8
  store i32 %7, i32* %16, align 4
  %73 = load %"class.at::Tensor"*, %"class.at::Tensor"** %10, align 8
  %74 = bitcast %"class.at::Tensor"* %73 to %"class.at::TensorBase"*
  %75 = call i64 @_ZNK2at10TensorBase4sizeEl(%"class.at::TensorBase"* nonnull align 8 dereferenceable(8) %74, i64 0)
  %76 = trunc i64 %75 to i32
  store i32 %76, i32* %17, align 4
  %77 = load %"class.at::Tensor"*, %"class.at::Tensor"** %10, align 8
  %78 = bitcast %"class.at::Tensor"* %77 to %"class.at::TensorBase"*
  %79 = call i64 @_ZNK2at10TensorBase4sizeEl(%"class.at::TensorBase"* nonnull align 8 dereferenceable(8) %78, i64 1)
  %80 = trunc i64 %79 to i32
  store i32 %80, i32* %18, align 4
  %81 = load %"class.at::Tensor"*, %"class.at::Tensor"** %10, align 8
  %82 = bitcast %"class.at::Tensor"* %81 to %"class.at::TensorBase"*
  %83 = call i64 @_ZNK2at10TensorBase4sizeEl(%"class.at::TensorBase"* nonnull align 8 dereferenceable(8) %82, i64 2)
  %84 = trunc i64 %83 to i32
  store i32 %84, i32* %19, align 4
  %85 = load %"class.at::Tensor"*, %"class.at::Tensor"** %14, align 8
  %86 = bitcast %"class.at::Tensor"* %85 to %"class.at::TensorBase"*
  %87 = call i64 @_ZNK2at10TensorBase4sizeEl(%"class.at::TensorBase"* nonnull align 8 dereferenceable(8) %86, i64 1)
  %88 = trunc i64 %87 to i32
  store i32 %88, i32* %20, align 4
  %89 = load %"class.at::Tensor"*, %"class.at::Tensor"** %10, align 8
  %90 = bitcast %"class.at::Tensor"* %89 to %"class.at::TensorBase"*
  %91 = call i64 @_ZNK2at10TensorBase6strideEl(%"class.at::TensorBase"* nonnull align 8 dereferenceable(8) %90, i64 0)
  %92 = trunc i64 %91 to i32
  store i32 %92, i32* %21, align 4
  store i32 1, i32* %22, align 4
  %93 = load i32, i32* %19, align 4
  %94 = load i32, i32* %22, align 4
  %95 = srem i32 %93, %94
  %96 = icmp eq i32 %95, 0
  br i1 %96, label %97, label %98

97:                                               ; preds = %8
  br label %100

98:                                               ; preds = %8
  call void @__assert_fail(i8* getelementptr inbounds ([35 x i8], [35 x i8]* @.str.153, i64 0, i64 0), i8* getelementptr inbounds ([65 x i8], [65 x i8]* @.str, i64 0, i64 0), i32 337, i8* getelementptr inbounds ([218 x i8], [218 x i8]* @__PRETTY_FUNCTION__._Z41single_query_cached_kv_attention_launcherItLi32ELi128EEvRN2at6TensorES2_S2_S2_fS2_S2_i, i64 0, i64 0)) #19
  unreachable

99:                                               ; No predecessors!
  br label %100

100:                                              ; preds = %99, %97
  %101 = load %"class.at::Tensor"*, %"class.at::Tensor"** %9, align 8
  %102 = bitcast %"class.at::Tensor"* %101 to %"class.at::TensorBase"*
  %103 = call i8* @_ZNK2at10TensorBase8data_ptrEv(%"class.at::TensorBase"* nonnull align 8 dereferenceable(8) %102)
  %104 = bitcast i8* %103 to i16*
  store i16* %104, i16** %23, align 8
  %105 = load %"class.at::Tensor"*, %"class.at::Tensor"** %10, align 8
  %106 = bitcast %"class.at::Tensor"* %105 to %"class.at::TensorBase"*
  %107 = call i8* @_ZNK2at10TensorBase8data_ptrEv(%"class.at::TensorBase"* nonnull align 8 dereferenceable(8) %106)
  %108 = bitcast i8* %107 to i16*
  store i16* %108, i16** %24, align 8
  %109 = load %"class.at::Tensor"*, %"class.at::Tensor"** %11, align 8
  %110 = bitcast %"class.at::Tensor"* %109 to %"class.at::TensorBase"*
  %111 = call i8* @_ZNK2at10TensorBase8data_ptrEv(%"class.at::TensorBase"* nonnull align 8 dereferenceable(8) %110)
  %112 = bitcast i8* %111 to i16*
  store i16* %112, i16** %25, align 8
  %113 = load %"class.at::Tensor"*, %"class.at::Tensor"** %12, align 8
  %114 = bitcast %"class.at::Tensor"* %113 to %"class.at::TensorBase"*
  %115 = call i8* @_ZNK2at10TensorBase8data_ptrEv(%"class.at::TensorBase"* nonnull align 8 dereferenceable(8) %114)
  %116 = bitcast i8* %115 to i16*
  store i16* %116, i16** %26, align 8
  %117 = load %"class.at::Tensor"*, %"class.at::Tensor"** %14, align 8
  %118 = bitcast %"class.at::Tensor"* %117 to %"class.at::TensorBase"*
  %119 = call i32* @_ZNK2at10TensorBase8data_ptrIiEEPT_v(%"class.at::TensorBase"* nonnull align 8 dereferenceable(8) %118)
  store i32* %119, i32** %27, align 8
  %120 = load %"class.at::Tensor"*, %"class.at::Tensor"** %15, align 8
  %121 = bitcast %"class.at::Tensor"* %120 to %"class.at::TensorBase"*
  %122 = call i32* @_ZNK2at10TensorBase8data_ptrIiEEPT_v(%"class.at::TensorBase"* nonnull align 8 dereferenceable(8) %121)
  store i32* %122, i32** %28, align 8
  store i32 4, i32* %29, align 4
  %123 = load i32, i32* %16, align 4
  %124 = add nsw i32 %123, 32
  %125 = sub nsw i32 %124, 1
  %126 = sdiv i32 %125, 32
  %127 = mul nsw i32 %126, 32
  store i32 %127, i32* %30, align 4
  %128 = load i32, i32* %30, align 4
  %129 = sext i32 %128 to i64
  %130 = mul i64 %129, 2
  %131 = trunc i64 %130 to i32
  store i32 %131, i32* %31, align 4
  %132 = load i32, i32* %19, align 4
  %133 = mul nsw i32 2, %132
  %134 = sext i32 %133 to i64
  %135 = mul i64 %134, 4
  %136 = trunc i64 %135 to i32
  store i32 %136, i32* %32, align 4
  %137 = call nonnull align 4 dereferenceable(4) i32* @_ZSt3maxIiEUa9enable_ifILb1EERKT_S2_S2_(i32* nonnull align 4 dereferenceable(4) %31, i32* nonnull align 4 dereferenceable(4) %32)
  %138 = load i32, i32* %137, align 4
  store i32 %138, i32* %33, align 4
  %139 = load i32, i32* %18, align 4
  %140 = load i32, i32* %17, align 4
  call void @_ZN4dim3C2Ejjj(%struct.dim3* nonnull align 4 dereferenceable(12) %34, i32 %139, i32 %140, i32 1)
  call void @_ZN4dim3C2Ejjj(%struct.dim3* nonnull align 4 dereferenceable(12) %35, i32 128, i32 1, i32 1)
  %141 = call { i64, i64 } @_ZN3c104cuda20getCurrentCUDAStreamEa(i8 signext -1)
  %142 = getelementptr inbounds %"class.c10::cuda::CUDAStream", %"class.c10::cuda::CUDAStream"* %37, i32 0, i32 0
  %143 = bitcast %"class.c10::Stream"* %142 to { i64, i64 }*
  %144 = getelementptr inbounds { i64, i64 }, { i64, i64 }* %143, i32 0, i32 0
  %145 = extractvalue { i64, i64 } %141, 0
  store i64 %145, i64* %144, align 8
  %146 = getelementptr inbounds { i64, i64 }, { i64, i64 }* %143, i32 0, i32 1
  %147 = extractvalue { i64, i64 } %141, 1
  store i64 %147, i64* %146, align 8
  %148 = call %struct.CUstream_st* @_ZNK3c104cuda10CUDAStreamcvP11CUstream_stEv(%"class.c10::cuda::CUDAStream"* nonnull align 8 dereferenceable(16) %37)
  store %struct.CUstream_st* %148, %struct.CUstream_st** %36, align 8
  %149 = load i32, i32* %19, align 4
  switch i32 %149, label %422 [
    i32 32, label %150
    i32 64, label %184
    i32 80, label %218
    i32 96, label %252
    i32 128, label %286
    i32 160, label %320
    i32 192, label %354
    i32 256, label %388
  ]

150:                                              ; preds = %100
  %151 = bitcast %struct.dim3* %38 to i8*
  %152 = bitcast %struct.dim3* %34 to i8*
  call void @llvm.memcpy.p0i8.p0i8.i64(i8* align 4 %151, i8* align 4 %152, i64 12, i1 false)
  %153 = bitcast %struct.dim3* %39 to i8*
  %154 = bitcast %struct.dim3* %35 to i8*
  call void @llvm.memcpy.p0i8.p0i8.i64(i8* align 4 %153, i8* align 4 %154, i64 12, i1 false)
  %155 = load i32, i32* %33, align 4
  %156 = sext i32 %155 to i64
  %157 = load %struct.CUstream_st*, %struct.CUstream_st** %36, align 8
  %158 = bitcast %struct.CUstream_st* %157 to i8*
  %159 = bitcast { i64, i32 }* %40 to i8*
  %160 = bitcast %struct.dim3* %38 to i8*
  call void @llvm.memcpy.p0i8.p0i8.i64(i8* align 4 %159, i8* align 4 %160, i64 12, i1 false)
  %161 = getelementptr inbounds { i64, i32 }, { i64, i32 }* %40, i32 0, i32 0
  %162 = load i64, i64* %161, align 4
  %163 = getelementptr inbounds { i64, i32 }, { i64, i32 }* %40, i32 0, i32 1
  %164 = load i32, i32* %163, align 4
  %165 = bitcast { i64, i32 }* %41 to i8*
  %166 = bitcast %struct.dim3* %39 to i8*
  call void @llvm.memcpy.p0i8.p0i8.i64(i8* align 4 %165, i8* align 4 %166, i64 12, i1 false)
  %167 = getelementptr inbounds { i64, i32 }, { i64, i32 }* %41, i32 0, i32 0
  %168 = load i64, i64* %167, align 4
  %169 = getelementptr inbounds { i64, i32 }, { i64, i32 }* %41, i32 0, i32 1
  %170 = load i32, i32* %169, align 4
  %171 = call i32 @__cudaPushCallConfiguration(i64 %162, i32 %164, i64 %168, i32 %170, i64 %156, i8* %158)
  %172 = icmp ne i32 %171, 0
  br i1 %172, label %183, label %173

173:                                              ; preds = %150
  %174 = load i16*, i16** %23, align 8
  %175 = load i16*, i16** %24, align 8
  %176 = load i16*, i16** %25, align 8
  %177 = load i16*, i16** %26, align 8
  %178 = load float, float* %13, align 4
  %179 = load i32*, i32** %27, align 8
  %180 = load i32*, i32** %28, align 8
  %181 = load i32, i32* %20, align 4
  %182 = load i32, i32* %21, align 4
  call void @_ZN9cacheflow54__device_stub__single_query_cached_kv_attention_kernelItLi32ELi32ELi128EEEvPT_PKS1_S4_S4_fPKiS6_ii(i16* %174, i16* %175, i16* %176, i16* %177, float %178, i32* %179, i32* %180, i32 %181, i32 %182)
  br label %183

183:                                              ; preds = %173, %150
  br label %428

184:                                              ; preds = %100
  %185 = bitcast %struct.dim3* %42 to i8*
  %186 = bitcast %struct.dim3* %34 to i8*
  call void @llvm.memcpy.p0i8.p0i8.i64(i8* align 4 %185, i8* align 4 %186, i64 12, i1 false)
  %187 = bitcast %struct.dim3* %43 to i8*
  %188 = bitcast %struct.dim3* %35 to i8*
  call void @llvm.memcpy.p0i8.p0i8.i64(i8* align 4 %187, i8* align 4 %188, i64 12, i1 false)
  %189 = load i32, i32* %33, align 4
  %190 = sext i32 %189 to i64
  %191 = load %struct.CUstream_st*, %struct.CUstream_st** %36, align 8
  %192 = bitcast %struct.CUstream_st* %191 to i8*
  %193 = bitcast { i64, i32 }* %44 to i8*
  %194 = bitcast %struct.dim3* %42 to i8*
  call void @llvm.memcpy.p0i8.p0i8.i64(i8* align 4 %193, i8* align 4 %194, i64 12, i1 false)
  %195 = getelementptr inbounds { i64, i32 }, { i64, i32 }* %44, i32 0, i32 0
  %196 = load i64, i64* %195, align 4
  %197 = getelementptr inbounds { i64, i32 }, { i64, i32 }* %44, i32 0, i32 1
  %198 = load i32, i32* %197, align 4
  %199 = bitcast { i64, i32 }* %45 to i8*
  %200 = bitcast %struct.dim3* %43 to i8*
  call void @llvm.memcpy.p0i8.p0i8.i64(i8* align 4 %199, i8* align 4 %200, i64 12, i1 false)
  %201 = getelementptr inbounds { i64, i32 }, { i64, i32 }* %45, i32 0, i32 0
  %202 = load i64, i64* %201, align 4
  %203 = getelementptr inbounds { i64, i32 }, { i64, i32 }* %45, i32 0, i32 1
  %204 = load i32, i32* %203, align 4
  %205 = call i32 @__cudaPushCallConfiguration(i64 %196, i32 %198, i64 %202, i32 %204, i64 %190, i8* %192)
  %206 = icmp ne i32 %205, 0
  br i1 %206, label %217, label %207

207:                                              ; preds = %184
  %208 = load i16*, i16** %23, align 8
  %209 = load i16*, i16** %24, align 8
  %210 = load i16*, i16** %25, align 8
  %211 = load i16*, i16** %26, align 8
  %212 = load float, float* %13, align 4
  %213 = load i32*, i32** %27, align 8
  %214 = load i32*, i32** %28, align 8
  %215 = load i32, i32* %20, align 4
  %216 = load i32, i32* %21, align 4
  call void @_ZN9cacheflow54__device_stub__single_query_cached_kv_attention_kernelItLi64ELi32ELi128EEEvPT_PKS1_S4_S4_fPKiS6_ii(i16* %208, i16* %209, i16* %210, i16* %211, float %212, i32* %213, i32* %214, i32 %215, i32 %216)
  br label %217

217:                                              ; preds = %207, %184
  br label %428

218:                                              ; preds = %100
  %219 = bitcast %struct.dim3* %46 to i8*
  %220 = bitcast %struct.dim3* %34 to i8*
  call void @llvm.memcpy.p0i8.p0i8.i64(i8* align 4 %219, i8* align 4 %220, i64 12, i1 false)
  %221 = bitcast %struct.dim3* %47 to i8*
  %222 = bitcast %struct.dim3* %35 to i8*
  call void @llvm.memcpy.p0i8.p0i8.i64(i8* align 4 %221, i8* align 4 %222, i64 12, i1 false)
  %223 = load i32, i32* %33, align 4
  %224 = sext i32 %223 to i64
  %225 = load %struct.CUstream_st*, %struct.CUstream_st** %36, align 8
  %226 = bitcast %struct.CUstream_st* %225 to i8*
  %227 = bitcast { i64, i32 }* %48 to i8*
  %228 = bitcast %struct.dim3* %46 to i8*
  call void @llvm.memcpy.p0i8.p0i8.i64(i8* align 4 %227, i8* align 4 %228, i64 12, i1 false)
  %229 = getelementptr inbounds { i64, i32 }, { i64, i32 }* %48, i32 0, i32 0
  %230 = load i64, i64* %229, align 4
  %231 = getelementptr inbounds { i64, i32 }, { i64, i32 }* %48, i32 0, i32 1
  %232 = load i32, i32* %231, align 4
  %233 = bitcast { i64, i32 }* %49 to i8*
  %234 = bitcast %struct.dim3* %47 to i8*
  call void @llvm.memcpy.p0i8.p0i8.i64(i8* align 4 %233, i8* align 4 %234, i64 12, i1 false)
  %235 = getelementptr inbounds { i64, i32 }, { i64, i32 }* %49, i32 0, i32 0
  %236 = load i64, i64* %235, align 4
  %237 = getelementptr inbounds { i64, i32 }, { i64, i32 }* %49, i32 0, i32 1
  %238 = load i32, i32* %237, align 4
  %239 = call i32 @__cudaPushCallConfiguration(i64 %230, i32 %232, i64 %236, i32 %238, i64 %224, i8* %226)
  %240 = icmp ne i32 %239, 0
  br i1 %240, label %251, label %241

241:                                              ; preds = %218
  %242 = load i16*, i16** %23, align 8
  %243 = load i16*, i16** %24, align 8
  %244 = load i16*, i16** %25, align 8
  %245 = load i16*, i16** %26, align 8
  %246 = load float, float* %13, align 4
  %247 = load i32*, i32** %27, align 8
  %248 = load i32*, i32** %28, align 8
  %249 = load i32, i32* %20, align 4
  %250 = load i32, i32* %21, align 4
  call void @_ZN9cacheflow54__device_stub__single_query_cached_kv_attention_kernelItLi80ELi32ELi128EEEvPT_PKS1_S4_S4_fPKiS6_ii(i16* %242, i16* %243, i16* %244, i16* %245, float %246, i32* %247, i32* %248, i32 %249, i32 %250)
  br label %251

251:                                              ; preds = %241, %218
  br label %428

252:                                              ; preds = %100
  %253 = bitcast %struct.dim3* %50 to i8*
  %254 = bitcast %struct.dim3* %34 to i8*
  call void @llvm.memcpy.p0i8.p0i8.i64(i8* align 4 %253, i8* align 4 %254, i64 12, i1 false)
  %255 = bitcast %struct.dim3* %51 to i8*
  %256 = bitcast %struct.dim3* %35 to i8*
  call void @llvm.memcpy.p0i8.p0i8.i64(i8* align 4 %255, i8* align 4 %256, i64 12, i1 false)
  %257 = load i32, i32* %33, align 4
  %258 = sext i32 %257 to i64
  %259 = load %struct.CUstream_st*, %struct.CUstream_st** %36, align 8
  %260 = bitcast %struct.CUstream_st* %259 to i8*
  %261 = bitcast { i64, i32 }* %52 to i8*
  %262 = bitcast %struct.dim3* %50 to i8*
  call void @llvm.memcpy.p0i8.p0i8.i64(i8* align 4 %261, i8* align 4 %262, i64 12, i1 false)
  %263 = getelementptr inbounds { i64, i32 }, { i64, i32 }* %52, i32 0, i32 0
  %264 = load i64, i64* %263, align 4
  %265 = getelementptr inbounds { i64, i32 }, { i64, i32 }* %52, i32 0, i32 1
  %266 = load i32, i32* %265, align 4
  %267 = bitcast { i64, i32 }* %53 to i8*
  %268 = bitcast %struct.dim3* %51 to i8*
  call void @llvm.memcpy.p0i8.p0i8.i64(i8* align 4 %267, i8* align 4 %268, i64 12, i1 false)
  %269 = getelementptr inbounds { i64, i32 }, { i64, i32 }* %53, i32 0, i32 0
  %270 = load i64, i64* %269, align 4
  %271 = getelementptr inbounds { i64, i32 }, { i64, i32 }* %53, i32 0, i32 1
  %272 = load i32, i32* %271, align 4
  %273 = call i32 @__cudaPushCallConfiguration(i64 %264, i32 %266, i64 %270, i32 %272, i64 %258, i8* %260)
  %274 = icmp ne i32 %273, 0
  br i1 %274, label %285, label %275

275:                                              ; preds = %252
  %276 = load i16*, i16** %23, align 8
  %277 = load i16*, i16** %24, align 8
  %278 = load i16*, i16** %25, align 8
  %279 = load i16*, i16** %26, align 8
  %280 = load float, float* %13, align 4
  %281 = load i32*, i32** %27, align 8
  %282 = load i32*, i32** %28, align 8
  %283 = load i32, i32* %20, align 4
  %284 = load i32, i32* %21, align 4
  call void @_ZN9cacheflow54__device_stub__single_query_cached_kv_attention_kernelItLi96ELi32ELi128EEEvPT_PKS1_S4_S4_fPKiS6_ii(i16* %276, i16* %277, i16* %278, i16* %279, float %280, i32* %281, i32* %282, i32 %283, i32 %284)
  br label %285

285:                                              ; preds = %275, %252
  br label %428

286:                                              ; preds = %100
  %287 = bitcast %struct.dim3* %54 to i8*
  %288 = bitcast %struct.dim3* %34 to i8*
  call void @llvm.memcpy.p0i8.p0i8.i64(i8* align 4 %287, i8* align 4 %288, i64 12, i1 false)
  %289 = bitcast %struct.dim3* %55 to i8*
  %290 = bitcast %struct.dim3* %35 to i8*
  call void @llvm.memcpy.p0i8.p0i8.i64(i8* align 4 %289, i8* align 4 %290, i64 12, i1 false)
  %291 = load i32, i32* %33, align 4
  %292 = sext i32 %291 to i64
  %293 = load %struct.CUstream_st*, %struct.CUstream_st** %36, align 8
  %294 = bitcast %struct.CUstream_st* %293 to i8*
  %295 = bitcast { i64, i32 }* %56 to i8*
